 game_shader_dx9

 Timestamp is 4e99ba69 (Sat Oct 15 09:52:57 2011)

 Preferred load address is 10000000

 Start         Length     Name                   Class
 0001:00000000 000414c8H .text                   CODE
 0001:000414d0 00008673H .text$yc                CODE
 0001:00049b50 000005dfH .text$yd                CODE
 0002:00000000 00000130H .idata$5                DATA
 0002:00000130 00000004H .CRT$XCA                DATA
 0002:00000134 00000b9cH .CRT$XCU                DATA
 0002:00000cd0 00000004H .CRT$XCZ                DATA
 0002:00000cd4 00000004H .CRT$XIA                DATA
 0002:00000cd8 00000014H .CRT$XIC                DATA
 0002:00000cec 00000004H .CRT$XIZ                DATA
 0002:00000cf0 00000004H .CRT$XPA                DATA
 0002:00000cf4 00000004H .CRT$XPX                DATA
 0002:00000cf8 00000004H .CRT$XPXA               DATA
 0002:00000cfc 00000004H .CRT$XPZ                DATA
 0002:00000d00 00000004H .CRT$XTA                DATA
 0002:00000d04 00000004H .CRT$XTZ                DATA
 0002:00000d10 00010530H .rdata                  DATA
 0002:00011240 00000079H .rdata$debug            DATA
 0002:000112bc 00001cbcH .rdata$r                DATA
 0002:00012f80 0000000cH .rdata$sxdata           DATA
 0002:00012f8c 00000004H .rtc$IAA                DATA
 0002:00012f90 00000004H .rtc$IZZ                DATA
 0002:00012f94 00000004H .rtc$TAA                DATA
 0002:00012f98 00000004H .rtc$TZZ                DATA
 0002:00012fa0 00000344H .xdata$x                DATA
 0002:000132e4 0000003cH .idata$2                DATA
 0002:00013320 00000014H .idata$3                DATA
 0002:00013334 00000130H .idata$4                DATA
 0002:00013464 0000054eH .idata$6                DATA
 0002:000139c0 00000088H .edata                  DATA
 0003:00000000 0000688aH .data                   DATA
 0003:000068a0 0000d4e0H .bss                    DATA

  Address         Publics by Value              Rva+Base       Lib:Object

 0000:00000000       __except_list              00000000     <absolute>
 0000:00000003       ___safe_se_handler_count   00000003     <absolute>
 0000:00000000       ___ImageBase               10000000     <linker-defined>
 0001:00000000       ?GetFallbackShader@CShader@SDK_LightmappedReflective_DX90@@UBEPBDPAPAVIMaterialVar@@@Z 10001000 f i lightmappedreflective.obj
 0001:00000000       ?GetFallbackShader@CShader@SDK_LightmappedGeneric_Decal@@UBEPBDPAPAVIMaterialVar@@@Z 10001000 f i lightmappedgeneric_decal.obj
 0001:00000000       ?GetFallbackShader@CBaseShader@@UBEPBDPAPAVIMaterialVar@@@Z 10001000 f i aftershock.obj
 0001:00000010       ?GetSoftwareVertexShader@CBaseShader@@UBEQ6AXAAVCMeshBuilder@@PAPAVIMaterialVar@@PAVIShaderDynamicAPI@@@ZXZ 10001010 f i aftershock.obj
 0001:00000020       ?GetFallbackShader@CShader@SDK_Aftershock@@UBEPBDPAPAVIMaterialVar@@@Z 10001020 f i aftershock.obj
 0001:00000030       ?GetName@CShader@SDK_Aftershock@@UBEPBDXZ 10001030 f i aftershock.obj
 0001:00000040       ?GetFlags@CShader@SDK_Aftershock@@UBEHXZ 10001040 f i aftershock.obj
 0001:00000050       ?GetNumParams@CShader@SDK_Aftershock@@UBEHXZ 10001050 f i aftershock.obj
 0001:00000060       ?GetParamName@CShader@SDK_Aftershock@@UBEPBDH@Z 10001060 f i aftershock.obj
 0001:00000090       ?GetParamHelp@CShader@SDK_Aftershock@@UBEPBDH@Z 10001090 f i aftershock.obj
 0001:000000d0       ?GetParamType@CShader@SDK_Aftershock@@UBE?AW4ShaderParamType_t@@H@Z 100010d0 f i aftershock.obj
 0001:00000100       ?GetParamDefault@CShader@SDK_Aftershock@@UBEPBDH@Z 10001100 f i aftershock.obj
 0001:00000140       ?GetParamFlags@CShader@SDK_Aftershock@@UBEHH@Z 10001140 f i aftershock.obj
 0001:00000180       ??0CShader@SDK_Aftershock@@QAE@XZ 10001180 f i aftershock.obj
 0001:000001e0       ?OnInitShaderParams@CShader@SDK_Aftershock_dx9@@UAEXPAPAVIMaterialVar@@PBD@Z 100011e0 f i aftershock.obj
 0001:00000270       ?GetFallbackShader@CShader@SDK_Aftershock_dx9@@UBEPBDPAPAVIMaterialVar@@@Z 10001270 f i aftershock.obj
 0001:00000290       ?GetName@CShader@SDK_Aftershock_dx9@@UBEPBDXZ 10001290 f i aftershock.obj
 0001:000002a0       ?GetFlags@CShader@SDK_Aftershock_dx9@@UBEHXZ 100012a0 f i aftershock.obj
 0001:000002b0       ?GetNumParams@CShader@SDK_Aftershock_dx9@@UBEHXZ 100012b0 f i aftershock.obj
 0001:000002c0       ?GetParamName@CShader@SDK_Aftershock_dx9@@UBEPBDH@Z 100012c0 f i aftershock.obj
 0001:000002f0       ?GetParamHelp@CShader@SDK_Aftershock_dx9@@UBEPBDH@Z 100012f0 f i aftershock.obj
 0001:00000330       ?GetParamType@CShader@SDK_Aftershock_dx9@@UBE?AW4ShaderParamType_t@@H@Z 10001330 f i aftershock.obj
 0001:00000360       ?GetParamDefault@CShader@SDK_Aftershock_dx9@@UBEPBDH@Z 10001360 f i aftershock.obj
 0001:000003a0       ?GetParamFlags@CShader@SDK_Aftershock_dx9@@UBEHH@Z 100013a0 f i aftershock.obj
 0001:000003e0       ?OnInitShaderInstance@CShader@SDK_Aftershock_dx9@@UAEXPAPAVIMaterialVar@@PAVIShaderInit@@PBD@Z 100013e0 f i aftershock.obj
 0001:00000440       ?OnDrawElements@CShader@SDK_Aftershock_dx9@@UAEXPAPAVIMaterialVar@@PAVIShaderShadow@@PAVIShaderDynamicAPI@@W4VertexCompressionType_t@@PAPAVCBasePerMaterialContextData@@@Z 10001440 f i aftershock.obj
 0001:000004e0       ??1?$CUtlVector@PAVCShaderParam@SDK_Aftershock@@V?$CUtlMemory@PAVCShaderParam@SDK_Aftershock@@H@@@@QAE@XZ 100014e0 f i aftershock.obj
 0001:00000550       ??1?$CUtlVector@PAVCShaderParam@SDK_Aftershock_dx9@@V?$CUtlMemory@PAVCShaderParam@SDK_Aftershock_dx9@@H@@@@QAE@XZ 10001550 f i aftershock.obj
 0001:000005c0       ?InsertBefore@?$CUtlVector@PAVCShaderParam@SDK_Aftershock_dx9@@V?$CUtlMemory@PAVCShaderParam@SDK_Aftershock_dx9@@H@@@@QAEHHABQAVCShaderParam@SDK_Aftershock_dx9@@@Z 100015c0 f i aftershock.obj
 0001:00000630       ?Grow@?$CUtlMemory@PAVCShaderParam@SDK_Aftershock_dx9@@H@@QAEXH@Z 10001630 f i aftershock.obj
 0001:000006d0       ?InitParamsAftershock@@YAXPAVCBaseVSShader@@PAPAVIMaterialVar@@PBDAAUAftershockVars_t@@@Z 100016d0 f   aftershock_helper.obj
 0001:000008d0       ?DrawAftershock@@YAXPAVCBaseVSShader@@PAPAVIMaterialVar@@PAVIShaderDynamicAPI@@PAVIShaderShadow@@AAUAftershockVars_t@@W4VertexCompressionType_t@@@Z 100018d0 f   aftershock_helper.obj
 0001:00000eb0       ?SetPixelShaderConstant@CBaseVSShader@@QAEXHHH@Z 10001eb0 f   BaseVSShader.obj
 0001:00000f30       ?SetPixelShaderConstantGammaToLinear@CBaseVSShader@@QAEXHH@Z 10001f30 f   BaseVSShader.obj
 0001:00001010       ?SetVertexShaderTextureTransform@CBaseVSShader@@QAEXHH@Z 10002010 f   BaseVSShader.obj
 0001:000010e0       ?SetVertexShaderTextureScaledTransform@CBaseVSShader@@QAEXHHH@Z 100020e0 f   BaseVSShader.obj
 0001:00001250       ?LoadModelViewMatrixIntoVertexShaderConstant@CBaseVSShader@@QAEXH@Z 10002250 f   BaseVSShader.obj
 0001:000012e0       ?EnablePixelShaderOverbright@CBaseVSShader@@QAEXH_N0@Z 100022e0 f   BaseVSShader.obj
 0001:00001320       ?SetModulationPixelShaderDynamicState_LinearColorSpace@CBaseVSShader@@QAEXH@Z 10002320 f   BaseVSShader.obj
 0001:000013d0       ?SetModulationPixelShaderDynamicState_LinearColorSpace_LinearScale@CBaseVSShader@@QAEXHM@Z 100023d0 f   BaseVSShader.obj
 0001:000014b0       ?SetEnvMapTintPixelShaderDynamicState@CBaseVSShader@@QAEXHHH_N@Z 100024b0 f   BaseVSShader.obj
 0001:00001540       ?SetHWMorphVertexShaderState@CBaseVSShader@@QAEXHHW4VertexTextureSampler_t@@@Z 10002540 f   BaseVSShader.obj
 0001:00001670       ?EvaluateBlendRequirements@CBaseVSShader@@QAE?AW4BlendType_t@@H_NH@Z 10002670 f   BaseVSShader.obj
 0001:00001740       ?SetFlashlightVertexShaderConstants@CBaseVSShader@@QAEX_NH0H0@Z 10002740 f   BaseVSShader.obj
 0001:00001910       ?DrawFlashlight_dx80@CBaseVSShader@@QAEXPAPAVIMaterialVar@@PAVIShaderDynamicAPI@@PAVIShaderShadow@@_NHHHHH33HHH3HH@Z 10002910 f   BaseVSShader.obj
 0001:00001ba0       ?DrawFlashlight_dx90@CBaseVSShader@@QAEXPAPAVIMaterialVar@@PAVIShaderDynamicAPI@@PAVIShaderShadow@@AAUDrawFlashlight_dx90_Vars_t@1@@Z 10002ba0 f   BaseVSShader.obj
 0001:00002630       ?HashShadow2DJitter@CBaseVSShader@@QAEXMPAM0@Z 10003630 f   BaseVSShader.obj
 0001:000026a0       ?DrawEqualDepthToDestAlpha@CBaseVSShader@@QAEXXZ 100036a0 f   BaseVSShader.obj
 0001:00002790       ?GetName@CShader@Bleach_Bypass@@UBEPBDXZ 10003790 f i bleach_bypass.obj
 0001:000027a0       ?GetNumParams@CShader@Bleach_Bypass@@UBEHXZ 100037a0 f i bleach_bypass.obj
 0001:000027b0       ?GetParamName@CShader@Bleach_Bypass@@UBEPBDH@Z 100037b0 f i bleach_bypass.obj
 0001:000027e0       ?GetParamHelp@CShader@Bleach_Bypass@@UBEPBDH@Z 100037e0 f i bleach_bypass.obj
 0001:00002820       ?GetParamType@CShader@Bleach_Bypass@@UBE?AW4ShaderParamType_t@@H@Z 10003820 f i bleach_bypass.obj
 0001:00002850       ?GetParamDefault@CShader@Bleach_Bypass@@UBEPBDH@Z 10003850 f i bleach_bypass.obj
 0001:00002890       ?GetParamFlags@CShader@Bleach_Bypass@@UBEHH@Z 10003890 f i bleach_bypass.obj
 0001:000028d0       ?OnInitShaderInstance@CShader@Bleach_Bypass@@UAEXPAPAVIMaterialVar@@PAVIShaderInit@@PBD@Z 100038d0 f i bleach_bypass.obj
 0001:00002930       ?OnDrawElements@CShader@Bleach_Bypass@@UAEXPAPAVIMaterialVar@@PAVIShaderShadow@@PAVIShaderDynamicAPI@@W4VertexCompressionType_t@@PAPAVCBasePerMaterialContextData@@@Z 10003930 f i bleach_bypass.obj
 0001:00002ab0       ??1?$CUtlVector@PAVCShaderParam@Bleach_Bypass@@V?$CUtlMemory@PAVCShaderParam@Bleach_Bypass@@H@@@@QAE@XZ 10003ab0 f i bleach_bypass.obj
 0001:00002b20       ?InsertBefore@?$CUtlVector@PAVCShaderParam@Bleach_Bypass@@V?$CUtlMemory@PAVCShaderParam@Bleach_Bypass@@H@@@@QAEHHABQAVCShaderParam@Bleach_Bypass@@@Z 10003b20 f i bleach_bypass.obj
 0001:00002b90       ?Grow@?$CUtlMemory@PAVCShaderParam@Bleach_Bypass@@H@@QAEXH@Z 10003b90 f i bleach_bypass.obj
 0001:00002c30       ?GetName@CShader@SDK_Bloom@@UBEPBDXZ 10003c30 f i Bloom.obj
 0001:00002c40       ?GetNumParams@CShader@SDK_Bloom@@UBEHXZ 10003c40 f i Bloom.obj
 0001:00002c50       ?GetParamName@CShader@SDK_Bloom@@UBEPBDH@Z 10003c50 f i Bloom.obj
 0001:00002c80       ?GetParamHelp@CShader@SDK_Bloom@@UBEPBDH@Z 10003c80 f i Bloom.obj
 0001:00002cc0       ?GetParamType@CShader@SDK_Bloom@@UBE?AW4ShaderParamType_t@@H@Z 10003cc0 f i Bloom.obj
 0001:00002cf0       ?GetParamDefault@CShader@SDK_Bloom@@UBEPBDH@Z 10003cf0 f i Bloom.obj
 0001:00002d30       ?GetParamFlags@CShader@SDK_Bloom@@UBEHH@Z 10003d30 f i Bloom.obj
 0001:00002d70       ?OnInitShaderInstance@CShader@SDK_Bloom@@UAEXPAPAVIMaterialVar@@PAVIShaderInit@@PBD@Z 10003d70 f i Bloom.obj
 0001:00002e20       ?OnDrawElements@CShader@SDK_Bloom@@UAEXPAPAVIMaterialVar@@PAVIShaderShadow@@PAVIShaderDynamicAPI@@W4VertexCompressionType_t@@PAPAVCBasePerMaterialContextData@@@Z 10003e20 f i Bloom.obj
 0001:00002fb0       ??1?$CUtlVector@PAVCShaderParam@SDK_Bloom@@V?$CUtlMemory@PAVCShaderParam@SDK_Bloom@@H@@@@QAE@XZ 10003fb0 f i Bloom.obj
 0001:00003020       ?InsertBefore@?$CUtlVector@PAVCShaderParam@SDK_Bloom@@V?$CUtlMemory@PAVCShaderParam@SDK_Bloom@@H@@@@QAEHHABQAVCShaderParam@SDK_Bloom@@@Z 10004020 f i Bloom.obj
 0001:00003090       ?Grow@?$CUtlMemory@PAVCShaderParam@SDK_Bloom@@H@@QAEXH@Z 10004090 f i Bloom.obj
 0001:00003130       ?GetFallbackShader@CShader@SDK_Cable@@UBEPBDPAPAVIMaterialVar@@@Z 10004130 f i cable_dx9.obj
 0001:00003140       ?GetName@CShader@SDK_Cable@@UBEPBDXZ 10004140 f i cable_dx9.obj
 0001:00003150       ?GetFlags@CShader@SDK_Cable@@UBEHXZ 10004150 f i cable_dx9.obj
 0001:00003160       ?GetNumParams@CShader@SDK_Cable@@UBEHXZ 10004160 f i cable_dx9.obj
 0001:00003170       ?GetParamName@CShader@SDK_Cable@@UBEPBDH@Z 10004170 f i cable_dx9.obj
 0001:000031a0       ?GetParamHelp@CShader@SDK_Cable@@UBEPBDH@Z 100041a0 f i cable_dx9.obj
 0001:000031e0       ?GetParamType@CShader@SDK_Cable@@UBE?AW4ShaderParamType_t@@H@Z 100041e0 f i cable_dx9.obj
 0001:00003210       ?GetParamDefault@CShader@SDK_Cable@@UBEPBDH@Z 10004210 f i cable_dx9.obj
 0001:00003250       ?GetParamFlags@CShader@SDK_Cable@@UBEHH@Z 10004250 f i cable_dx9.obj
 0001:00003290       ??0CShader@SDK_Cable@@QAE@XZ 10004290 f i cable_dx9.obj
 0001:000032f0       ?GetFallbackShader@CShader@SDK_Cable_DX9@@UBEPBDPAPAVIMaterialVar@@@Z 100042f0 f i cable_dx9.obj
 0001:00003340       ?GetName@CShader@SDK_Cable_DX9@@UBEPBDXZ 10004340 f i cable_dx9.obj
 0001:00003350       ?GetFlags@CShader@SDK_Cable_DX9@@UBEHXZ 10004350 f i cable_dx9.obj
 0001:00003360       ?GetNumParams@CShader@SDK_Cable_DX9@@UBEHXZ 10004360 f i cable_dx9.obj
 0001:00003370       ?GetParamName@CShader@SDK_Cable_DX9@@UBEPBDH@Z 10004370 f i cable_dx9.obj
 0001:000033a0       ?GetParamHelp@CShader@SDK_Cable_DX9@@UBEPBDH@Z 100043a0 f i cable_dx9.obj
 0001:000033e0       ?GetParamType@CShader@SDK_Cable_DX9@@UBE?AW4ShaderParamType_t@@H@Z 100043e0 f i cable_dx9.obj
 0001:00003410       ?GetParamDefault@CShader@SDK_Cable_DX9@@UBEPBDH@Z 10004410 f i cable_dx9.obj
 0001:00003450       ?GetParamFlags@CShader@SDK_Cable_DX9@@UBEHH@Z 10004450 f i cable_dx9.obj
 0001:00003490       ?OnInitShaderInstance@CShader@SDK_Cable_DX9@@UAEXPAPAVIMaterialVar@@PAVIShaderInit@@PBD@Z 10004490 f i cable_dx9.obj
 0001:00003510       ?OnDrawElements@CShader@SDK_Cable_DX9@@UAEXPAPAVIMaterialVar@@PAVIShaderShadow@@PAVIShaderDynamicAPI@@W4VertexCompressionType_t@@PAPAVCBasePerMaterialContextData@@@Z 10004510 f i cable_dx9.obj
 0001:000038c0       ??1?$CUtlVector@PAVCShaderParam@SDK_Cable@@V?$CUtlMemory@PAVCShaderParam@SDK_Cable@@H@@@@QAE@XZ 100048c0 f i cable_dx9.obj
 0001:00003930       ??1?$CUtlVector@PAVCShaderParam@SDK_Cable_DX9@@V?$CUtlMemory@PAVCShaderParam@SDK_Cable_DX9@@H@@@@QAE@XZ 10004930 f i cable_dx9.obj
 0001:000039a0       ?InsertBefore@?$CUtlVector@PAVCShaderParam@SDK_Cable_DX9@@V?$CUtlMemory@PAVCShaderParam@SDK_Cable_DX9@@H@@@@QAEHHABQAVCShaderParam@SDK_Cable_DX9@@@Z 100049a0 f i cable_dx9.obj
 0001:00003a10       ?Grow@?$CUtlMemory@PAVCShaderParam@SDK_Cable_DX9@@H@@QAEXH@Z 10004a10 f i cable_dx9.obj
 0001:00003ab0       ?GetName@CShader@Chromatic_Dispersion@@UBEPBDXZ 10004ab0 f i chromatic.obj
 0001:00003ac0       ?GetFlags@CShader@Chromatic_Dispersion@@UBEHXZ 10004ac0 f i chromatic.obj
 0001:00003ad0       ?GetNumParams@CShader@Chromatic_Dispersion@@UBEHXZ 10004ad0 f i chromatic.obj
 0001:00003ae0       ?GetParamName@CShader@Chromatic_Dispersion@@UBEPBDH@Z 10004ae0 f i chromatic.obj
 0001:00003b10       ?GetParamHelp@CShader@Chromatic_Dispersion@@UBEPBDH@Z 10004b10 f i chromatic.obj
 0001:00003b50       ?GetParamType@CShader@Chromatic_Dispersion@@UBE?AW4ShaderParamType_t@@H@Z 10004b50 f i chromatic.obj
 0001:00003b80       ?GetParamDefault@CShader@Chromatic_Dispersion@@UBEPBDH@Z 10004b80 f i chromatic.obj
 0001:00003bc0       ?GetParamFlags@CShader@Chromatic_Dispersion@@UBEHH@Z 10004bc0 f i chromatic.obj
 0001:00003c00       ?OnInitShaderInstance@CShader@Chromatic_Dispersion@@UAEXPAPAVIMaterialVar@@PAVIShaderInit@@PBD@Z 10004c00 f i chromatic.obj
 0001:00003c60       ?OnDrawElements@CShader@Chromatic_Dispersion@@UAEXPAPAVIMaterialVar@@PAVIShaderShadow@@PAVIShaderDynamicAPI@@W4VertexCompressionType_t@@PAPAVCBasePerMaterialContextData@@@Z 10004c60 f i chromatic.obj
 0001:00003df0       ??1?$CUtlVector@PAVCShaderParam@Chromatic_Dispersion@@V?$CUtlMemory@PAVCShaderParam@Chromatic_Dispersion@@H@@@@QAE@XZ 10004df0 f i chromatic.obj
 0001:00003e60       ?InsertBefore@?$CUtlVector@PAVCShaderParam@Chromatic_Dispersion@@V?$CUtlMemory@PAVCShaderParam@Chromatic_Dispersion@@H@@@@QAEHHABQAVCShaderParam@Chromatic_Dispersion@@@Z 10004e60 f i chromatic.obj
 0001:00003ed0       ?Grow@?$CUtlMemory@PAVCShaderParam@Chromatic_Dispersion@@H@@QAEXH@Z 10004ed0 f i chromatic.obj
 0001:00003f70       ?InitParamsCloakBlendedPass@@YAXPAVCBaseVSShader@@PAPAVIMaterialVar@@PBDAAUCloakBlendedPassVars_t@@@Z 10004f70 f   cloak_blended_pass_helper.obj
 0001:00004060       ?DrawCloakBlendedPass@@YAXPAVCBaseVSShader@@PAPAVIMaterialVar@@PAVIShaderDynamicAPI@@PAVIShaderShadow@@AAUCloakBlendedPassVars_t@@W4VertexCompressionType_t@@@Z 10005060 f   cloak_blended_pass_helper.obj
 0001:00004520       ?CloakBlendedPassIsFullyOpaque@@YA_NPAPAVIMaterialVar@@AAUCloakBlendedPassVars_t@@@Z 10005520 f   cloak_blended_pass_helper.obj
 0001:000045f0       ?GetName@CShader@Color_Clipping@@UBEPBDXZ 100055f0 f i color_clipping.obj
 0001:00004600       ?GetNumParams@CShader@Color_Clipping@@UBEHXZ 10005600 f i color_clipping.obj
 0001:00004610       ?GetParamName@CShader@Color_Clipping@@UBEPBDH@Z 10005610 f i color_clipping.obj
 0001:00004640       ?GetParamHelp@CShader@Color_Clipping@@UBEPBDH@Z 10005640 f i color_clipping.obj
 0001:00004680       ?GetParamType@CShader@Color_Clipping@@UBE?AW4ShaderParamType_t@@H@Z 10005680 f i color_clipping.obj
 0001:000046b0       ?GetParamDefault@CShader@Color_Clipping@@UBEPBDH@Z 100056b0 f i color_clipping.obj
 0001:000046f0       ?GetParamFlags@CShader@Color_Clipping@@UBEHH@Z 100056f0 f i color_clipping.obj
 0001:00004730       ?OnInitShaderInstance@CShader@Color_Clipping@@UAEXPAPAVIMaterialVar@@PAVIShaderInit@@PBD@Z 10005730 f i color_clipping.obj
 0001:00004790       ?GetFallbackShader@CShader@SDK_EyeGlint_dx9@@UBEPBDPAPAVIMaterialVar@@@Z 10005790 f i eyeglint_dx9.obj
 0001:00004790       ?GetFallbackShader@CShader@Desaturate@@UBEPBDPAPAVIMaterialVar@@@Z 10005790 f i Desaturate.obj
 0001:00004790       ?GetFallbackShader@CShader@Vignetting@@UBEPBDPAPAVIMaterialVar@@@Z 10005790 f i vignetting.obj
 0001:00004790       ?GetFallbackShader@CShader@Nightvision@@UBEPBDPAPAVIMaterialVar@@@Z 10005790 f i nightvision.obj
 0001:00004790       ?GetFallbackShader@CShader@GaussianY@@UBEPBDPAPAVIMaterialVar@@@Z 10005790 f i gaussiany.obj
 0001:00004790       ?GetFallbackShader@CShader@SDK_Bloom@@UBEPBDPAPAVIMaterialVar@@@Z 10005790 f i Bloom.obj
 0001:00004790       ?GetFallbackShader@CShader@Noise@@UBEPBDPAPAVIMaterialVar@@@Z 10005790 f i noise.obj
 0001:00004790       ?GetFallbackShader@CShader@Sepia@@UBEPBDPAPAVIMaterialVar@@@Z 10005790 f i sepia.obj
 0001:00004790       ?GetFallbackShader@CShader@GaussianX@@UBEPBDPAPAVIMaterialVar@@@Z 10005790 f i gaussianx.obj
 0001:00004790       ?GetFallbackShader@CShader@Unsharp_Blur@@UBEPBDPAPAVIMaterialVar@@@Z 10005790 f i unsharp_blur.obj
 0001:00004790       ?GetFallbackShader@CShader@Bleach_Bypass@@UBEPBDPAPAVIMaterialVar@@@Z 10005790 f i bleach_bypass.obj
 0001:00004790       ?GetFallbackShader@CShader@Cubic_Distortion@@UBEPBDPAPAVIMaterialVar@@@Z 10005790 f i cubic_distortion.obj
 0001:00004790       ?GetFallbackShader@CShader@RadialGaussianX@@UBEPBDPAPAVIMaterialVar@@@Z 10005790 f i radialgaussianx.obj
 0001:00004790       ?GetFallbackShader@CShader@Unsharp@@UBEPBDPAPAVIMaterialVar@@@Z 10005790 f i unsharp.obj
 0001:00004790       ?GetFallbackShader@CShader@ScreenWater@@UBEPBDPAPAVIMaterialVar@@@Z 10005790 f i screenwater.obj
 0001:00004790       ?GetFallbackShader@CShader@Negative@@UBEPBDPAPAVIMaterialVar@@@Z 10005790 f i negative.obj
 0001:00004790       ?GetFallbackShader@CShader@RadialGaussianY@@UBEPBDPAPAVIMaterialVar@@@Z 10005790 f i radialgaussiany.obj
 0001:00004790       ?GetFallbackShader@CShader@Chromatic_Dispersion@@UBEPBDPAPAVIMaterialVar@@@Z 10005790 f i chromatic.obj
 0001:00004790       ?GetFallbackShader@CShader@Color_Clipping@@UBEPBDPAPAVIMaterialVar@@@Z 10005790 f i color_clipping.obj
 0001:000047b0       ?OnDrawElements@CShader@Color_Clipping@@UAEXPAPAVIMaterialVar@@PAVIShaderShadow@@PAVIShaderDynamicAPI@@W4VertexCompressionType_t@@PAPAVCBasePerMaterialContextData@@@Z 100057b0 f i color_clipping.obj
 0001:00004a00       ??1?$CUtlVector@PAVCShaderParam@Color_Clipping@@V?$CUtlMemory@PAVCShaderParam@Color_Clipping@@H@@@@QAE@XZ 10005a00 f i color_clipping.obj
 0001:00004a70       ?InsertBefore@?$CUtlVector@PAVCShaderParam@Color_Clipping@@V?$CUtlMemory@PAVCShaderParam@Color_Clipping@@H@@@@QAEHHABQAVCShaderParam@Color_Clipping@@@Z 10005a70 f i color_clipping.obj
 0001:00004ae0       ?Grow@?$CUtlMemory@PAVCShaderParam@Color_Clipping@@H@@QAEXH@Z 10005ae0 f i color_clipping.obj
 0001:00004b80       ?GetName@CShader@Complements@@UBEPBDXZ 10005b80 f i complements.obj
 0001:00004b90       ?GetNumParams@CShader@Complements@@UBEHXZ 10005b90 f i complements.obj
 0001:00004ba0       ?GetParamName@CShader@Complements@@UBEPBDH@Z 10005ba0 f i complements.obj
 0001:00004bd0       ?GetParamHelp@CShader@Complements@@UBEPBDH@Z 10005bd0 f i complements.obj
 0001:00004c10       ?GetParamType@CShader@Complements@@UBE?AW4ShaderParamType_t@@H@Z 10005c10 f i complements.obj
 0001:00004c40       ?GetParamDefault@CShader@Complements@@UBEPBDH@Z 10005c40 f i complements.obj
 0001:00004c80       ?GetParamFlags@CShader@Complements@@UBEHH@Z 10005c80 f i complements.obj
 0001:00004cc0       ?OnInitShaderInstance@CShader@Complements@@UAEXPAPAVIMaterialVar@@PAVIShaderInit@@PBD@Z 10005cc0 f i complements.obj
 0001:00004d20       ?GetFallbackShader@CShader@Complements@@UBEPBDPAPAVIMaterialVar@@@Z 10005d20 f i complements.obj
 0001:00004d60       ?OnDrawElements@CShader@Complements@@UAEXPAPAVIMaterialVar@@PAVIShaderShadow@@PAVIShaderDynamicAPI@@W4VertexCompressionType_t@@PAPAVCBasePerMaterialContextData@@@Z 10005d60 f i complements.obj
 0001:00004f80       ??1?$CUtlVector@PAVCShaderParam@Complements@@V?$CUtlMemory@PAVCShaderParam@Complements@@H@@@@QAE@XZ 10005f80 f i complements.obj
 0001:00004ff0       ?InsertBefore@?$CUtlVector@PAVCShaderParam@Complements@@V?$CUtlMemory@PAVCShaderParam@Complements@@H@@@@QAEHHABQAVCShaderParam@Complements@@@Z 10005ff0 f i complements.obj
 0001:00005060       ?Grow@?$CUtlMemory@PAVCShaderParam@Complements@@H@@QAEXH@Z 10006060 f i complements.obj
 0001:00005100       ?GetFallbackShader@CShader@SDK_Core@@UBEPBDPAPAVIMaterialVar@@@Z 10006100 f i core_dx9.obj
 0001:00005110       ?GetName@CShader@SDK_Core@@UBEPBDXZ 10006110 f i core_dx9.obj
 0001:00005120       ?GetFlags@CShader@SDK_Core@@UBEHXZ 10006120 f i core_dx9.obj
 0001:00005130       ?GetNumParams@CShader@SDK_Core@@UBEHXZ 10006130 f i core_dx9.obj
 0001:00005140       ?GetParamName@CShader@SDK_Core@@UBEPBDH@Z 10006140 f i core_dx9.obj
 0001:00005170       ?GetParamHelp@CShader@SDK_Core@@UBEPBDH@Z 10006170 f i core_dx9.obj
 0001:000051b0       ?GetParamType@CShader@SDK_Core@@UBE?AW4ShaderParamType_t@@H@Z 100061b0 f i core_dx9.obj
 0001:000051e0       ?GetParamDefault@CShader@SDK_Core@@UBEPBDH@Z 100061e0 f i core_dx9.obj
 0001:00005220       ?GetParamFlags@CShader@SDK_Core@@UBEHH@Z 10006220 f i core_dx9.obj
 0001:00005260       ??0CShader@SDK_Core@@QAE@XZ 10006260 f i core_dx9.obj
 0001:000052c0       ?OnInitShaderParams@CShader@SDK_Core_DX90@@UAEXPAPAVIMaterialVar@@PBD@Z 100062c0 f i core_dx9.obj
 0001:000053d0       ?GetFallbackShader@CShader@SDK_Core_DX90@@UBEPBDPAPAVIMaterialVar@@@Z 100063d0 f i core_dx9.obj
 0001:000053f0       ?GetName@CShader@SDK_Core_DX90@@UBEPBDXZ 100063f0 f i core_dx9.obj
 0001:00005400       ?GetFlags@CShader@SDK_Core_DX90@@UBEHXZ 10006400 f i core_dx9.obj
 0001:00005410       ?GetNumParams@CShader@SDK_Core_DX90@@UBEHXZ 10006410 f i core_dx9.obj
 0001:00005420       ?GetParamName@CShader@SDK_Core_DX90@@UBEPBDH@Z 10006420 f i core_dx9.obj
 0001:00005450       ?GetParamHelp@CShader@SDK_Core_DX90@@UBEPBDH@Z 10006450 f i core_dx9.obj
 0001:00005490       ?GetParamType@CShader@SDK_Core_DX90@@UBE?AW4ShaderParamType_t@@H@Z 10006490 f i core_dx9.obj
 0001:000054c0       ?GetParamDefault@CShader@SDK_Core_DX90@@UBEPBDH@Z 100064c0 f i core_dx9.obj
 0001:00005500       ?GetParamFlags@CShader@SDK_Core_DX90@@UBEHH@Z 10006500 f i core_dx9.obj
 0001:00005540       ?OnInitShaderInstance@CShader@SDK_Core_DX90@@UAEXPAPAVIMaterialVar@@PAVIShaderInit@@PBD@Z 10006540 f i core_dx9.obj
 0001:000056d0       ?DrawPass@CShader@SDK_Core_DX90@@QAEXPAPAVIMaterialVar@@PAVIShaderShadow@@PAVIShaderDynamicAPI@@HW4VertexCompressionType_t@@@Z 100066d0 f i core_dx9.obj
 0001:000060b0       ?OnDrawElements@CShader@SDK_Core_DX90@@UAEXPAPAVIMaterialVar@@PAVIShaderShadow@@PAVIShaderDynamicAPI@@W4VertexCompressionType_t@@PAPAVCBasePerMaterialContextData@@@Z 100070b0 f i core_dx9.obj
 0001:000060f0       ??1?$CUtlVector@PAVCShaderParam@SDK_Core@@V?$CUtlMemory@PAVCShaderParam@SDK_Core@@H@@@@QAE@XZ 100070f0 f i core_dx9.obj
 0001:00006160       ??1?$CUtlVector@PAVCShaderParam@SDK_Core_DX90@@V?$CUtlMemory@PAVCShaderParam@SDK_Core_DX90@@H@@@@QAE@XZ 10007160 f i core_dx9.obj
 0001:000061d0       ?InsertBefore@?$CUtlVector@PAVCShaderParam@SDK_Core_DX90@@V?$CUtlMemory@PAVCShaderParam@SDK_Core_DX90@@H@@@@QAEHHABQAVCShaderParam@SDK_Core_DX90@@@Z 100071d0 f i core_dx9.obj
 0001:00006240       ?Grow@?$CUtlMemory@PAVCShaderParam@SDK_Core_DX90@@H@@QAEXH@Z 10007240 f i core_dx9.obj
 0001:000062e0       ?C17_GearDev@@YAXXZ        100072e0 f   credits.obj
 0001:000063d0       ?GetName@CShader@Cubic_Distortion@@UBEPBDXZ 100073d0 f i cubic_distortion.obj
 0001:000063e0       ?GetNumParams@CShader@Cubic_Distortion@@UBEHXZ 100073e0 f i cubic_distortion.obj
 0001:000063f0       ?GetParamName@CShader@Cubic_Distortion@@UBEPBDH@Z 100073f0 f i cubic_distortion.obj
 0001:00006420       ?GetParamHelp@CShader@Cubic_Distortion@@UBEPBDH@Z 10007420 f i cubic_distortion.obj
 0001:00006460       ?GetParamType@CShader@Cubic_Distortion@@UBE?AW4ShaderParamType_t@@H@Z 10007460 f i cubic_distortion.obj
 0001:00006490       ?GetParamDefault@CShader@Cubic_Distortion@@UBEPBDH@Z 10007490 f i cubic_distortion.obj
 0001:000064d0       ?GetParamFlags@CShader@Cubic_Distortion@@UBEHH@Z 100074d0 f i cubic_distortion.obj
 0001:00006510       ?OnInitShaderInstance@CShader@Cubic_Distortion@@UAEXPAPAVIMaterialVar@@PAVIShaderInit@@PBD@Z 10007510 f i cubic_distortion.obj
 0001:00006570       ?OnDrawElements@CShader@Cubic_Distortion@@UAEXPAPAVIMaterialVar@@PAVIShaderShadow@@PAVIShaderDynamicAPI@@W4VertexCompressionType_t@@PAPAVCBasePerMaterialContextData@@@Z 10007570 f i cubic_distortion.obj
 0001:00006720       ??1?$CUtlVector@PAVCShaderParam@Cubic_Distortion@@V?$CUtlMemory@PAVCShaderParam@Cubic_Distortion@@H@@@@QAE@XZ 10007720 f i cubic_distortion.obj
 0001:00006790       ?InsertBefore@?$CUtlVector@PAVCShaderParam@Cubic_Distortion@@V?$CUtlMemory@PAVCShaderParam@Cubic_Distortion@@H@@@@QAEHHABQAVCShaderParam@Cubic_Distortion@@@Z 10007790 f i cubic_distortion.obj
 0001:00006800       ?Grow@?$CUtlMemory@PAVCShaderParam@Cubic_Distortion@@H@@QAEXH@Z 10007800 f i cubic_distortion.obj
 0001:000068a0       ?GetName@CShader@Desaturate@@UBEPBDXZ 100078a0 f i Desaturate.obj
 0001:000068b0       ?GetFlags@CShader@Color_Clipping@@UBEHXZ 100078b0 f i color_clipping.obj
 0001:000068b0       ?GetFlags@CShader@Complements@@UBEHXZ 100078b0 f i complements.obj
 0001:000068b0       ?GetFlags@CShader@FXAA@@UBEHXZ 100078b0 f i fxaa.obj
 0001:000068b0       ?GetFlags@CShader@SDK_Bloom@@UBEHXZ 100078b0 f i Bloom.obj
 0001:000068b0       ?GetFlags@CShader@Radial_Blur@@UBEHXZ 100078b0 f i radial_blur.obj
 0001:000068b0       ?GetFlags@CShader@Desaturate@@UBEHXZ 100078b0 f i Desaturate.obj
 0001:000068b0       ?GetFlags@CShader@LUMA@@UBEHXZ 100078b0 f i luma.obj
 0001:000068b0       ?GetFlags@CShader@Cubic_Distortion@@UBEHXZ 100078b0 f i cubic_distortion.obj
 0001:000068b0       ?GetFlags@CShader@SDK_screenspace_general_dx9@@UBEHXZ 100078b0 f i screenspace_general.obj
 0001:000068b0       ?GetFlags@CShader@Bleach_Bypass@@UBEHXZ 100078b0 f i bleach_bypass.obj
 0001:000068b0       ?GetFlags@CShader@Negative@@UBEHXZ 100078b0 f i negative.obj
 0001:000068b0       ?GetFlags@CShader@SDK_Spritecard@@UBEHXZ 100078b0 f i spritecard.obj
 0001:000068c0       ?GetNumParams@CShader@Desaturate@@UBEHXZ 100078c0 f i Desaturate.obj
 0001:000068d0       ?GetParamName@CShader@Desaturate@@UBEPBDH@Z 100078d0 f i Desaturate.obj
 0001:00006900       ?GetParamHelp@CShader@Desaturate@@UBEPBDH@Z 10007900 f i Desaturate.obj
 0001:00006940       ?GetParamType@CShader@Desaturate@@UBE?AW4ShaderParamType_t@@H@Z 10007940 f i Desaturate.obj
 0001:00006970       ?GetParamDefault@CShader@Desaturate@@UBEPBDH@Z 10007970 f i Desaturate.obj
 0001:000069b0       ?GetParamFlags@CShader@Desaturate@@UBEHH@Z 100079b0 f i Desaturate.obj
 0001:000069f0       ?OnInitShaderInstance@CShader@Desaturate@@UAEXPAPAVIMaterialVar@@PAVIShaderInit@@PBD@Z 100079f0 f i Desaturate.obj
 0001:00006a50       ?OnDrawElements@CShader@Desaturate@@UAEXPAPAVIMaterialVar@@PAVIShaderShadow@@PAVIShaderDynamicAPI@@W4VertexCompressionType_t@@PAPAVCBasePerMaterialContextData@@@Z 10007a50 f i Desaturate.obj
 0001:00006bd0       ??1?$CUtlVector@PAVCShaderParam@Desaturate@@V?$CUtlMemory@PAVCShaderParam@Desaturate@@H@@@@QAE@XZ 10007bd0 f i Desaturate.obj
 0001:00006c40       ?InsertBefore@?$CUtlVector@PAVCShaderParam@Desaturate@@V?$CUtlMemory@PAVCShaderParam@Desaturate@@H@@@@QAEHHABQAVCShaderParam@Desaturate@@@Z 10007c40 f i Desaturate.obj
 0001:00006cb0       ?Grow@?$CUtlMemory@PAVCShaderParam@Desaturate@@H@@QAEXH@Z 10007cb0 f i Desaturate.obj
 0001:00006d50       ?GetName@CShader@SDK_DepthWrite@@UBEPBDXZ 10007d50 f i dx8fallbacks.obj
 0001:00006d60       ?GetFlags@CShader@SDK_DepthWrite@@UBEHXZ 10007d60 f i dx8fallbacks.obj
 0001:00006d70       ?GetNumParams@CShader@SDK_DepthWrite@@UBEHXZ 10007d70 f i dx8fallbacks.obj
 0001:00006d80       ?GetParamName@CShader@SDK_DepthWrite@@UBEPBDH@Z 10007d80 f i dx8fallbacks.obj
 0001:00006db0       ?GetParamHelp@CShader@SDK_DepthWrite@@UBEPBDH@Z 10007db0 f i dx8fallbacks.obj
 0001:00006df0       ?GetParamType@CShader@SDK_DepthWrite@@UBE?AW4ShaderParamType_t@@H@Z 10007df0 f i dx8fallbacks.obj
 0001:00006e20       ?GetParamDefault@CShader@SDK_DepthWrite@@UBEPBDH@Z 10007e20 f i dx8fallbacks.obj
 0001:00006e60       ?GetParamFlags@CShader@SDK_DepthWrite@@UBEHH@Z 10007e60 f i dx8fallbacks.obj
 0001:00006ea0       ??0CShader@SDK_DepthWrite@@QAE@XZ 10007ea0 f i dx8fallbacks.obj
 0001:00006f00       ?GetFallbackShader@CShader@SDK_EyeRefract@@UBEPBDPAPAVIMaterialVar@@@Z 10007f00 f i dx8fallbacks.obj
 0001:00006f10       ?GetName@CShader@SDK_EyeRefract@@UBEPBDXZ 10007f10 f i dx8fallbacks.obj
 0001:00006f20       ?GetFlags@CShader@SDK_EyeRefract@@UBEHXZ 10007f20 f i dx8fallbacks.obj
 0001:00006f30       ?GetNumParams@CShader@SDK_EyeRefract@@UBEHXZ 10007f30 f i dx8fallbacks.obj
 0001:00006f40       ?GetParamName@CShader@SDK_EyeRefract@@UBEPBDH@Z 10007f40 f i dx8fallbacks.obj
 0001:00006f70       ?GetParamHelp@CShader@SDK_EyeRefract@@UBEPBDH@Z 10007f70 f i dx8fallbacks.obj
 0001:00006fb0       ?GetParamType@CShader@SDK_EyeRefract@@UBE?AW4ShaderParamType_t@@H@Z 10007fb0 f i dx8fallbacks.obj
 0001:00006fe0       ?GetParamDefault@CShader@SDK_EyeRefract@@UBEPBDH@Z 10007fe0 f i dx8fallbacks.obj
 0001:00007020       ?GetParamFlags@CShader@SDK_EyeRefract@@UBEHH@Z 10008020 f i dx8fallbacks.obj
 0001:00007060       ?GetFallbackShader@CShader@SDK_VolumeClouds@@UBEPBDPAPAVIMaterialVar@@@Z 10008060 f i dx8fallbacks.obj
 0001:00007070       ?GetName@CShader@SDK_VolumeClouds@@UBEPBDXZ 10008070 f i dx8fallbacks.obj
 0001:00007080       ?GetFlags@CShader@SDK_VolumeClouds@@UBEHXZ 10008080 f i dx8fallbacks.obj
 0001:00007090       ?GetNumParams@CShader@SDK_VolumeClouds@@UBEHXZ 10008090 f i dx8fallbacks.obj
 0001:000070a0       ?GetParamName@CShader@SDK_VolumeClouds@@UBEPBDH@Z 100080a0 f i dx8fallbacks.obj
 0001:000070d0       ?GetParamHelp@CShader@SDK_VolumeClouds@@UBEPBDH@Z 100080d0 f i dx8fallbacks.obj
 0001:00007110       ?GetParamType@CShader@SDK_VolumeClouds@@UBE?AW4ShaderParamType_t@@H@Z 10008110 f i dx8fallbacks.obj
 0001:00007140       ?GetParamDefault@CShader@SDK_VolumeClouds@@UBEPBDH@Z 10008140 f i dx8fallbacks.obj
 0001:00007180       ?GetParamFlags@CShader@SDK_VolumeClouds@@UBEHH@Z 10008180 f i dx8fallbacks.obj
 0001:000071c0       ??0CShader@SDK_VolumeClouds@@QAE@XZ 100081c0 f i dx8fallbacks.obj
 0001:00007220       ?GetFallbackShader@CShader@SDK_EyeGlint@@UBEPBDPAPAVIMaterialVar@@@Z 10008220 f i dx8fallbacks.obj
 0001:00007230       ?GetName@CShader@SDK_EyeGlint@@UBEPBDXZ 10008230 f i dx8fallbacks.obj
 0001:00007240       ?GetFlags@CShader@SDK_EyeGlint@@UBEHXZ 10008240 f i dx8fallbacks.obj
 0001:00007250       ?GetNumParams@CShader@SDK_EyeGlint@@UBEHXZ 10008250 f i dx8fallbacks.obj
 0001:00007260       ?GetParamName@CShader@SDK_EyeGlint@@UBEPBDH@Z 10008260 f i dx8fallbacks.obj
 0001:00007290       ?GetParamHelp@CShader@SDK_EyeGlint@@UBEPBDH@Z 10008290 f i dx8fallbacks.obj
 0001:000072d0       ?GetParamType@CShader@SDK_EyeGlint@@UBE?AW4ShaderParamType_t@@H@Z 100082d0 f i dx8fallbacks.obj
 0001:00007300       ?GetParamDefault@CShader@SDK_EyeGlint@@UBEPBDH@Z 10008300 f i dx8fallbacks.obj
 0001:00007340       ?GetParamFlags@CShader@SDK_EyeGlint@@UBEHH@Z 10008340 f i dx8fallbacks.obj
 0001:00007380       ?GetFallbackShader@CShader@SDK_AfterShock@@UBEPBDPAPAVIMaterialVar@@@Z 10008380 f i dx8fallbacks.obj
 0001:00007390       ?GetName@CShader@SDK_AfterShock@@UBEPBDXZ 10008390 f i dx8fallbacks.obj
 0001:000073a0       ?GetFlags@CShader@SDK_AfterShock@@UBEHXZ 100083a0 f i dx8fallbacks.obj
 0001:000073b0       ?GetNumParams@CShader@SDK_AfterShock@@UBEHXZ 100083b0 f i dx8fallbacks.obj
 0001:000073c0       ?GetParamName@CShader@SDK_AfterShock@@UBEPBDH@Z 100083c0 f i dx8fallbacks.obj
 0001:000073f0       ?GetParamHelp@CShader@SDK_AfterShock@@UBEPBDH@Z 100083f0 f i dx8fallbacks.obj
 0001:00007430       ?GetParamType@CShader@SDK_AfterShock@@UBE?AW4ShaderParamType_t@@H@Z 10008430 f i dx8fallbacks.obj
 0001:00007460       ?GetParamDefault@CShader@SDK_AfterShock@@UBEPBDH@Z 10008460 f i dx8fallbacks.obj
 0001:000074a0       ?GetParamFlags@CShader@SDK_AfterShock@@UBEHH@Z 100084a0 f i dx8fallbacks.obj
 0001:000074e0       ?OnDrawElements@CShader@SDK_VortWarp@@UAEXPAPAVIMaterialVar@@PAVIShaderShadow@@PAVIShaderDynamicAPI@@W4VertexCompressionType_t@@PAPAVCBasePerMaterialContextData@@@Z 100084e0 f i vortwarp_dx9.obj
 0001:000074e0       ?OnDrawElements@CShader@SDK_LightmappedReflective@@UAEXPAPAVIMaterialVar@@PAVIShaderShadow@@PAVIShaderDynamicAPI@@W4VertexCompressionType_t@@PAPAVCBasePerMaterialContextData@@@Z 100084e0 f i lightmappedreflective.obj
 0001:000074e0       ?OnDrawElements@CShader@SDK_screenspace_general@@UAEXPAPAVIMaterialVar@@PAVIShaderShadow@@PAVIShaderDynamicAPI@@W4VertexCompressionType_t@@PAPAVCBasePerMaterialContextData@@@Z 100084e0 f i screenspace_general.obj
 0001:000074e0       ?OnDrawElements@CShader@SDK_EyeGlint@@UAEXPAPAVIMaterialVar@@PAVIShaderShadow@@PAVIShaderDynamicAPI@@W4VertexCompressionType_t@@PAPAVCBasePerMaterialContextData@@@Z 100084e0 f i dx8fallbacks.obj
 0001:000074e0       ?OnDrawElements@CShader@SDK_AfterShock@@UAEXPAPAVIMaterialVar@@PAVIShaderShadow@@PAVIShaderDynamicAPI@@W4VertexCompressionType_t@@PAPAVCBasePerMaterialContextData@@@Z 100084e0 f i dx8fallbacks.obj
 0001:000074e0       ?OnDrawElements@CShader@SDK_WorldVertexTransition@@UAEXPAPAVIMaterialVar@@PAVIShaderShadow@@PAVIShaderDynamicAPI@@W4VertexCompressionType_t@@PAPAVCBasePerMaterialContextData@@@Z 100084e0 f i worldvertextransition.obj
 0001:000074e0       ?OnDrawElements@CShader@SDK_Core@@UAEXPAPAVIMaterialVar@@PAVIShaderShadow@@PAVIShaderDynamicAPI@@W4VertexCompressionType_t@@PAPAVCBasePerMaterialContextData@@@Z 100084e0 f i core_dx9.obj
 0001:000074e0       ?OnDrawElements@CShader@SDK_Teeth@@UAEXPAPAVIMaterialVar@@PAVIShaderShadow@@PAVIShaderDynamicAPI@@W4VertexCompressionType_t@@PAPAVCBasePerMaterialContextData@@@Z 100084e0 f i teeth.obj
 0001:000074e0       ?OnDrawElements@CShader@SDK_eyes@@UAEXPAPAVIMaterialVar@@PAVIShaderShadow@@PAVIShaderDynamicAPI@@W4VertexCompressionType_t@@PAPAVCBasePerMaterialContextData@@@Z 100084e0 f i eyes.obj
 0001:000074e0       ?OnDrawElements@CShader@SDK_EyeRefract@@UAEXPAPAVIMaterialVar@@PAVIShaderShadow@@PAVIShaderDynamicAPI@@W4VertexCompressionType_t@@PAPAVCBasePerMaterialContextData@@@Z 100084e0 f i dx8fallbacks.obj
 0001:000074e0       ?OnDrawElements@CShader@SDK_Water@@UAEXPAPAVIMaterialVar@@PAVIShaderShadow@@PAVIShaderDynamicAPI@@W4VertexCompressionType_t@@PAPAVCBasePerMaterialContextData@@@Z 100084e0 f i water.obj
 0001:000074e0       ?OnDrawElements@CShader@SDK_UnlitTwoTexture@@UAEXPAPAVIMaterialVar@@PAVIShaderShadow@@PAVIShaderDynamicAPI@@W4VertexCompressionType_t@@PAPAVCBasePerMaterialContextData@@@Z 100084e0 f i unlittwotexture_dx9.obj
 0001:000074e0       ?OnDrawElements@CShader@SDK_VolumeClouds@@UAEXPAPAVIMaterialVar@@PAVIShaderShadow@@PAVIShaderDynamicAPI@@W4VertexCompressionType_t@@PAPAVCBasePerMaterialContextData@@@Z 100084e0 f i dx8fallbacks.obj
 0001:000074e0       ?OnDrawElements@CShader@SDK_Eyeball@@UAEXPAPAVIMaterialVar@@PAVIShaderShadow@@PAVIShaderDynamicAPI@@W4VertexCompressionType_t@@PAPAVCBasePerMaterialContextData@@@Z 100084e0 f i eyeball.obj
 0001:000074e0       ?OnDrawElements@CShader@LightmappedAdv@@UAEXPAPAVIMaterialVar@@PAVIShaderShadow@@PAVIShaderDynamicAPI@@W4VertexCompressionType_t@@PAPAVCBasePerMaterialContextData@@@Z 100084e0 f i lightmappedadv.obj
 0001:000074e0       ?OnDrawElements@CShader@SDK_Cable@@UAEXPAPAVIMaterialVar@@PAVIShaderShadow@@PAVIShaderDynamicAPI@@W4VertexCompressionType_t@@PAPAVCBasePerMaterialContextData@@@Z 100084e0 f i cable_dx9.obj
 0001:000074e0       ?OnDrawElements@CShader@SDK_DepthWrite@@UAEXPAPAVIMaterialVar@@PAVIShaderShadow@@PAVIShaderDynamicAPI@@W4VertexCompressionType_t@@PAPAVCBasePerMaterialContextData@@@Z 100084e0 f i dx8fallbacks.obj
 0001:000074e0       ?OnDrawElements@CShader@SDK_Aftershock@@UAEXPAPAVIMaterialVar@@PAVIShaderShadow@@PAVIShaderDynamicAPI@@W4VertexCompressionType_t@@PAPAVCBasePerMaterialContextData@@@Z 100084e0 f i aftershock.obj
 0001:000074e0       ?OnDrawElements@CShader@SDK_Refract@@UAEXPAPAVIMaterialVar@@PAVIShaderShadow@@PAVIShaderDynamicAPI@@W4VertexCompressionType_t@@PAPAVCBasePerMaterialContextData@@@Z 100084e0 f i refract.obj
 0001:000074f0       ??0CShader@SDK_AfterShock@@QAE@XZ 100084f0 f i dx8fallbacks.obj
 0001:00007550       ??1?$CUtlVector@PAVCShaderParam@SDK_DepthWrite@@V?$CUtlMemory@PAVCShaderParam@SDK_DepthWrite@@H@@@@QAE@XZ 10008550 f i dx8fallbacks.obj
 0001:000075c0       ??1?$CUtlVector@PAVCShaderParam@SDK_eyes@@V?$CUtlMemory@PAVCShaderParam@SDK_eyes@@H@@@@QAE@XZ 100085c0 f i eyes.obj
 0001:000075c0       ??1?$CUtlVector@PAVCShaderParam@SDK_EyeRefract@@V?$CUtlMemory@PAVCShaderParam@SDK_EyeRefract@@H@@@@QAE@XZ 100085c0 f i dx8fallbacks.obj
 0001:000075c0       ??1?$CUtlVector@PAVCShaderParam@SDK_EyeGlint@@V?$CUtlMemory@PAVCShaderParam@SDK_EyeGlint@@H@@@@QAE@XZ 100085c0 f i dx8fallbacks.obj
 0001:00007620       ??1?$CUtlVector@PAVCShaderParam@SDK_VolumeClouds@@V?$CUtlMemory@PAVCShaderParam@SDK_VolumeClouds@@H@@@@QAE@XZ 10008620 f i dx8fallbacks.obj
 0001:00007690       ??1?$CUtlVector@PAVCShaderParam@SDK_AfterShock@@V?$CUtlMemory@PAVCShaderParam@SDK_AfterShock@@H@@@@QAE@XZ 10008690 f i dx8fallbacks.obj
 0001:00007700       ?InitParamsEmissiveScrollBlendedPass@@YAXPAVCBaseVSShader@@PAPAVIMaterialVar@@PBDAAUEmissiveScrollBlendedPassVars_t@@@Z 10008700 f   emissive_scroll_blended_pass_helper.obj
 0001:000077c0       ?InitEmissiveScrollBlendedPass@@YAXPAVCBaseVSShader@@PAPAVIMaterialVar@@AAUEmissiveScrollBlendedPassVars_t@@@Z 100087c0 f   emissive_scroll_blended_pass_helper.obj
 0001:00007870       ?DrawEmissiveScrollBlendedPass@@YAXPAVCBaseVSShader@@PAPAVIMaterialVar@@PAVIShaderDynamicAPI@@PAVIShaderShadow@@AAUEmissiveScrollBlendedPassVars_t@@W4VertexCompressionType_t@@@Z 10008870 f   emissive_scroll_blended_pass_helper.obj
 0001:00007cd0       ?SetupVarsEyeRefract@CShader@SDK_EyeRefract_dx9@@QAEXAAUEye_Refract_Vars_t@@@Z 10008cd0 f i eye_refract.obj
 0001:00007d90       ?NeedsPowerOfTwoFrameBufferTexture@CShader@SDK_EyeRefract_dx9@@UBE_NPAPAVIMaterialVar@@_N@Z 10008d90 f i eye_refract.obj
 0001:00007df0       ?IsTranslucent@CShader@SDK_EyeRefract_dx9@@UBE_NPAPAVIMaterialVar@@@Z 10008df0 f i eye_refract.obj
 0001:00007e40       ?OnInitShaderParams@CShader@SDK_EyeRefract_dx9@@UAEXPAPAVIMaterialVar@@PBD@Z 10008e40 f i eye_refract.obj
 0001:00007fa0       ?GetFallbackShader@CShader@SDK_EyeRefract_dx9@@UBEPBDPAPAVIMaterialVar@@@Z 10008fa0 f i eye_refract.obj
 0001:00007fa0       ?GetFallbackShader@CShader@SDK_Eyes_dx9@@UBEPBDPAPAVIMaterialVar@@@Z 10008fa0 f i eyes_dx9.obj
 0001:00007fc0       ?GetName@CShader@SDK_EyeRefract_dx9@@UBEPBDXZ 10008fc0 f i eye_refract.obj
 0001:00007fd0       ?GetFlags@CShader@SDK_EyeRefract_dx9@@UBEHXZ 10008fd0 f i eye_refract.obj
 0001:00007fe0       ?GetNumParams@CShader@SDK_EyeRefract_dx9@@UBEHXZ 10008fe0 f i eye_refract.obj
 0001:00007ff0       ?GetParamName@CShader@SDK_EyeRefract_dx9@@UBEPBDH@Z 10008ff0 f i eye_refract.obj
 0001:00008020       ?GetParamHelp@CShader@SDK_EyeRefract_dx9@@UBEPBDH@Z 10009020 f i eye_refract.obj
 0001:00008060       ?GetParamType@CShader@SDK_EyeRefract_dx9@@UBE?AW4ShaderParamType_t@@H@Z 10009060 f i eye_refract.obj
 0001:00008090       ?GetParamDefault@CShader@SDK_EyeRefract_dx9@@UBEPBDH@Z 10009090 f i eye_refract.obj
 0001:000080d0       ?GetParamFlags@CShader@SDK_EyeRefract_dx9@@UBEHH@Z 100090d0 f i eye_refract.obj
 0001:00008110       ?OnInitShaderInstance@CShader@SDK_EyeRefract_dx9@@UAEXPAPAVIMaterialVar@@PAVIShaderInit@@PBD@Z 10009110 f i eye_refract.obj
 0001:00008220       ?OnDrawElements@CShader@SDK_EyeRefract_dx9@@UAEXPAPAVIMaterialVar@@PAVIShaderShadow@@PAVIShaderDynamicAPI@@W4VertexCompressionType_t@@PAPAVCBasePerMaterialContextData@@@Z 10009220 f i eye_refract.obj
 0001:00008410       ??1?$CUtlVector@PAVCShaderParam@SDK_EyeRefract_dx9@@V?$CUtlMemory@PAVCShaderParam@SDK_EyeRefract_dx9@@H@@@@QAE@XZ 10009410 f i eye_refract.obj
 0001:00008480       ?InsertBefore@?$CUtlVector@PAVCShaderParam@SDK_EyeRefract_dx9@@V?$CUtlMemory@PAVCShaderParam@SDK_EyeRefract_dx9@@H@@@@QAEHHABQAVCShaderParam@SDK_EyeRefract_dx9@@@Z 10009480 f i eye_refract.obj
 0001:000084f0       ?Grow@?$CUtlMemory@PAVCShaderParam@SDK_EyeRefract_dx9@@H@@QAEXH@Z 100094f0 f i eye_refract.obj
 0001:00008590       ?InitParams_Eyes_Refract@@YAXPAVCBaseVSShader@@PAPAVIMaterialVar@@PBDAAUEye_Refract_Vars_t@@@Z 10009590 f   eye_refract_helper.obj
 0001:00008760       ?Init_Eyes_Refract@@YAXPAVCBaseVSShader@@PAPAVIMaterialVar@@AAUEye_Refract_Vars_t@@@Z 10009760 f   eye_refract_helper.obj
 0001:000088d0       ?Draw_Eyes_Refract_Internal@@YAXPAVCBaseVSShader@@PAPAVIMaterialVar@@PAVIShaderDynamicAPI@@PAVIShaderShadow@@_NAAUEye_Refract_Vars_t@@W4VertexCompressionType_t@@@Z 100098d0 f   eye_refract_helper.obj
 0001:00009a90       ??4FlashlightState_t@@QAEAAU0@ABU0@@Z 1000aa90 f i eye_refract_helper.obj
 0001:00009b70       ?Draw_Eyes_Refract@@YAXPAVCBaseVSShader@@PAPAVIMaterialVar@@PAVIShaderDynamicAPI@@PAVIShaderShadow@@AAUEye_Refract_Vars_t@@W4VertexCompressionType_t@@@Z 1000ab70 f   eye_refract_helper.obj
 0001:00009bf0       ?GetFallbackShader@CShader@SDK_Eyeball@@UBEPBDPAPAVIMaterialVar@@@Z 1000abf0 f i eyeball.obj
 0001:00009bf0       ?GetFallbackShader@CShader@SDK_DepthWrite@@UBEPBDPAPAVIMaterialVar@@@Z 1000abf0 f i dx8fallbacks.obj
 0001:00009c00       ?GetName@CShader@SDK_Eyeball@@UBEPBDXZ 1000ac00 f i eyeball.obj
 0001:00009c10       ?GetFlags@CShader@SDK_Eyeball@@UBEHXZ 1000ac10 f i eyeball.obj
 0001:00009c20       ?GetNumParams@CShader@SDK_Eyeball@@UBEHXZ 1000ac20 f i eyeball.obj
 0001:00009c30       ?GetParamName@CShader@SDK_Eyeball@@UBEPBDH@Z 1000ac30 f i eyeball.obj
 0001:00009c60       ?GetParamHelp@CShader@SDK_Eyeball@@UBEPBDH@Z 1000ac60 f i eyeball.obj
 0001:00009ca0       ?GetParamType@CShader@SDK_Eyeball@@UBE?AW4ShaderParamType_t@@H@Z 1000aca0 f i eyeball.obj
 0001:00009cd0       ?GetParamDefault@CShader@SDK_Eyeball@@UBEPBDH@Z 1000acd0 f i eyeball.obj
 0001:00009d10       ?GetParamFlags@CShader@SDK_Eyeball@@UBEHH@Z 1000ad10 f i eyeball.obj
 0001:00009d50       ??1?$CUtlVector@PAVCShaderParam@SDK_Eyeball@@V?$CUtlMemory@PAVCShaderParam@SDK_Eyeball@@H@@@@QAE@XZ 1000ad50 f i eyeball.obj
 0001:00009dc0       ?GetName@CShader@SDK_EyeGlint_dx9@@UBEPBDXZ 1000adc0 f i eyeglint_dx9.obj
 0001:00009dd0       ?GetFlags@CShader@SDK_EyeGlint_dx9@@UBEHXZ 1000add0 f i eyeglint_dx9.obj
 0001:00009de0       ?GetNumParams@CShader@SDK_EyeGlint_dx9@@UBEHXZ 1000ade0 f i eyeglint_dx9.obj
 0001:00009df0       ?GetParamName@CShader@SDK_EyeGlint_dx9@@UBEPBDH@Z 1000adf0 f i eyeglint_dx9.obj
 0001:00009e20       ?GetParamHelp@CShader@SDK_EyeGlint_dx9@@UBEPBDH@Z 1000ae20 f i eyeglint_dx9.obj
 0001:00009e60       ?GetParamType@CShader@SDK_EyeGlint_dx9@@UBE?AW4ShaderParamType_t@@H@Z 1000ae60 f i eyeglint_dx9.obj
 0001:00009e90       ?GetParamDefault@CShader@SDK_EyeGlint_dx9@@UBEPBDH@Z 1000ae90 f i eyeglint_dx9.obj
 0001:00009ed0       ?GetParamFlags@CShader@SDK_EyeGlint_dx9@@UBEHH@Z 1000aed0 f i eyeglint_dx9.obj
 0001:00009f10       ?OnDrawElements@CShader@SDK_EyeGlint_dx9@@UAEXPAPAVIMaterialVar@@PAVIShaderShadow@@PAVIShaderDynamicAPI@@W4VertexCompressionType_t@@PAPAVCBasePerMaterialContextData@@@Z 1000af10 f i eyeglint_dx9.obj
 0001:0000a060       ??1?$CUtlVector@PAVCShaderParam@SDK_EyeGlint_dx9@@V?$CUtlMemory@PAVCShaderParam@SDK_EyeGlint_dx9@@H@@@@QAE@XZ 1000b060 f i eyeglint_dx9.obj
 0001:0000a0d0       ?GetFallbackShader@CShader@SDK_eyes@@UBEPBDPAPAVIMaterialVar@@@Z 1000b0d0 f i eyes.obj
 0001:0000a0e0       ?GetName@CShader@SDK_eyes@@UBEPBDXZ 1000b0e0 f i eyes.obj
 0001:0000a0f0       ?GetFlags@CShader@SDK_eyes@@UBEHXZ 1000b0f0 f i eyes.obj
 0001:0000a100       ?GetNumParams@CShader@SDK_eyes@@UBEHXZ 1000b100 f i eyes.obj
 0001:0000a110       ?GetParamName@CShader@SDK_eyes@@UBEPBDH@Z 1000b110 f i eyes.obj
 0001:0000a140       ?GetParamHelp@CShader@SDK_eyes@@UBEPBDH@Z 1000b140 f i eyes.obj
 0001:0000a180       ?GetParamType@CShader@SDK_eyes@@UBE?AW4ShaderParamType_t@@H@Z 1000b180 f i eyes.obj
 0001:0000a1b0       ?GetParamDefault@CShader@SDK_eyes@@UBEPBDH@Z 1000b1b0 f i eyes.obj
 0001:0000a1f0       ?GetParamFlags@CShader@SDK_eyes@@UBEHH@Z 1000b1f0 f i eyes.obj
 0001:0000a230       ?SetupVars@CShader@SDK_Eyes_dx8@@QAEXAAUEyes_DX8_DX9_Vars_t@@@Z 1000b230 f i eyes.obj
 0001:0000a2c0       ?NeedsPowerOfTwoFrameBufferTexture@CShader@SDK_Eyes_dx8@@UBE_NPAPAVIMaterialVar@@_N@Z 1000b2c0 f i eyes.obj
 0001:0000a320       ?IsTranslucent@CShader@SDK_Eyes_dx8@@UBE_NPAPAVIMaterialVar@@@Z 1000b320 f i eyes.obj
 0001:0000a370       ?OnInitShaderParams@CShader@SDK_Eyes_dx8@@UAEXPAPAVIMaterialVar@@PBD@Z 1000b370 f i eyes.obj
 0001:0000a430       ?GetFallbackShader@CShader@SDK_Eyes_dx8@@UBEPBDPAPAVIMaterialVar@@@Z 1000b430 f i eyes.obj
 0001:0000a450       ?GetName@CShader@SDK_Eyes_dx8@@UBEPBDXZ 1000b450 f i eyes.obj
 0001:0000a460       ?GetFlags@CShader@SDK_Eyes_dx8@@UBEHXZ 1000b460 f i eyes.obj
 0001:0000a470       ?GetNumParams@CShader@SDK_Eyes_dx8@@UBEHXZ 1000b470 f i eyes.obj
 0001:0000a480       ?GetParamName@CShader@SDK_Eyes_dx8@@UBEPBDH@Z 1000b480 f i eyes.obj
 0001:0000a4b0       ?GetParamHelp@CShader@SDK_Eyes_dx8@@UBEPBDH@Z 1000b4b0 f i eyes.obj
 0001:0000a4f0       ?GetParamType@CShader@SDK_Eyes_dx8@@UBE?AW4ShaderParamType_t@@H@Z 1000b4f0 f i eyes.obj
 0001:0000a520       ?GetParamDefault@CShader@SDK_Eyes_dx8@@UBEPBDH@Z 1000b520 f i eyes.obj
 0001:0000a560       ?GetParamFlags@CShader@SDK_Eyes_dx8@@UBEHH@Z 1000b560 f i eyes.obj
 0001:0000a5a0       ?OnInitShaderInstance@CShader@SDK_Eyes_dx8@@UAEXPAPAVIMaterialVar@@PAVIShaderInit@@PBD@Z 1000b5a0 f i eyes.obj
 0001:0000a630       ?OnDrawElements@CShader@SDK_Eyes_dx8@@UAEXPAPAVIMaterialVar@@PAVIShaderShadow@@PAVIShaderDynamicAPI@@W4VertexCompressionType_t@@PAPAVCBasePerMaterialContextData@@@Z 1000b630 f i eyes.obj
 0001:0000a770       ??1?$CUtlVector@PAVCShaderParam@SDK_Eyes_dx8@@V?$CUtlMemory@PAVCShaderParam@SDK_Eyes_dx8@@H@@@@QAE@XZ 1000b770 f i eyes.obj
 0001:0000a7e0       ?InsertBefore@?$CUtlVector@PAVCShaderParam@SDK_Eyes_dx8@@V?$CUtlMemory@PAVCShaderParam@SDK_Eyes_dx8@@H@@@@QAEHHABQAVCShaderParam@SDK_Eyes_dx8@@@Z 1000b7e0 f i eyes.obj
 0001:0000a850       ?Grow@?$CUtlMemory@PAVCShaderParam@SDK_Eyes_dx8@@H@@QAEXH@Z 1000b850 f i eyes.obj
 0001:0000a8f0       ?InitParamsEyes_DX8_DX9@@YAXPAVCBaseVSShader@@PAPAVIMaterialVar@@PBDAAUEyes_DX8_DX9_Vars_t@@@Z 1000b8f0 f   eyes_dx8_dx9_helper.obj
 0001:0000a970       ?InitEyes_DX8_DX9@@YAXPAVCBaseVSShader@@PAPAVIMaterialVar@@AAUEyes_DX8_DX9_Vars_t@@@Z 1000b970 f   eyes_dx8_dx9_helper.obj
 0001:0000bdc0       ?DrawEyes_DX8_DX9@@YAX_NPAVCBaseVSShader@@PAPAVIMaterialVar@@PAVIShaderDynamicAPI@@PAVIShaderShadow@@AAUEyes_DX8_DX9_Vars_t@@W4VertexCompressionType_t@@@Z 1000cdc0 f   eyes_dx8_dx9_helper.obj
 0001:0000be80       ?SetupVars@CShader@SDK_Eyes_dx9@@QAEXAAUEyes_DX8_DX9_Vars_t@@@Z 1000ce80 f i eyes_dx9.obj
 0001:0000bf10       ?OnInitShaderParams@CShader@SDK_Eyes_dx9@@UAEXPAPAVIMaterialVar@@PBD@Z 1000cf10 f i eyes_dx9.obj
 0001:0000bf50       ?GetName@CShader@SDK_Eyes_dx9@@UBEPBDXZ 1000cf50 f i eyes_dx9.obj
 0001:0000bf60       ?GetFlags@CShader@SDK_Eyes_dx9@@UBEHXZ 1000cf60 f i eyes_dx9.obj
 0001:0000bf70       ?GetNumParams@CShader@SDK_Eyes_dx9@@UBEHXZ 1000cf70 f i eyes_dx9.obj
 0001:0000bf80       ?GetParamName@CShader@SDK_Eyes_dx9@@UBEPBDH@Z 1000cf80 f i eyes_dx9.obj
 0001:0000bfb0       ?GetParamHelp@CShader@SDK_Eyes_dx9@@UBEPBDH@Z 1000cfb0 f i eyes_dx9.obj
 0001:0000bff0       ?GetParamType@CShader@SDK_Eyes_dx9@@UBE?AW4ShaderParamType_t@@H@Z 1000cff0 f i eyes_dx9.obj
 0001:0000c020       ?GetParamDefault@CShader@SDK_Eyes_dx9@@UBEPBDH@Z 1000d020 f i eyes_dx9.obj
 0001:0000c060       ?GetParamFlags@CShader@SDK_Eyes_dx9@@UBEHH@Z 1000d060 f i eyes_dx9.obj
 0001:0000c0a0       ?OnInitShaderInstance@CShader@SDK_Eyes_dx9@@UAEXPAPAVIMaterialVar@@PAVIShaderInit@@PBD@Z 1000d0a0 f i eyes_dx9.obj
 0001:0000c0e0       ?OnDrawElements@CShader@SDK_Eyes_dx9@@UAEXPAPAVIMaterialVar@@PAVIShaderShadow@@PAVIShaderDynamicAPI@@W4VertexCompressionType_t@@PAPAVCBasePerMaterialContextData@@@Z 1000d0e0 f i eyes_dx9.obj
 0001:0000c130       ??1?$CUtlVector@PAVCShaderParam@SDK_Eyes_dx9@@V?$CUtlMemory@PAVCShaderParam@SDK_Eyes_dx9@@H@@@@QAE@XZ 1000d130 f i eyes_dx9.obj
 0001:0000c1a0       ?InsertBefore@?$CUtlVector@PAVCShaderParam@SDK_Eyes_dx9@@V?$CUtlMemory@PAVCShaderParam@SDK_Eyes_dx9@@H@@@@QAEHHABQAVCShaderParam@SDK_Eyes_dx9@@@Z 1000d1a0 f i eyes_dx9.obj
 0001:0000c210       ?Grow@?$CUtlMemory@PAVCShaderParam@SDK_Eyes_dx9@@H@@QAEXH@Z 1000d210 f i eyes_dx9.obj
 0001:0000c2b0       ?InitParamsFleshInteriorBlendedPass@@YAXPAVCBaseVSShader@@PAPAVIMaterialVar@@PBDAAUFleshInteriorBlendedPassVars_t@@@Z 1000d2b0 f   flesh_interior_blended_pass_helper.obj
 0001:0000c550       ?InitFleshInteriorBlendedPass@@YAXPAVCBaseVSShader@@PAPAVIMaterialVar@@AAUFleshInteriorBlendedPassVars_t@@@Z 1000d550 f   flesh_interior_blended_pass_helper.obj
 0001:0000c6b0       ?DrawFleshInteriorBlendedPass@@YAXPAVCBaseVSShader@@PAPAVIMaterialVar@@PAVIShaderDynamicAPI@@PAVIShaderShadow@@AAUFleshInteriorBlendedPassVars_t@@W4VertexCompressionType_t@@@Z 1000d6b0 f   flesh_interior_blended_pass_helper.obj
 0001:0000d040       ?OnInitShaderParams@CShader@FXAA@@UAEXPAPAVIMaterialVar@@PBD@Z 1000e040 f i fxaa.obj
 0001:0000d080       ?GetName@CShader@FXAA@@UBEPBDXZ 1000e080 f i fxaa.obj
 0001:0000d090       ?GetNumParams@CShader@FXAA@@UBEHXZ 1000e090 f i fxaa.obj
 0001:0000d0a0       ?GetParamName@CShader@FXAA@@UBEPBDH@Z 1000e0a0 f i fxaa.obj
 0001:0000d0d0       ?GetParamHelp@CShader@FXAA@@UBEPBDH@Z 1000e0d0 f i fxaa.obj
 0001:0000d110       ?GetParamType@CShader@FXAA@@UBE?AW4ShaderParamType_t@@H@Z 1000e110 f i fxaa.obj
 0001:0000d140       ?GetParamDefault@CShader@FXAA@@UBEPBDH@Z 1000e140 f i fxaa.obj
 0001:0000d180       ?GetParamFlags@CShader@FXAA@@UBEHH@Z 1000e180 f i fxaa.obj
 0001:0000d1c0       ?OnInitShaderInstance@CShader@FXAA@@UAEXPAPAVIMaterialVar@@PAVIShaderInit@@PBD@Z 1000e1c0 f i fxaa.obj
 0001:0000d220       ?OnDrawElements@CShader@FXAA@@UAEXPAPAVIMaterialVar@@PAVIShaderShadow@@PAVIShaderDynamicAPI@@W4VertexCompressionType_t@@PAPAVCBasePerMaterialContextData@@@Z 1000e220 f i fxaa.obj
 0001:0000d3c0       ??1?$CUtlVector@PAVCShaderParam@FXAA@@V?$CUtlMemory@PAVCShaderParam@FXAA@@H@@@@QAE@XZ 1000e3c0 f i fxaa.obj
 0001:0000d430       ?InsertBefore@?$CUtlVector@PAVCShaderParam@FXAA@@V?$CUtlMemory@PAVCShaderParam@FXAA@@H@@@@QAEHHABQAVCShaderParam@FXAA@@@Z 1000e430 f i fxaa.obj
 0001:0000d4a0       ?Grow@?$CUtlMemory@PAVCShaderParam@FXAA@@H@@QAEXH@Z 1000e4a0 f i fxaa.obj
 0001:0000d540       ?GetName@CShader@GaussianX@@UBEPBDXZ 1000e540 f i gaussianx.obj
 0001:0000d550       ?GetFlags@CShader@GaussianX@@UBEHXZ 1000e550 f i gaussianx.obj
 0001:0000d560       ?GetNumParams@CShader@GaussianX@@UBEHXZ 1000e560 f i gaussianx.obj
 0001:0000d570       ?GetParamName@CShader@GaussianX@@UBEPBDH@Z 1000e570 f i gaussianx.obj
 0001:0000d5a0       ?GetParamHelp@CShader@GaussianX@@UBEPBDH@Z 1000e5a0 f i gaussianx.obj
 0001:0000d5e0       ?GetParamType@CShader@GaussianX@@UBE?AW4ShaderParamType_t@@H@Z 1000e5e0 f i gaussianx.obj
 0001:0000d610       ?GetParamDefault@CShader@GaussianX@@UBEPBDH@Z 1000e610 f i gaussianx.obj
 0001:0000d650       ?GetParamFlags@CShader@GaussianX@@UBEHH@Z 1000e650 f i gaussianx.obj
 0001:0000d690       ?OnInitShaderInstance@CShader@GaussianX@@UAEXPAPAVIMaterialVar@@PAVIShaderInit@@PBD@Z 1000e690 f i gaussianx.obj
 0001:0000d6f0       ?OnDrawElements@CShader@GaussianX@@UAEXPAPAVIMaterialVar@@PAVIShaderShadow@@PAVIShaderDynamicAPI@@W4VertexCompressionType_t@@PAPAVCBasePerMaterialContextData@@@Z 1000e6f0 f i gaussianx.obj
 0001:0000d8c0       ??1?$CUtlVector@PAVCShaderParam@GaussianX@@V?$CUtlMemory@PAVCShaderParam@GaussianX@@H@@@@QAE@XZ 1000e8c0 f i gaussianx.obj
 0001:0000d930       ?InsertBefore@?$CUtlVector@PAVCShaderParam@GaussianX@@V?$CUtlMemory@PAVCShaderParam@GaussianX@@H@@@@QAEHHABQAVCShaderParam@GaussianX@@@Z 1000e930 f i gaussianx.obj
 0001:0000d9a0       ?Grow@?$CUtlMemory@PAVCShaderParam@GaussianX@@H@@QAEXH@Z 1000e9a0 f i gaussianx.obj
 0001:0000da40       ?GetName@CShader@GaussianY@@UBEPBDXZ 1000ea40 f i gaussiany.obj
 0001:0000da50       ?GetFlags@CShader@GaussianY@@UBEHXZ 1000ea50 f i gaussiany.obj
 0001:0000da60       ?GetNumParams@CShader@GaussianY@@UBEHXZ 1000ea60 f i gaussiany.obj
 0001:0000da70       ?GetParamName@CShader@GaussianY@@UBEPBDH@Z 1000ea70 f i gaussiany.obj
 0001:0000daa0       ?GetParamHelp@CShader@GaussianY@@UBEPBDH@Z 1000eaa0 f i gaussiany.obj
 0001:0000dae0       ?GetParamType@CShader@GaussianY@@UBE?AW4ShaderParamType_t@@H@Z 1000eae0 f i gaussiany.obj
 0001:0000db10       ?GetParamDefault@CShader@GaussianY@@UBEPBDH@Z 1000eb10 f i gaussiany.obj
 0001:0000db50       ?GetParamFlags@CShader@GaussianY@@UBEHH@Z 1000eb50 f i gaussiany.obj
 0001:0000db90       ?OnInitShaderInstance@CShader@GaussianY@@UAEXPAPAVIMaterialVar@@PAVIShaderInit@@PBD@Z 1000eb90 f i gaussiany.obj
 0001:0000dbf0       ?OnDrawElements@CShader@GaussianY@@UAEXPAPAVIMaterialVar@@PAVIShaderShadow@@PAVIShaderDynamicAPI@@W4VertexCompressionType_t@@PAPAVCBasePerMaterialContextData@@@Z 1000ebf0 f i gaussiany.obj
 0001:0000ddc0       ??1?$CUtlVector@PAVCShaderParam@GaussianY@@V?$CUtlMemory@PAVCShaderParam@GaussianY@@H@@@@QAE@XZ 1000edc0 f i gaussiany.obj
 0001:0000de30       ?InsertBefore@?$CUtlVector@PAVCShaderParam@GaussianY@@V?$CUtlMemory@PAVCShaderParam@GaussianY@@H@@@@QAEHHABQAVCShaderParam@GaussianY@@@Z 1000ee30 f i gaussiany.obj
 0001:0000dea0       ?Grow@?$CUtlMemory@PAVCShaderParam@GaussianY@@H@@QAEXH@Z 1000eea0 f i gaussiany.obj
 0001:0000df40       ?GetFallbackShader@CShader@LightmappedAdv@@UBEPBDPAPAVIMaterialVar@@@Z 1000ef40 f i lightmappedadv.obj
 0001:0000df50       ?GetName@CShader@LightmappedAdv@@UBEPBDXZ 1000ef50 f i lightmappedadv.obj
 0001:0000df60       ?GetFlags@CShader@LightmappedAdv@@UBEHXZ 1000ef60 f i lightmappedadv.obj
 0001:0000df70       ?GetNumParams@CShader@LightmappedAdv@@UBEHXZ 1000ef70 f i lightmappedadv.obj
 0001:0000df80       ?GetParamName@CShader@LightmappedAdv@@UBEPBDH@Z 1000ef80 f i lightmappedadv.obj
 0001:0000dfb0       ?GetParamHelp@CShader@LightmappedAdv@@UBEPBDH@Z 1000efb0 f i lightmappedadv.obj
 0001:0000dff0       ?GetParamType@CShader@LightmappedAdv@@UBE?AW4ShaderParamType_t@@H@Z 1000eff0 f i lightmappedadv.obj
 0001:0000e020       ?GetParamDefault@CShader@LightmappedAdv@@UBEPBDH@Z 1000f020 f i lightmappedadv.obj
 0001:0000e060       ?GetParamFlags@CShader@LightmappedAdv@@UBEHH@Z 1000f060 f i lightmappedadv.obj
 0001:0000e0a0       ??0CShader@LightmappedAdv@@QAE@XZ 1000f0a0 f i lightmappedadv.obj
 0001:0000e100       ?SetupVars@CShader@LightmappedAdv_DX9@@QAEXAAULightmappedAdv_DX9_Vars_t@@@Z 1000f100 f i lightmappedadv.obj
 0001:0000e340       ?GetFallbackShader@CShader@LightmappedAdv_DX9@@UBEPBDPAPAVIMaterialVar@@@Z 1000f340 f i lightmappedadv.obj
 0001:0000e3a0       ?OnInitShaderParams@CShader@LightmappedAdv_DX9@@UAEXPAPAVIMaterialVar@@PBD@Z 1000f3a0 f i lightmappedadv.obj
 0001:0000e450       ?GetName@CShader@LightmappedAdv_DX9@@UBEPBDXZ 1000f450 f i lightmappedadv.obj
 0001:0000e460       ?GetFlags@CShader@LightmappedAdv_DX9@@UBEHXZ 1000f460 f i lightmappedadv.obj
 0001:0000e470       ?GetNumParams@CShader@LightmappedAdv_DX9@@UBEHXZ 1000f470 f i lightmappedadv.obj
 0001:0000e480       ?GetParamName@CShader@LightmappedAdv_DX9@@UBEPBDH@Z 1000f480 f i lightmappedadv.obj
 0001:0000e4b0       ?GetParamHelp@CShader@LightmappedAdv_DX9@@UBEPBDH@Z 1000f4b0 f i lightmappedadv.obj
 0001:0000e4f0       ?GetParamType@CShader@LightmappedAdv_DX9@@UBE?AW4ShaderParamType_t@@H@Z 1000f4f0 f i lightmappedadv.obj
 0001:0000e520       ?GetParamDefault@CShader@LightmappedAdv_DX9@@UBEPBDH@Z 1000f520 f i lightmappedadv.obj
 0001:0000e560       ?GetParamFlags@CShader@LightmappedAdv_DX9@@UBEHH@Z 1000f560 f i lightmappedadv.obj
 0001:0000e5a0       ?OnInitShaderInstance@CShader@LightmappedAdv_DX9@@UAEXPAPAVIMaterialVar@@PAVIShaderInit@@PBD@Z 1000f5a0 f i lightmappedadv.obj
 0001:0000e5c0       ?OnDrawElements@CShader@LightmappedAdv_DX9@@UAEXPAPAVIMaterialVar@@PAVIShaderShadow@@PAVIShaderDynamicAPI@@W4VertexCompressionType_t@@PAPAVCBasePerMaterialContextData@@@Z 1000f5c0 f i lightmappedadv.obj
 0001:0000e690       ??1?$CUtlVector@PAVCShaderParam@LightmappedAdv@@V?$CUtlMemory@PAVCShaderParam@LightmappedAdv@@H@@@@QAE@XZ 1000f690 f i lightmappedadv.obj
 0001:0000e700       ??1?$CUtlVector@PAVCShaderParam@LightmappedAdv_DX9@@V?$CUtlMemory@PAVCShaderParam@LightmappedAdv_DX9@@H@@@@QAE@XZ 1000f700 f i lightmappedadv.obj
 0001:0000e770       ?InsertBefore@?$CUtlVector@PAVCShaderParam@LightmappedAdv_DX9@@V?$CUtlMemory@PAVCShaderParam@LightmappedAdv_DX9@@H@@@@QAEHHABQAVCShaderParam@LightmappedAdv_DX9@@@Z 1000f770 f i lightmappedadv.obj
 0001:0000e7e0       ?Grow@?$CUtlMemory@PAVCShaderParam@LightmappedAdv_DX9@@H@@QAEXH@Z 1000f7e0 f i lightmappedadv.obj
 0001:0000e880       ??0sdk_lightmappedgeneric_ps20_Static_Index@@QAE@XZ 1000f880 f i lightmappedadv_helper.obj
 0001:0000e8d0       ?GetIndex@sdk_lightmappedgeneric_ps20_Static_Index@@QAEHXZ 1000f8d0 f i lightmappedadv_helper.obj
 0001:0000e960       ??0sdk_lightmappedgeneric_ps20b_Static_Index@@QAE@XZ 1000f960 f i lightmappedadv_helper.obj
 0001:0000e9b0       ?GetIndex@sdk_lightmappedgeneric_ps20b_Static_Index@@QAEHXZ 1000f9b0 f i lightmappedadv_helper.obj
 0001:0000ea40       ??_GCLightmappedGeneric_DX9_Context@@UAEPAXI@Z 1000fa40 f i lightmappedadv_helper.obj
 0001:0000ea40       ??_ECLightmappedGeneric_DX9_Context@@UAEPAXI@Z 1000fa40 f i  CIL library: CIL module
 0001:0000ea80       ?InitParamsLightmappedAdv_DX9@@YAXPAVCBaseVSShader@@PAPAVIMaterialVar@@PBDAAULightmappedAdv_DX9_Vars_t@@@Z 1000fa80 f   lightmappedadv_helper.obj
 0001:0000f2a0       ?InitLightmappedAdv_DX9@@YAXPAVCBaseVSShader@@PAPAVIMaterialVar@@AAULightmappedAdv_DX9_Vars_t@@@Z 100102a0 f   lightmappedadv_helper.obj
 0001:0000f7a0       ?DrawLightmappedAdvFlashlight_DX9_Internal@@YAXPAVCBaseVSShader@@PAPAVIMaterialVar@@PAVIShaderDynamicAPI@@PAVIShaderShadow@@AAULightmappedAdvFlashlight_DX9_Vars_t@@@Z 100107a0 f   lightmappedadv_helper.obj
 0001:00010430       ?DrawLightmappedAdv_DX9_Internal@@YAXPAVCBaseVSShader@@PAPAVIMaterialVar@@_NPAVIShaderDynamicAPI@@PAVIShaderShadow@@AAULightmappedAdv_DX9_Vars_t@@PAPAVCBasePerMaterialContextData@@@Z 10011430 f   lightmappedadv_helper.obj
 0001:00012690       ?DrawLightmappedAdv_DX9@@YAXPAVCBaseVSShader@@PAPAVIMaterialVar@@PAVIShaderDynamicAPI@@PAVIShaderShadow@@AAULightmappedAdv_DX9_Vars_t@@PAPAVCBasePerMaterialContextData@@@Z 10013690 f   lightmappedadv_helper.obj
 0001:000126f0       ?SetVertexShaderTextureTransform@?$CCommandBufferBuilder@V?$CFixedCommandStorageBuffer@$0DOI@@@@@QAEXHH@Z 100136f0 f i lightmappedadv_helper.obj
 0001:000127f0       ?SetVertexShaderTextureScaledTransform@?$CCommandBufferBuilder@V?$CFixedCommandStorageBuffer@$0DOI@@@@@QAEXHHH@Z 100137f0 f i lightmappedadv_helper.obj
 0001:000129a0       ?OnInitShaderParams@CShader@SDK_LightmappedGeneric_Decal@@UAEXPAPAVIMaterialVar@@PBD@Z 100139a0 f i lightmappedgeneric_decal.obj
 0001:00012a40       ?GetName@CShader@SDK_LightmappedGeneric_Decal@@UBEPBDXZ 10013a40 f i lightmappedgeneric_decal.obj
 0001:00012a50       ?GetFlags@CShader@SDK_LightmappedGeneric_Decal@@UBEHXZ 10013a50 f i lightmappedgeneric_decal.obj
 0001:00012a60       ?GetNumParams@CShader@SDK_LightmappedGeneric_Decal@@UBEHXZ 10013a60 f i lightmappedgeneric_decal.obj
 0001:00012a70       ?GetParamName@CShader@SDK_LightmappedGeneric_Decal@@UBEPBDH@Z 10013a70 f i lightmappedgeneric_decal.obj
 0001:00012aa0       ?GetParamHelp@CShader@SDK_LightmappedGeneric_Decal@@UBEPBDH@Z 10013aa0 f i lightmappedgeneric_decal.obj
 0001:00012ae0       ?GetParamType@CShader@SDK_LightmappedGeneric_Decal@@UBE?AW4ShaderParamType_t@@H@Z 10013ae0 f i lightmappedgeneric_decal.obj
 0001:00012b10       ?GetParamDefault@CShader@SDK_LightmappedGeneric_Decal@@UBEPBDH@Z 10013b10 f i lightmappedgeneric_decal.obj
 0001:00012b50       ?GetParamFlags@CShader@SDK_LightmappedGeneric_Decal@@UBEHH@Z 10013b50 f i lightmappedgeneric_decal.obj
 0001:00012b90       ?OnInitShaderInstance@CShader@SDK_LightmappedGeneric_Decal@@UAEXPAPAVIMaterialVar@@PAVIShaderInit@@PBD@Z 10013b90 f i lightmappedgeneric_decal.obj
 0001:00012c70       ?DrawDecal@CShader@SDK_LightmappedGeneric_Decal@@QAEXPAPAVIMaterialVar@@PAVIShaderDynamicAPI@@PAVIShaderShadow@@@Z 10013c70 f i lightmappedgeneric_decal.obj
 0001:00012f60       ?OnDrawElements@CShader@SDK_LightmappedGeneric_Decal@@UAEXPAPAVIMaterialVar@@PAVIShaderShadow@@PAVIShaderDynamicAPI@@W4VertexCompressionType_t@@PAPAVCBasePerMaterialContextData@@@Z 10013f60 f i lightmappedgeneric_decal.obj
 0001:00012fc0       ??1?$CUtlVector@PAVCShaderParam@SDK_LightmappedGeneric_Decal@@V?$CUtlMemory@PAVCShaderParam@SDK_LightmappedGeneric_Decal@@H@@@@QAE@XZ 10013fc0 f i lightmappedgeneric_decal.obj
 0001:00013030       ?InitParamsLightmappedGeneric_DX9@@YAXPAVCBaseVSShader@@PAPAVIMaterialVar@@PBDAAULightmappedGeneric_DX9_Vars_t@@@Z 10014030 f   lightmappedgeneric_dx9_helper.obj
 0001:00013670       ?InitLightmappedGeneric_DX9@@YAXPAVCBaseVSShader@@PAPAVIMaterialVar@@AAULightmappedGeneric_DX9_Vars_t@@@Z 10014670 f   lightmappedgeneric_dx9_helper.obj
 0001:00013b70       ?DrawLightmappedGeneric_DX9_Internal@@YAXPAVCBaseVSShader@@PAPAVIMaterialVar@@_NPAVIShaderDynamicAPI@@PAVIShaderShadow@@AAULightmappedGeneric_DX9_Vars_t@@PAPAVCBasePerMaterialContextData@@@Z 10014b70 f   lightmappedgeneric_dx9_helper.obj
 0001:00015c10       ?GetFallbackShader@CShader@SDK_LightmappedReflective@@UBEPBDPAPAVIMaterialVar@@@Z 10016c10 f i lightmappedreflective.obj
 0001:00015c20       ?GetName@CShader@SDK_LightmappedReflective@@UBEPBDXZ 10016c20 f i lightmappedreflective.obj
 0001:00015c30       ?GetFlags@CShader@SDK_LightmappedReflective@@UBEHXZ 10016c30 f i lightmappedreflective.obj
 0001:00015c40       ?GetNumParams@CShader@SDK_LightmappedReflective@@UBEHXZ 10016c40 f i lightmappedreflective.obj
 0001:00015c50       ?GetParamName@CShader@SDK_LightmappedReflective@@UBEPBDH@Z 10016c50 f i lightmappedreflective.obj
 0001:00015c80       ?GetParamHelp@CShader@SDK_LightmappedReflective@@UBEPBDH@Z 10016c80 f i lightmappedreflective.obj
 0001:00015cc0       ?GetParamType@CShader@SDK_LightmappedReflective@@UBE?AW4ShaderParamType_t@@H@Z 10016cc0 f i lightmappedreflective.obj
 0001:00015cf0       ?GetParamDefault@CShader@SDK_LightmappedReflective@@UBEPBDH@Z 10016cf0 f i lightmappedreflective.obj
 0001:00015d30       ?GetParamFlags@CShader@SDK_LightmappedReflective@@UBEHH@Z 10016d30 f i lightmappedreflective.obj
 0001:00015d70       ??0CShader@SDK_LightmappedReflective@@QAE@XZ 10016d70 f i lightmappedreflective.obj
 0001:00015dd0       ?OnInitShaderParams@CShader@SDK_LightmappedReflective_DX90@@UAEXPAPAVIMaterialVar@@PBD@Z 10016dd0 f i lightmappedreflective.obj
 0001:00015ea0       ?GetName@CShader@SDK_LightmappedReflective_DX90@@UBEPBDXZ 10016ea0 f i lightmappedreflective.obj
 0001:00015eb0       ?GetFlags@CShader@SDK_LightmappedReflective_DX90@@UBEHXZ 10016eb0 f i lightmappedreflective.obj
 0001:00015ec0       ?GetNumParams@CShader@SDK_LightmappedReflective_DX90@@UBEHXZ 10016ec0 f i lightmappedreflective.obj
 0001:00015ed0       ?GetParamName@CShader@SDK_LightmappedReflective_DX90@@UBEPBDH@Z 10016ed0 f i lightmappedreflective.obj
 0001:00015f00       ?GetParamHelp@CShader@SDK_LightmappedReflective_DX90@@UBEPBDH@Z 10016f00 f i lightmappedreflective.obj
 0001:00015f40       ?GetParamType@CShader@SDK_LightmappedReflective_DX90@@UBE?AW4ShaderParamType_t@@H@Z 10016f40 f i lightmappedreflective.obj
 0001:00015f70       ?GetParamDefault@CShader@SDK_LightmappedReflective_DX90@@UBEPBDH@Z 10016f70 f i lightmappedreflective.obj
 0001:00015fb0       ?GetParamFlags@CShader@SDK_LightmappedReflective_DX90@@UBEHH@Z 10016fb0 f i lightmappedreflective.obj
 0001:00015ff0       ?OnInitShaderInstance@CShader@SDK_LightmappedReflective_DX90@@UAEXPAPAVIMaterialVar@@PAVIShaderInit@@PBD@Z 10016ff0 f i lightmappedreflective.obj
 0001:00016190       ?DrawReflectionRefraction@CShader@SDK_LightmappedReflective_DX90@@QAEXPAPAVIMaterialVar@@PAVIShaderShadow@@PAVIShaderDynamicAPI@@_N3@Z 10017190 f i lightmappedreflective.obj
 0001:00016970       ?OnDrawElements@CShader@SDK_LightmappedReflective_DX90@@UAEXPAPAVIMaterialVar@@PAVIShaderShadow@@PAVIShaderDynamicAPI@@W4VertexCompressionType_t@@PAPAVCBasePerMaterialContextData@@@Z 10017970 f i lightmappedreflective.obj
 0001:000169e0       ??1?$CUtlVector@PAVCShaderParam@SDK_LightmappedReflective@@V?$CUtlMemory@PAVCShaderParam@SDK_LightmappedReflective@@H@@@@QAE@XZ 100179e0 f i lightmappedreflective.obj
 0001:00016a50       ??1?$CUtlVector@PAVCShaderParam@SDK_LightmappedReflective_DX90@@V?$CUtlMemory@PAVCShaderParam@SDK_LightmappedReflective_DX90@@H@@@@QAE@XZ 10017a50 f i lightmappedreflective.obj
 0001:00016ac0       ?InsertBefore@?$CUtlVector@PAVCShaderParam@SDK_LightmappedReflective_DX90@@V?$CUtlMemory@PAVCShaderParam@SDK_LightmappedReflective_DX90@@H@@@@QAEHHABQAVCShaderParam@SDK_LightmappedReflective_DX90@@@Z 10017ac0 f i lightmappedreflective.obj
 0001:00016b30       ?Grow@?$CUtlMemory@PAVCShaderParam@SDK_LightmappedReflective_DX90@@H@@QAEXH@Z 10017b30 f i lightmappedreflective.obj
 0001:00016bd0       ?OnInitShaderParams@CShader@SDK_LightmappedTwoTexture@@UAEXPAPAVIMaterialVar@@PBD@Z 10017bd0 f i lightmappedtwotexture.obj
 0001:00016cb0       ?GetName@CShader@SDK_LightmappedTwoTexture@@UBEPBDXZ 10017cb0 f i lightmappedtwotexture.obj
 0001:00016cc0       ?GetFlags@CShader@SDK_LightmappedTwoTexture@@UBEHXZ 10017cc0 f i lightmappedtwotexture.obj
 0001:00016cd0       ?GetNumParams@CShader@SDK_LightmappedTwoTexture@@UBEHXZ 10017cd0 f i lightmappedtwotexture.obj
 0001:00016ce0       ?GetParamName@CShader@SDK_LightmappedTwoTexture@@UBEPBDH@Z 10017ce0 f i lightmappedtwotexture.obj
 0001:00016d10       ?GetParamHelp@CShader@SDK_LightmappedTwoTexture@@UBEPBDH@Z 10017d10 f i lightmappedtwotexture.obj
 0001:00016d50       ?GetParamType@CShader@SDK_LightmappedTwoTexture@@UBE?AW4ShaderParamType_t@@H@Z 10017d50 f i lightmappedtwotexture.obj
 0001:00016d80       ?GetParamDefault@CShader@SDK_LightmappedTwoTexture@@UBEPBDH@Z 10017d80 f i lightmappedtwotexture.obj
 0001:00016dc0       ?GetParamFlags@CShader@SDK_LightmappedTwoTexture@@UBEHH@Z 10017dc0 f i lightmappedtwotexture.obj
 0001:00016e00       ?OnInitShaderInstance@CShader@SDK_LightmappedTwoTexture@@UAEXPAPAVIMaterialVar@@PAVIShaderInit@@PBD@Z 10017e00 f i lightmappedtwotexture.obj
 0001:00017000       ?GetFallbackShader@CShader@SDK_LightmappedTwoTexture@@UBEPBDPAPAVIMaterialVar@@@Z 10018000 f i lightmappedtwotexture.obj
 0001:00017020       ?OnDrawElements@CShader@SDK_LightmappedTwoTexture@@UAEXPAPAVIMaterialVar@@PAVIShaderShadow@@PAVIShaderDynamicAPI@@W4VertexCompressionType_t@@PAPAVCBasePerMaterialContextData@@@Z 10018020 f i lightmappedtwotexture.obj
 0001:00017080       ??0CShader@SDK_LightmappedTwoTexture@@QAE@XZ 10018080 f i lightmappedtwotexture.obj
 0001:000170e0       ??1?$CUtlVector@PAVCShaderParam@SDK_LightmappedTwoTexture@@V?$CUtlMemory@PAVCShaderParam@SDK_LightmappedTwoTexture@@H@@@@QAE@XZ 100180e0 f i lightmappedtwotexture.obj
 0001:00017150       ?InsertBefore@?$CUtlVector@PAVCShaderParam@SDK_LightmappedTwoTexture@@V?$CUtlMemory@PAVCShaderParam@SDK_LightmappedTwoTexture@@H@@@@QAEHHABQAVCShaderParam@SDK_LightmappedTwoTexture@@@Z 10018150 f i lightmappedtwotexture.obj
 0001:000171c0       ?Grow@?$CUtlMemory@PAVCShaderParam@SDK_LightmappedTwoTexture@@H@@QAEXH@Z 100181c0 f i lightmappedtwotexture.obj
 0001:00017260       ?OnInitShaderParams@CShader@SDK_Eyeball@@UAEXPAPAVIMaterialVar@@PBD@Z 10018260 f i eyeball.obj
 0001:00017260       ?OnInitShaderParams@CBaseShader@@UAEXPAPAVIMaterialVar@@PBD@Z 10018260 f i aftershock.obj
 0001:00017260       ?OnInitShaderParams@CShader@LUMA@@UAEXPAPAVIMaterialVar@@PBD@Z 10018260 f i luma.obj
 0001:00017270       ?GetName@CShader@LUMA@@UBEPBDXZ 10018270 f i luma.obj
 0001:00017280       ?GetNumParams@CShader@LUMA@@UBEHXZ 10018280 f i luma.obj
 0001:00017290       ?GetParamName@CShader@LUMA@@UBEPBDH@Z 10018290 f i luma.obj
 0001:000172c0       ?GetParamHelp@CShader@LUMA@@UBEPBDH@Z 100182c0 f i luma.obj
 0001:00017300       ?GetParamType@CShader@LUMA@@UBE?AW4ShaderParamType_t@@H@Z 10018300 f i luma.obj
 0001:00017330       ?GetParamDefault@CShader@LUMA@@UBEPBDH@Z 10018330 f i luma.obj
 0001:00017370       ?GetParamFlags@CShader@LUMA@@UBEHH@Z 10018370 f i luma.obj
 0001:000173b0       ?OnInitShaderInstance@CShader@LUMA@@UAEXPAPAVIMaterialVar@@PAVIShaderInit@@PBD@Z 100183b0 f i luma.obj
 0001:00017410       ?GetFallbackShader@CShader@FXAA@@UBEPBDPAPAVIMaterialVar@@@Z 10018410 f i fxaa.obj
 0001:00017410       ?GetFallbackShader@CShader@Radial_Blur@@UBEPBDPAPAVIMaterialVar@@@Z 10018410 f i radial_blur.obj
 0001:00017410       ?GetFallbackShader@CShader@LUMA@@UBEPBDPAPAVIMaterialVar@@@Z 10018410 f i luma.obj
 0001:00017450       ?OnDrawElements@CShader@LUMA@@UAEXPAPAVIMaterialVar@@PAVIShaderShadow@@PAVIShaderDynamicAPI@@W4VertexCompressionType_t@@PAPAVCBasePerMaterialContextData@@@Z 10018450 f i luma.obj
 0001:00017570       ??1?$CUtlVector@PAVCShaderParam@LUMA@@V?$CUtlMemory@PAVCShaderParam@LUMA@@H@@@@QAE@XZ 10018570 f i luma.obj
 0001:000175e0       ?InsertBefore@?$CUtlVector@PAVCShaderParam@LUMA@@V?$CUtlMemory@PAVCShaderParam@LUMA@@H@@@@QAEHHABQAVCShaderParam@LUMA@@@Z 100185e0 f i luma.obj
 0001:00017650       ?Grow@?$CUtlMemory@PAVCShaderParam@LUMA@@H@@QAEXH@Z 10018650 f i luma.obj
 0001:000176f0       ?GetName@CShader@Negative@@UBEPBDXZ 100186f0 f i negative.obj
 0001:00017700       ?GetNumParams@CShader@Negative@@UBEHXZ 10018700 f i negative.obj
 0001:00017710       ?GetParamName@CShader@Negative@@UBEPBDH@Z 10018710 f i negative.obj
 0001:00017740       ?GetParamHelp@CShader@Negative@@UBEPBDH@Z 10018740 f i negative.obj
 0001:00017780       ?GetParamType@CShader@Negative@@UBE?AW4ShaderParamType_t@@H@Z 10018780 f i negative.obj
 0001:000177b0       ?GetParamDefault@CShader@Negative@@UBEPBDH@Z 100187b0 f i negative.obj
 0001:000177f0       ?GetParamFlags@CShader@Negative@@UBEHH@Z 100187f0 f i negative.obj
 0001:00017830       ?OnInitShaderInstance@CShader@Negative@@UAEXPAPAVIMaterialVar@@PAVIShaderInit@@PBD@Z 10018830 f i negative.obj
 0001:00017890       ?OnDrawElements@CShader@Negative@@UAEXPAPAVIMaterialVar@@PAVIShaderShadow@@PAVIShaderDynamicAPI@@W4VertexCompressionType_t@@PAPAVCBasePerMaterialContextData@@@Z 10018890 f i negative.obj
 0001:000179d0       ??1?$CUtlVector@PAVCShaderParam@Negative@@V?$CUtlMemory@PAVCShaderParam@Negative@@H@@@@QAE@XZ 100189d0 f i negative.obj
 0001:00017a40       ?InsertBefore@?$CUtlVector@PAVCShaderParam@Negative@@V?$CUtlMemory@PAVCShaderParam@Negative@@H@@@@QAEHHABQAVCShaderParam@Negative@@@Z 10018a40 f i negative.obj
 0001:00017ab0       ?Grow@?$CUtlMemory@PAVCShaderParam@Negative@@H@@QAEXH@Z 10018ab0 f i negative.obj
 0001:00017b50       ?GetName@CShader@Nightvision@@UBEPBDXZ 10018b50 f i nightvision.obj
 0001:00017b60       ?GetFlags@CShader@Nightvision@@UBEHXZ 10018b60 f i nightvision.obj
 0001:00017b70       ?GetNumParams@CShader@Nightvision@@UBEHXZ 10018b70 f i nightvision.obj
 0001:00017b80       ?GetParamName@CShader@Nightvision@@UBEPBDH@Z 10018b80 f i nightvision.obj
 0001:00017bb0       ?GetParamHelp@CShader@Nightvision@@UBEPBDH@Z 10018bb0 f i nightvision.obj
 0001:00017bf0       ?GetParamType@CShader@Nightvision@@UBE?AW4ShaderParamType_t@@H@Z 10018bf0 f i nightvision.obj
 0001:00017c20       ?GetParamDefault@CShader@Nightvision@@UBEPBDH@Z 10018c20 f i nightvision.obj
 0001:00017c60       ?GetParamFlags@CShader@Nightvision@@UBEHH@Z 10018c60 f i nightvision.obj
 0001:00017ca0       ?OnInitShaderInstance@CShader@Nightvision@@UAEXPAPAVIMaterialVar@@PAVIShaderInit@@PBD@Z 10018ca0 f i nightvision.obj
 0001:00017da0       ?OnDrawElements@CShader@Nightvision@@UAEXPAPAVIMaterialVar@@PAVIShaderShadow@@PAVIShaderDynamicAPI@@W4VertexCompressionType_t@@PAPAVCBasePerMaterialContextData@@@Z 10018da0 f i nightvision.obj
 0001:00017fc0       ??1?$CUtlVector@PAVCShaderParam@Nightvision@@V?$CUtlMemory@PAVCShaderParam@Nightvision@@H@@@@QAE@XZ 10018fc0 f i nightvision.obj
 0001:00018030       ?InsertBefore@?$CUtlVector@PAVCShaderParam@Nightvision@@V?$CUtlMemory@PAVCShaderParam@Nightvision@@H@@@@QAEHHABQAVCShaderParam@Nightvision@@@Z 10019030 f i nightvision.obj
 0001:000180a0       ?Grow@?$CUtlMemory@PAVCShaderParam@Nightvision@@H@@QAEXH@Z 100190a0 f i nightvision.obj
 0001:00018140       ?GetName@CShader@Noise@@UBEPBDXZ 10019140 f i noise.obj
 0001:00018150       ?GetFlags@CShader@Noise@@UBEHXZ 10019150 f i noise.obj
 0001:00018160       ?GetNumParams@CShader@Noise@@UBEHXZ 10019160 f i noise.obj
 0001:00018170       ?GetParamName@CShader@Noise@@UBEPBDH@Z 10019170 f i noise.obj
 0001:000181a0       ?GetParamHelp@CShader@Noise@@UBEPBDH@Z 100191a0 f i noise.obj
 0001:000181e0       ?GetParamType@CShader@Noise@@UBE?AW4ShaderParamType_t@@H@Z 100191e0 f i noise.obj
 0001:00018210       ?GetParamDefault@CShader@Noise@@UBEPBDH@Z 10019210 f i noise.obj
 0001:00018250       ?GetParamFlags@CShader@Noise@@UBEHH@Z 10019250 f i noise.obj
 0001:00018290       ?OnInitShaderInstance@CShader@Noise@@UAEXPAPAVIMaterialVar@@PAVIShaderInit@@PBD@Z 10019290 f i noise.obj
 0001:000182f0       ?OnDrawElements@CShader@Noise@@UAEXPAPAVIMaterialVar@@PAVIShaderShadow@@PAVIShaderDynamicAPI@@W4VertexCompressionType_t@@PAPAVCBasePerMaterialContextData@@@Z 100192f0 f i noise.obj
 0001:000184e0       ??1?$CUtlVector@PAVCShaderParam@Noise@@V?$CUtlMemory@PAVCShaderParam@Noise@@H@@@@QAE@XZ 100194e0 f i noise.obj
 0001:00018550       ?InsertBefore@?$CUtlVector@PAVCShaderParam@Noise@@V?$CUtlMemory@PAVCShaderParam@Noise@@H@@@@QAEHHABQAVCShaderParam@Noise@@@Z 10019550 f i noise.obj
 0001:000185c0       ?Grow@?$CUtlMemory@PAVCShaderParam@Noise@@H@@QAEXH@Z 100195c0 f i noise.obj
 0001:00018660       ?GetName@CShader@RadialGaussianX@@UBEPBDXZ 10019660 f i radialgaussianx.obj
 0001:00018670       ?GetFlags@CShader@RadialGaussianX@@UBEHXZ 10019670 f i radialgaussianx.obj
 0001:00018680       ?GetNumParams@CShader@RadialGaussianX@@UBEHXZ 10019680 f i radialgaussianx.obj
 0001:00018690       ?GetParamName@CShader@RadialGaussianX@@UBEPBDH@Z 10019690 f i radialgaussianx.obj
 0001:000186c0       ?GetParamHelp@CShader@RadialGaussianX@@UBEPBDH@Z 100196c0 f i radialgaussianx.obj
 0001:00018700       ?GetParamType@CShader@RadialGaussianX@@UBE?AW4ShaderParamType_t@@H@Z 10019700 f i radialgaussianx.obj
 0001:00018730       ?GetParamDefault@CShader@RadialGaussianX@@UBEPBDH@Z 10019730 f i radialgaussianx.obj
 0001:00018770       ?GetParamFlags@CShader@RadialGaussianX@@UBEHH@Z 10019770 f i radialgaussianx.obj
 0001:000187b0       ?OnInitShaderInstance@CShader@RadialGaussianX@@UAEXPAPAVIMaterialVar@@PAVIShaderInit@@PBD@Z 100197b0 f i radialgaussianx.obj
 0001:00018810       ?OnDrawElements@CShader@RadialGaussianX@@UAEXPAPAVIMaterialVar@@PAVIShaderShadow@@PAVIShaderDynamicAPI@@W4VertexCompressionType_t@@PAPAVCBasePerMaterialContextData@@@Z 10019810 f i radialgaussianx.obj
 0001:000189f0       ??1?$CUtlVector@PAVCShaderParam@RadialGaussianX@@V?$CUtlMemory@PAVCShaderParam@RadialGaussianX@@H@@@@QAE@XZ 100199f0 f i radialgaussianx.obj
 0001:00018a60       ?InsertBefore@?$CUtlVector@PAVCShaderParam@RadialGaussianX@@V?$CUtlMemory@PAVCShaderParam@RadialGaussianX@@H@@@@QAEHHABQAVCShaderParam@RadialGaussianX@@@Z 10019a60 f i radialgaussianx.obj
 0001:00018ad0       ?Grow@?$CUtlMemory@PAVCShaderParam@RadialGaussianX@@H@@QAEXH@Z 10019ad0 f i radialgaussianx.obj
 0001:00018b70       ?GetName@CShader@RadialGaussianY@@UBEPBDXZ 10019b70 f i radialgaussiany.obj
 0001:00018b80       ?GetFlags@CShader@RadialGaussianY@@UBEHXZ 10019b80 f i radialgaussiany.obj
 0001:00018b90       ?GetNumParams@CShader@RadialGaussianY@@UBEHXZ 10019b90 f i radialgaussiany.obj
 0001:00018ba0       ?GetParamName@CShader@RadialGaussianY@@UBEPBDH@Z 10019ba0 f i radialgaussiany.obj
 0001:00018bd0       ?GetParamHelp@CShader@RadialGaussianY@@UBEPBDH@Z 10019bd0 f i radialgaussiany.obj
 0001:00018c10       ?GetParamType@CShader@RadialGaussianY@@UBE?AW4ShaderParamType_t@@H@Z 10019c10 f i radialgaussiany.obj
 0001:00018c40       ?GetParamDefault@CShader@RadialGaussianY@@UBEPBDH@Z 10019c40 f i radialgaussiany.obj
 0001:00018c80       ?GetParamFlags@CShader@RadialGaussianY@@UBEHH@Z 10019c80 f i radialgaussiany.obj
 0001:00018cc0       ?OnInitShaderInstance@CShader@RadialGaussianY@@UAEXPAPAVIMaterialVar@@PAVIShaderInit@@PBD@Z 10019cc0 f i radialgaussiany.obj
 0001:00018d20       ?OnDrawElements@CShader@RadialGaussianY@@UAEXPAPAVIMaterialVar@@PAVIShaderShadow@@PAVIShaderDynamicAPI@@W4VertexCompressionType_t@@PAPAVCBasePerMaterialContextData@@@Z 10019d20 f i radialgaussiany.obj
 0001:00018f00       ??1?$CUtlVector@PAVCShaderParam@RadialGaussianY@@V?$CUtlMemory@PAVCShaderParam@RadialGaussianY@@H@@@@QAE@XZ 10019f00 f i radialgaussiany.obj
 0001:00018f70       ?InsertBefore@?$CUtlVector@PAVCShaderParam@RadialGaussianY@@V?$CUtlMemory@PAVCShaderParam@RadialGaussianY@@H@@@@QAEHHABQAVCShaderParam@RadialGaussianY@@@Z 10019f70 f i radialgaussiany.obj
 0001:00018fe0       ?Grow@?$CUtlMemory@PAVCShaderParam@RadialGaussianY@@H@@QAEXH@Z 10019fe0 f i radialgaussiany.obj
 0001:00019080       ?GetName@CShader@Radial_Blur@@UBEPBDXZ 1001a080 f i radial_blur.obj
 0001:00019090       ?GetNumParams@CShader@Radial_Blur@@UBEHXZ 1001a090 f i radial_blur.obj
 0001:000190a0       ?GetParamName@CShader@Radial_Blur@@UBEPBDH@Z 1001a0a0 f i radial_blur.obj
 0001:000190d0       ?GetParamHelp@CShader@Radial_Blur@@UBEPBDH@Z 1001a0d0 f i radial_blur.obj
 0001:00019110       ?GetParamType@CShader@Radial_Blur@@UBE?AW4ShaderParamType_t@@H@Z 1001a110 f i radial_blur.obj
 0001:00019140       ?GetParamDefault@CShader@Radial_Blur@@UBEPBDH@Z 1001a140 f i radial_blur.obj
 0001:00019180       ?GetParamFlags@CShader@Radial_Blur@@UBEHH@Z 1001a180 f i radial_blur.obj
 0001:000191c0       ?OnInitShaderInstance@CShader@Radial_Blur@@UAEXPAPAVIMaterialVar@@PAVIShaderInit@@PBD@Z 1001a1c0 f i radial_blur.obj
 0001:00019220       ?OnDrawElements@CShader@Radial_Blur@@UAEXPAPAVIMaterialVar@@PAVIShaderShadow@@PAVIShaderDynamicAPI@@W4VertexCompressionType_t@@PAPAVCBasePerMaterialContextData@@@Z 1001a220 f i radial_blur.obj
 0001:000194a0       ??1?$CUtlVector@PAVCShaderParam@Radial_Blur@@V?$CUtlMemory@PAVCShaderParam@Radial_Blur@@H@@@@QAE@XZ 1001a4a0 f i radial_blur.obj
 0001:00019510       ?InsertBefore@?$CUtlVector@PAVCShaderParam@Radial_Blur@@V?$CUtlMemory@PAVCShaderParam@Radial_Blur@@H@@@@QAEHHABQAVCShaderParam@Radial_Blur@@@Z 1001a510 f i radial_blur.obj
 0001:00019580       ?Grow@?$CUtlMemory@PAVCShaderParam@Radial_Blur@@H@@QAEXH@Z 1001a580 f i radial_blur.obj
 0001:00019620       ?GetFallbackShader@CShader@SDK_Refract@@UBEPBDPAPAVIMaterialVar@@@Z 1001a620 f i refract.obj
 0001:00019630       ?GetName@CShader@SDK_Refract@@UBEPBDXZ 1001a630 f i refract.obj
 0001:00019640       ?GetFlags@CShader@SDK_Refract@@UBEHXZ 1001a640 f i refract.obj
 0001:00019650       ?GetNumParams@CShader@SDK_Refract@@UBEHXZ 1001a650 f i refract.obj
 0001:00019660       ?GetParamName@CShader@SDK_Refract@@UBEPBDH@Z 1001a660 f i refract.obj
 0001:00019690       ?GetParamHelp@CShader@SDK_Refract@@UBEPBDH@Z 1001a690 f i refract.obj
 0001:000196d0       ?GetParamType@CShader@SDK_Refract@@UBE?AW4ShaderParamType_t@@H@Z 1001a6d0 f i refract.obj
 0001:00019700       ?GetParamDefault@CShader@SDK_Refract@@UBEPBDH@Z 1001a700 f i refract.obj
 0001:00019740       ?GetParamFlags@CShader@SDK_Refract@@UBEHH@Z 1001a740 f i refract.obj
 0001:00019780       ?OnInitShaderInstance@CShader@SDK_Teeth@@UAEXPAPAVIMaterialVar@@PAVIShaderInit@@PBD@Z 1001a780 f i teeth.obj
 0001:00019780       ?OnInitShaderInstance@CShader@SDK_EyeRefract@@UAEXPAPAVIMaterialVar@@PAVIShaderInit@@PBD@Z 1001a780 f i dx8fallbacks.obj
 0001:00019780       ?OnInitShaderInstance@CShader@SDK_screenspace_general@@UAEXPAPAVIMaterialVar@@PAVIShaderInit@@PBD@Z 1001a780 f i screenspace_general.obj
 0001:00019780       ?OnInitShaderInstance@CShader@SDK_EyeGlint@@UAEXPAPAVIMaterialVar@@PAVIShaderInit@@PBD@Z 1001a780 f i dx8fallbacks.obj
 0001:00019780       ?OnInitShaderInstance@CShader@SDK_VolumeClouds@@UAEXPAPAVIMaterialVar@@PAVIShaderInit@@PBD@Z 1001a780 f i dx8fallbacks.obj
 0001:00019780       ?OnInitShaderInstance@CShader@SDK_eyes@@UAEXPAPAVIMaterialVar@@PAVIShaderInit@@PBD@Z 1001a780 f i eyes.obj
 0001:00019780       ?OnInitShaderInstance@CShader@SDK_Cable@@UAEXPAPAVIMaterialVar@@PAVIShaderInit@@PBD@Z 1001a780 f i cable_dx9.obj
 0001:00019780       ?OnInitShaderInstance@CShader@SDK_Refract@@UAEXPAPAVIMaterialVar@@PAVIShaderInit@@PBD@Z 1001a780 f i refract.obj
 0001:00019780       ?OnInitShaderInstance@CShader@SDK_Aftershock@@UAEXPAPAVIMaterialVar@@PAVIShaderInit@@PBD@Z 1001a780 f i aftershock.obj
 0001:00019780       ?OnInitShaderInstance@CShader@SDK_DepthWrite@@UAEXPAPAVIMaterialVar@@PAVIShaderInit@@PBD@Z 1001a780 f i dx8fallbacks.obj
 0001:00019780       ?OnInitShaderInstance@CShader@SDK_Core@@UAEXPAPAVIMaterialVar@@PAVIShaderInit@@PBD@Z 1001a780 f i core_dx9.obj
 0001:00019780       ?OnInitShaderInstance@CShader@SDK_AfterShock@@UAEXPAPAVIMaterialVar@@PAVIShaderInit@@PBD@Z 1001a780 f i dx8fallbacks.obj
 0001:00019780       ?OnInitShaderInstance@CShader@SDK_Water@@UAEXPAPAVIMaterialVar@@PAVIShaderInit@@PBD@Z 1001a780 f i water.obj
 0001:00019780       ?OnInitShaderInstance@CShader@SDK_EyeGlint_dx9@@UAEXPAPAVIMaterialVar@@PAVIShaderInit@@PBD@Z 1001a780 f i eyeglint_dx9.obj
 0001:00019780       ?Function3@CShaderDLLVerification@@UAEXHHH@Z 1001a780 f i shader_dll_verify.obj
 0001:00019780       ?OnInitShaderInstance@CShader@SDK_Eyeball@@UAEXPAPAVIMaterialVar@@PAVIShaderInit@@PBD@Z 1001a780 f i eyeball.obj
 0001:00019780       ?OnInitShaderInstance@CShader@LightmappedAdv@@UAEXPAPAVIMaterialVar@@PAVIShaderInit@@PBD@Z 1001a780 f i lightmappedadv.obj
 0001:00019780       ?OnInitShaderInstance@CShader@SDK_LightmappedReflective@@UAEXPAPAVIMaterialVar@@PAVIShaderInit@@PBD@Z 1001a780 f i lightmappedreflective.obj
 0001:00019780       ?OnInitShaderInstance@CShader@SDK_VortWarp@@UAEXPAPAVIMaterialVar@@PAVIShaderInit@@PBD@Z 1001a780 f i vortwarp_dx9.obj
 0001:00019780       ?Function4@CShaderDLLVerification@@UAEXHHH@Z 1001a780 f i shader_dll_verify.obj
 0001:00019780       ?OnInitShaderInstance@CShader@SDK_WorldVertexTransition@@UAEXPAPAVIMaterialVar@@PAVIShaderInit@@PBD@Z 1001a780 f i worldvertextransition.obj
 0001:00019780       ?OnInitShaderInstance@CShader@SDK_UnlitTwoTexture@@UAEXPAPAVIMaterialVar@@PAVIShaderInit@@PBD@Z 1001a780 f i unlittwotexture_dx9.obj
 0001:00019790       ??0CShader@SDK_Refract@@QAE@XZ 1001a790 f i refract.obj
 0001:000197f0       ?SetupVars@CShader@SDK_Refract_DX90@@QAEXAAURefract_DX9_Vars_t@@@Z 1001a7f0 f i refract.obj
 0001:000198d0       ?OnInitShaderParams@CShader@SDK_Refract_DX90@@UAEXPAPAVIMaterialVar@@PBD@Z 1001a8d0 f i refract.obj
 0001:00019910       ?GetFallbackShader@CShader@SDK_Refract_DX90@@UBEPBDPAPAVIMaterialVar@@@Z 1001a910 f i refract.obj
 0001:00019930       ?GetName@CShader@SDK_Refract_DX90@@UBEPBDXZ 1001a930 f i refract.obj
 0001:00019940       ?GetFlags@CShader@SDK_Refract_DX90@@UBEHXZ 1001a940 f i refract.obj
 0001:00019950       ?GetNumParams@CShader@SDK_Refract_DX90@@UBEHXZ 1001a950 f i refract.obj
 0001:00019960       ?GetParamName@CShader@SDK_Refract_DX90@@UBEPBDH@Z 1001a960 f i refract.obj
 0001:00019990       ?GetParamHelp@CShader@SDK_Refract_DX90@@UBEPBDH@Z 1001a990 f i refract.obj
 0001:000199d0       ?GetParamType@CShader@SDK_Refract_DX90@@UBE?AW4ShaderParamType_t@@H@Z 1001a9d0 f i refract.obj
 0001:00019a00       ?GetParamDefault@CShader@SDK_Refract_DX90@@UBEPBDH@Z 1001aa00 f i refract.obj
 0001:00019a40       ?GetParamFlags@CShader@SDK_Refract_DX90@@UBEHH@Z 1001aa40 f i refract.obj
 0001:00019a80       ?OnInitShaderInstance@CShader@SDK_Refract_DX90@@UAEXPAPAVIMaterialVar@@PAVIShaderInit@@PBD@Z 1001aa80 f i refract.obj
 0001:00019ac0       ?OnDrawElements@CShader@SDK_Refract_DX90@@UAEXPAPAVIMaterialVar@@PAVIShaderShadow@@PAVIShaderDynamicAPI@@W4VertexCompressionType_t@@PAPAVCBasePerMaterialContextData@@@Z 1001aac0 f i refract.obj
 0001:00019b50       ??1?$CUtlVector@PAVCShaderParam@SDK_Refract@@V?$CUtlMemory@PAVCShaderParam@SDK_Refract@@H@@@@QAE@XZ 1001ab50 f i refract.obj
 0001:00019bc0       ??1?$CUtlVector@PAVCShaderParam@SDK_Refract_DX90@@V?$CUtlMemory@PAVCShaderParam@SDK_Refract_DX90@@H@@@@QAE@XZ 1001abc0 f i refract.obj
 0001:00019c30       ?InsertBefore@?$CUtlVector@PAVCShaderParam@SDK_Refract_DX90@@V?$CUtlMemory@PAVCShaderParam@SDK_Refract_DX90@@H@@@@QAEHHABQAVCShaderParam@SDK_Refract_DX90@@@Z 1001ac30 f i refract.obj
 0001:00019ca0       ?Grow@?$CUtlMemory@PAVCShaderParam@SDK_Refract_DX90@@H@@QAEXH@Z 1001aca0 f i refract.obj
 0001:00019d40       ?InitParamsRefract_DX9@@YAXPAVCBaseVSShader@@PAPAVIMaterialVar@@PBDAAURefract_DX9_Vars_t@@@Z 1001ad40 f   refract_dx9_helper.obj
 0001:00019ee0       ?InitRefract_DX9@@YAXPAVCBaseVSShader@@PAPAVIMaterialVar@@AAURefract_DX9_Vars_t@@@Z 1001aee0 f   refract_dx9_helper.obj
 0001:0001a060       ?DrawRefract_DX9@@YAXPAVCBaseVSShader@@PAPAVIMaterialVar@@PAVIShaderDynamicAPI@@PAVIShaderShadow@@AAURefract_DX9_Vars_t@@W4VertexCompressionType_t@@@Z 1001b060 f   refract_dx9_helper.obj
 0001:0001acd0       ?GetFallbackShader@CShader@SDK_screenspace_general@@UBEPBDPAPAVIMaterialVar@@@Z 1001bcd0 f i screenspace_general.obj
 0001:0001ace0       ?GetName@CShader@SDK_screenspace_general@@UBEPBDXZ 1001bce0 f i screenspace_general.obj
 0001:0001acf0       ?GetFlags@CShader@SDK_screenspace_general@@UBEHXZ 1001bcf0 f i screenspace_general.obj
 0001:0001ad00       ?GetNumParams@CShader@SDK_screenspace_general@@UBEHXZ 1001bd00 f i screenspace_general.obj
 0001:0001ad10       ?GetParamName@CShader@SDK_screenspace_general@@UBEPBDH@Z 1001bd10 f i screenspace_general.obj
 0001:0001ad40       ?GetParamHelp@CShader@SDK_screenspace_general@@UBEPBDH@Z 1001bd40 f i screenspace_general.obj
 0001:0001ad80       ?GetParamType@CShader@SDK_screenspace_general@@UBE?AW4ShaderParamType_t@@H@Z 1001bd80 f i screenspace_general.obj
 0001:0001adb0       ?GetParamDefault@CShader@SDK_screenspace_general@@UBEPBDH@Z 1001bdb0 f i screenspace_general.obj
 0001:0001adf0       ?GetParamFlags@CShader@SDK_screenspace_general@@UBEHH@Z 1001bdf0 f i screenspace_general.obj
 0001:0001ae30       ??0CShader@SDK_screenspace_general@@QAE@XZ 1001be30 f i screenspace_general.obj
 0001:0001ae90       ?GetName@CShader@SDK_screenspace_general_dx9@@UBEPBDXZ 1001be90 f i screenspace_general.obj
 0001:0001aea0       ?GetNumParams@CShader@SDK_screenspace_general_dx9@@UBEHXZ 1001bea0 f i screenspace_general.obj
 0001:0001aeb0       ?GetParamName@CShader@SDK_screenspace_general_dx9@@UBEPBDH@Z 1001beb0 f i screenspace_general.obj
 0001:0001aee0       ?GetParamHelp@CShader@SDK_screenspace_general_dx9@@UBEPBDH@Z 1001bee0 f i screenspace_general.obj
 0001:0001af20       ?GetParamType@CShader@SDK_screenspace_general_dx9@@UBE?AW4ShaderParamType_t@@H@Z 1001bf20 f i screenspace_general.obj
 0001:0001af50       ?GetParamDefault@CShader@SDK_screenspace_general_dx9@@UBEPBDH@Z 1001bf50 f i screenspace_general.obj
 0001:0001af90       ?GetParamFlags@CShader@SDK_screenspace_general_dx9@@UBEHH@Z 1001bf90 f i screenspace_general.obj
 0001:0001afd0       ?OnInitShaderInstance@CShader@SDK_screenspace_general_dx9@@UAEXPAPAVIMaterialVar@@PAVIShaderInit@@PBD@Z 1001bfd0 f i screenspace_general.obj
 0001:0001b110       ?GetFallbackShader@CShader@SDK_screenspace_general_dx9@@UBEPBDPAPAVIMaterialVar@@@Z 1001c110 f i screenspace_general.obj
 0001:0001b130       ?OnDrawElements@CShader@SDK_screenspace_general_dx9@@UAEXPAPAVIMaterialVar@@PAVIShaderShadow@@PAVIShaderDynamicAPI@@W4VertexCompressionType_t@@PAPAVCBasePerMaterialContextData@@@Z 1001c130 f i screenspace_general.obj
 0001:0001b830       ??1?$CUtlVector@PAVCShaderParam@SDK_screenspace_general@@V?$CUtlMemory@PAVCShaderParam@SDK_screenspace_general@@H@@@@QAE@XZ 1001c830 f i screenspace_general.obj
 0001:0001b8a0       ??1?$CUtlVector@PAVCShaderParam@SDK_screenspace_general_dx9@@V?$CUtlMemory@PAVCShaderParam@SDK_screenspace_general_dx9@@H@@@@QAE@XZ 1001c8a0 f i screenspace_general.obj
 0001:0001b910       ?InsertBefore@?$CUtlVector@PAVCShaderParam@SDK_screenspace_general_dx9@@V?$CUtlMemory@PAVCShaderParam@SDK_screenspace_general_dx9@@H@@@@QAEHHABQAVCShaderParam@SDK_screenspace_general_dx9@@@Z 1001c910 f i screenspace_general.obj
 0001:0001b980       ?Grow@?$CUtlMemory@PAVCShaderParam@SDK_screenspace_general_dx9@@H@@QAEXH@Z 1001c980 f i screenspace_general.obj
 0001:0001ba20       ?GetName@CShader@ScreenWater@@UBEPBDXZ 1001ca20 f i screenwater.obj
 0001:0001ba30       ?GetFlags@CShader@ScreenWater@@UBEHXZ 1001ca30 f i screenwater.obj
 0001:0001ba40       ?GetNumParams@CShader@ScreenWater@@UBEHXZ 1001ca40 f i screenwater.obj
 0001:0001ba50       ?GetParamName@CShader@ScreenWater@@UBEPBDH@Z 1001ca50 f i screenwater.obj
 0001:0001ba80       ?GetParamHelp@CShader@ScreenWater@@UBEPBDH@Z 1001ca80 f i screenwater.obj
 0001:0001bac0       ?GetParamType@CShader@ScreenWater@@UBE?AW4ShaderParamType_t@@H@Z 1001cac0 f i screenwater.obj
 0001:0001baf0       ?GetParamDefault@CShader@ScreenWater@@UBEPBDH@Z 1001caf0 f i screenwater.obj
 0001:0001bb30       ?GetParamFlags@CShader@ScreenWater@@UBEHH@Z 1001cb30 f i screenwater.obj
 0001:0001bb70       ?OnInitShaderInstance@CShader@ScreenWater@@UAEXPAPAVIMaterialVar@@PAVIShaderInit@@PBD@Z 1001cb70 f i screenwater.obj
 0001:0001bc20       ?OnDrawElements@CShader@ScreenWater@@UAEXPAPAVIMaterialVar@@PAVIShaderShadow@@PAVIShaderDynamicAPI@@W4VertexCompressionType_t@@PAPAVCBasePerMaterialContextData@@@Z 1001cc20 f i screenwater.obj
 0001:0001be90       ??1?$CUtlVector@PAVCShaderParam@ScreenWater@@V?$CUtlMemory@PAVCShaderParam@ScreenWater@@H@@@@QAE@XZ 1001ce90 f i screenwater.obj
 0001:0001bf00       ?InsertBefore@?$CUtlVector@PAVCShaderParam@ScreenWater@@V?$CUtlMemory@PAVCShaderParam@ScreenWater@@H@@@@QAEHHABQAVCShaderParam@ScreenWater@@@Z 1001cf00 f i screenwater.obj
 0001:0001bf70       ?Grow@?$CUtlMemory@PAVCShaderParam@ScreenWater@@H@@QAEXH@Z 1001cf70 f i screenwater.obj
 0001:0001c010       ?GetName@CShader@Sepia@@UBEPBDXZ 1001d010 f i sepia.obj
 0001:0001c020       ?GetFlags@CShader@Sepia@@UBEHXZ 1001d020 f i sepia.obj
 0001:0001c030       ?GetNumParams@CShader@Sepia@@UBEHXZ 1001d030 f i sepia.obj
 0001:0001c040       ?GetParamName@CShader@Sepia@@UBEPBDH@Z 1001d040 f i sepia.obj
 0001:0001c070       ?GetParamHelp@CShader@Sepia@@UBEPBDH@Z 1001d070 f i sepia.obj
 0001:0001c0b0       ?GetParamType@CShader@Sepia@@UBE?AW4ShaderParamType_t@@H@Z 1001d0b0 f i sepia.obj
 0001:0001c0e0       ?GetParamDefault@CShader@Sepia@@UBEPBDH@Z 1001d0e0 f i sepia.obj
 0001:0001c120       ?GetParamFlags@CShader@Sepia@@UBEHH@Z 1001d120 f i sepia.obj
 0001:0001c160       ?OnInitShaderInstance@CShader@Sepia@@UAEXPAPAVIMaterialVar@@PAVIShaderInit@@PBD@Z 1001d160 f i sepia.obj
 0001:0001c1c0       ?OnDrawElements@CShader@Sepia@@UAEXPAPAVIMaterialVar@@PAVIShaderShadow@@PAVIShaderDynamicAPI@@W4VertexCompressionType_t@@PAPAVCBasePerMaterialContextData@@@Z 1001d1c0 f i sepia.obj
 0001:0001c300       ??1?$CUtlVector@PAVCShaderParam@Sepia@@V?$CUtlMemory@PAVCShaderParam@Sepia@@H@@@@QAE@XZ 1001d300 f i sepia.obj
 0001:0001c370       ?InsertBefore@?$CUtlVector@PAVCShaderParam@Sepia@@V?$CUtlMemory@PAVCShaderParam@Sepia@@H@@@@QAEHHABQAVCShaderParam@Sepia@@@Z 1001d370 f i sepia.obj
 0001:0001c3e0       ?Grow@?$CUtlMemory@PAVCShaderParam@Sepia@@H@@QAEXH@Z 1001d3e0 f i sepia.obj
 0001:0001c480       ?GetIndex@sdk_skin_ps20b_Static_Index@@QAEHXZ 1001d480 f i skin_dx9_helper.obj
 0001:0001c480       ?GetIndex@sdk_skin_ps30_Static_Index@@QAEHXZ 1001d480 f i skin_dx9_helper.obj
 0001:0001c4e0       ?InitParamsSkin_DX9@@YAXPAVCBaseVSShader@@PAPAVIMaterialVar@@PBDAAUVertexLitGeneric_DX9_Vars_t@@@Z 1001d4e0 f   skin_dx9_helper.obj
 0001:0001c780       ?InitSkin_DX9@@YAXPAVCBaseVSShader@@PAPAVIMaterialVar@@AAUVertexLitGeneric_DX9_Vars_t@@@Z 1001d780 f   skin_dx9_helper.obj
 0001:0001cb00       ?DrawSkin_DX9_Internal@@YAXPAVCBaseVSShader@@PAPAVIMaterialVar@@PAVIShaderDynamicAPI@@PAVIShaderShadow@@_NAAUVertexLitGeneric_DX9_Vars_t@@W4VertexCompressionType_t@@PAPAVCBasePerMaterialContextData@@@Z 1001db00 f   skin_dx9_helper.obj
 0001:0001e850       ?DrawSkin_DX9@@YAXPAVCBaseVSShader@@PAPAVIMaterialVar@@PAVIShaderDynamicAPI@@PAVIShaderShadow@@AAUVertexLitGeneric_DX9_Vars_t@@W4VertexCompressionType_t@@PAPAVCBasePerMaterialContextData@@@Z 1001f850 f   skin_dx9_helper.obj
 0001:0001e8e0       ??0sdk_spritecard_ps20b_Static_Index@@QAE@XZ 1001f8e0 f i spritecard.obj
 0001:0001e920       ?GetIndex@sdk_spritecard_ps20b_Static_Index@@QAEHXZ 1001f920 f i spritecard.obj
 0001:0001e960       ?OnInitShaderParams@CShader@SDK_Spritecard@@UAEXPAPAVIMaterialVar@@PBD@Z 1001f960 f i spritecard.obj
 0001:0001ecc0       ?GetFallbackShader@CShader@SDK_Spritecard@@UBEPBDPAPAVIMaterialVar@@@Z 1001fcc0 f i spritecard.obj
 0001:0001ece0       ?GetName@CShader@SDK_Spritecard@@UBEPBDXZ 1001fce0 f i spritecard.obj
 0001:0001ecf0       ?GetNumParams@CShader@SDK_Spritecard@@UBEHXZ 1001fcf0 f i spritecard.obj
 0001:0001ed00       ?GetParamName@CShader@SDK_Spritecard@@UBEPBDH@Z 1001fd00 f i spritecard.obj
 0001:0001ed30       ?GetParamHelp@CShader@SDK_Spritecard@@UBEPBDH@Z 1001fd30 f i spritecard.obj
 0001:0001ed70       ?GetParamType@CShader@SDK_Spritecard@@UBE?AW4ShaderParamType_t@@H@Z 1001fd70 f i spritecard.obj
 0001:0001eda0       ?GetParamDefault@CShader@SDK_Spritecard@@UBEPBDH@Z 1001fda0 f i spritecard.obj
 0001:0001ede0       ?GetParamFlags@CShader@SDK_Spritecard@@UBEHH@Z 1001fde0 f i spritecard.obj
 0001:0001ee20       ?OnInitShaderInstance@CShader@SDK_Spritecard@@UAEXPAPAVIMaterialVar@@PAVIShaderInit@@PBD@Z 1001fe20 f i spritecard.obj
 0001:0001eee0       ?OnDrawElements@CShader@SDK_Spritecard@@UAEXPAPAVIMaterialVar@@PAVIShaderShadow@@PAVIShaderDynamicAPI@@W4VertexCompressionType_t@@PAPAVCBasePerMaterialContextData@@@Z 1001fee0 f i spritecard.obj
 0001:0001f650       ??1?$CUtlVector@PAVCShaderParam@SDK_Spritecard@@V?$CUtlMemory@PAVCShaderParam@SDK_Spritecard@@H@@@@QAE@XZ 10020650 f i spritecard.obj
 0001:0001f6c0       ?InsertBefore@?$CUtlVector@PAVCShaderParam@SDK_Spritecard@@V?$CUtlMemory@PAVCShaderParam@SDK_Spritecard@@H@@@@QAEHHABQAVCShaderParam@SDK_Spritecard@@@Z 100206c0 f i spritecard.obj
 0001:0001f730       ?Grow@?$CUtlMemory@PAVCShaderParam@SDK_Spritecard@@H@@QAEXH@Z 10020730 f i spritecard.obj
 0001:0001f7d0       ?GetFallbackShader@CShader@SDK_Teeth@@UBEPBDPAPAVIMaterialVar@@@Z 100207d0 f i teeth.obj
 0001:0001f7e0       ?GetName@CShader@SDK_Teeth@@UBEPBDXZ 100207e0 f i teeth.obj
 0001:0001f7f0       ?GetFlags@CShader@SDK_Teeth@@UBEHXZ 100207f0 f i teeth.obj
 0001:0001f800       ?GetNumParams@CShader@SDK_Teeth@@UBEHXZ 10020800 f i teeth.obj
 0001:0001f810       ?GetParamName@CShader@SDK_Teeth@@UBEPBDH@Z 10020810 f i teeth.obj
 0001:0001f840       ?GetParamHelp@CShader@SDK_Teeth@@UBEPBDH@Z 10020840 f i teeth.obj
 0001:0001f880       ?GetParamType@CShader@SDK_Teeth@@UBE?AW4ShaderParamType_t@@H@Z 10020880 f i teeth.obj
 0001:0001f8b0       ?GetParamDefault@CShader@SDK_Teeth@@UBEPBDH@Z 100208b0 f i teeth.obj
 0001:0001f8f0       ?GetParamFlags@CShader@SDK_Teeth@@UBEHH@Z 100208f0 f i teeth.obj
 0001:0001f930       ??0CShader@SDK_Teeth@@QAE@XZ 10020930 f i teeth.obj
 0001:0001f990       ?OnInitShaderParams@CShader@SDK_Teeth_DX9@@UAEXPAPAVIMaterialVar@@PBD@Z 10020990 f i teeth.obj
 0001:0001fa00       ?GetFallbackShader@CShader@SDK_Teeth_DX9@@UBEPBDPAPAVIMaterialVar@@@Z 10020a00 f i teeth.obj
 0001:0001fa30       ?GetName@CShader@SDK_Teeth_DX9@@UBEPBDXZ 10020a30 f i teeth.obj
 0001:0001fa40       ?GetFlags@CShader@SDK_Teeth_DX9@@UBEHXZ 10020a40 f i teeth.obj
 0001:0001fa50       ?GetNumParams@CShader@SDK_Teeth_DX9@@UBEHXZ 10020a50 f i teeth.obj
 0001:0001fa60       ?GetParamName@CShader@SDK_Teeth_DX9@@UBEPBDH@Z 10020a60 f i teeth.obj
 0001:0001fa90       ?GetParamHelp@CShader@SDK_Teeth_DX9@@UBEPBDH@Z 10020a90 f i teeth.obj
 0001:0001fad0       ?GetParamType@CShader@SDK_Teeth_DX9@@UBE?AW4ShaderParamType_t@@H@Z 10020ad0 f i teeth.obj
 0001:0001fb00       ?GetParamDefault@CShader@SDK_Teeth_DX9@@UBEPBDH@Z 10020b00 f i teeth.obj
 0001:0001fb40       ?GetParamFlags@CShader@SDK_Teeth_DX9@@UBEHH@Z 10020b40 f i teeth.obj
 0001:0001fb80       ?OnInitShaderInstance@CShader@SDK_Teeth_DX9@@UAEXPAPAVIMaterialVar@@PAVIShaderInit@@PBD@Z 10020b80 f i teeth.obj
 0001:0001fc40       ?DrawUsingVertexShader@CShader@SDK_Teeth_DX9@@QAEXPAPAVIMaterialVar@@PAVIShaderDynamicAPI@@PAVIShaderShadow@@W4VertexCompressionType_t@@@Z 10020c40 f i teeth.obj
 0001:00020560       ?DrawFlashlight@CShader@SDK_Teeth_DX9@@QAEXPAPAVIMaterialVar@@PAVIShaderDynamicAPI@@PAVIShaderShadow@@W4VertexCompressionType_t@@@Z 10021560 f i teeth.obj
 0001:00020fa0       ?OnDrawElements@CShader@SDK_Teeth_DX9@@UAEXPAPAVIMaterialVar@@PAVIShaderShadow@@PAVIShaderDynamicAPI@@W4VertexCompressionType_t@@PAPAVCBasePerMaterialContextData@@@Z 10021fa0 f i teeth.obj
 0001:00021040       ??1?$CUtlVector@PAVCShaderParam@SDK_Teeth@@V?$CUtlMemory@PAVCShaderParam@SDK_Teeth@@H@@@@QAE@XZ 10022040 f i teeth.obj
 0001:000210b0       ??1?$CUtlVector@PAVCShaderParam@SDK_Teeth_DX9@@V?$CUtlMemory@PAVCShaderParam@SDK_Teeth_DX9@@H@@@@QAE@XZ 100220b0 f i teeth.obj
 0001:00021120       ?InsertBefore@?$CUtlVector@PAVCShaderParam@SDK_Teeth_DX9@@V?$CUtlMemory@PAVCShaderParam@SDK_Teeth_DX9@@H@@@@QAEHHABQAVCShaderParam@SDK_Teeth_DX9@@@Z 10022120 f i teeth.obj
 0001:00021190       ?Grow@?$CUtlMemory@PAVCShaderParam@SDK_Teeth_DX9@@H@@QAEXH@Z 10022190 f i teeth.obj
 0001:00021230       ?SetupVars@CShader@SDK_UnlitGeneric@@QAEXAAUVertexLitGeneric_DX9_Vars_t@@@Z 10022230 f i unlitgeneric_dx9.obj
 0001:000214b0       ?OnInitShaderParams@CShader@SDK_UnlitGeneric@@UAEXPAPAVIMaterialVar@@PBD@Z 100224b0 f i unlitgeneric_dx9.obj
 0001:00021500       ?GetFallbackShader@CShader@SDK_UnlitGeneric@@UBEPBDPAPAVIMaterialVar@@@Z 10022500 f i unlitgeneric_dx9.obj
 0001:00021520       ?GetName@CShader@SDK_UnlitGeneric@@UBEPBDXZ 10022520 f i unlitgeneric_dx9.obj
 0001:00021530       ?GetFlags@CShader@SDK_UnlitGeneric@@UBEHXZ 10022530 f i unlitgeneric_dx9.obj
 0001:00021540       ?GetNumParams@CShader@SDK_UnlitGeneric@@UBEHXZ 10022540 f i unlitgeneric_dx9.obj
 0001:00021550       ?GetParamName@CShader@SDK_UnlitGeneric@@UBEPBDH@Z 10022550 f i unlitgeneric_dx9.obj
 0001:00021580       ?GetParamHelp@CShader@SDK_UnlitGeneric@@UBEPBDH@Z 10022580 f i unlitgeneric_dx9.obj
 0001:000215c0       ?GetParamType@CShader@SDK_UnlitGeneric@@UBE?AW4ShaderParamType_t@@H@Z 100225c0 f i unlitgeneric_dx9.obj
 0001:000215f0       ?GetParamDefault@CShader@SDK_UnlitGeneric@@UBEPBDH@Z 100225f0 f i unlitgeneric_dx9.obj
 0001:00021630       ?GetParamFlags@CShader@SDK_UnlitGeneric@@UBEHH@Z 10022630 f i unlitgeneric_dx9.obj
 0001:00021670       ?OnInitShaderInstance@CShader@SDK_UnlitGeneric@@UAEXPAPAVIMaterialVar@@PAVIShaderInit@@PBD@Z 10022670 f i unlitgeneric_dx9.obj
 0001:000216b0       ?OnDrawElements@CShader@SDK_UnlitGeneric@@UAEXPAPAVIMaterialVar@@PAVIShaderShadow@@PAVIShaderDynamicAPI@@W4VertexCompressionType_t@@PAPAVCBasePerMaterialContextData@@@Z 100226b0 f i unlitgeneric_dx9.obj
 0001:000217e0       ??1?$CUtlVector@PAVCShaderParam@SDK_UnlitGeneric@@V?$CUtlMemory@PAVCShaderParam@SDK_UnlitGeneric@@H@@@@QAE@XZ 100227e0 f i unlitgeneric_dx9.obj
 0001:00021850       ?InsertBefore@?$CUtlVector@PAVCShaderParam@SDK_UnlitGeneric@@V?$CUtlMemory@PAVCShaderParam@SDK_UnlitGeneric@@H@@@@QAEHHABQAVCShaderParam@SDK_UnlitGeneric@@@Z 10022850 f i unlitgeneric_dx9.obj
 0001:000218c0       ?Grow@?$CUtlMemory@PAVCShaderParam@SDK_UnlitGeneric@@H@@QAEXH@Z 100228c0 f i unlitgeneric_dx9.obj
 0001:00021960       ?GetFallbackShader@CShader@SDK_UnlitTwoTexture@@UBEPBDPAPAVIMaterialVar@@@Z 10022960 f i unlittwotexture_dx9.obj
 0001:00021970       ?GetName@CShader@SDK_UnlitTwoTexture@@UBEPBDXZ 10022970 f i unlittwotexture_dx9.obj
 0001:00021980       ?GetFlags@CShader@SDK_UnlitTwoTexture@@UBEHXZ 10022980 f i unlittwotexture_dx9.obj
 0001:00021990       ?GetNumParams@CShader@SDK_UnlitTwoTexture@@UBEHXZ 10022990 f i unlittwotexture_dx9.obj
 0001:000219a0       ?GetParamName@CShader@SDK_UnlitTwoTexture@@UBEPBDH@Z 100229a0 f i unlittwotexture_dx9.obj
 0001:000219d0       ?GetParamHelp@CShader@SDK_UnlitTwoTexture@@UBEPBDH@Z 100229d0 f i unlittwotexture_dx9.obj
 0001:00021a10       ?GetParamType@CShader@SDK_UnlitTwoTexture@@UBE?AW4ShaderParamType_t@@H@Z 10022a10 f i unlittwotexture_dx9.obj
 0001:00021a40       ?GetParamDefault@CShader@SDK_UnlitTwoTexture@@UBEPBDH@Z 10022a40 f i unlittwotexture_dx9.obj
 0001:00021a80       ?GetParamFlags@CShader@SDK_UnlitTwoTexture@@UBEHH@Z 10022a80 f i unlittwotexture_dx9.obj
 0001:00021ac0       ??0CShader@SDK_UnlitTwoTexture@@QAE@XZ 10022ac0 f i unlittwotexture_dx9.obj
 0001:00021b20       ?GetFallbackShader@CShader@SDK_UnlitTwoTexture_DX9@@UBEPBDPAPAVIMaterialVar@@@Z 10022b20 f i unlittwotexture_dx9.obj
 0001:00021b40       ?NeedsPowerOfTwoFrameBufferTexture@CShader@SDK_UnlitTwoTexture_DX9@@UBE_NPAPAVIMaterialVar@@_N@Z 10022b40 f i unlittwotexture_dx9.obj
 0001:00021ba0       ?IsTranslucent@CShader@SDK_UnlitTwoTexture_DX9@@UBE_NPAPAVIMaterialVar@@@Z 10022ba0 f i unlittwotexture_dx9.obj
 0001:00021bf0       ?OnInitShaderParams@CShader@SDK_UnlitTwoTexture_DX9@@UAEXPAPAVIMaterialVar@@PBD@Z 10022bf0 f i unlittwotexture_dx9.obj
 0001:00021ca0       ?GetName@CShader@SDK_UnlitTwoTexture_DX9@@UBEPBDXZ 10022ca0 f i unlittwotexture_dx9.obj
 0001:00021cb0       ?GetFlags@CShader@SDK_UnlitTwoTexture_DX9@@UBEHXZ 10022cb0 f i unlittwotexture_dx9.obj
 0001:00021cc0       ?GetNumParams@CShader@SDK_UnlitTwoTexture_DX9@@UBEHXZ 10022cc0 f i unlittwotexture_dx9.obj
 0001:00021cd0       ?GetParamName@CShader@SDK_UnlitTwoTexture_DX9@@UBEPBDH@Z 10022cd0 f i unlittwotexture_dx9.obj
 0001:00021d00       ?GetParamHelp@CShader@SDK_UnlitTwoTexture_DX9@@UBEPBDH@Z 10022d00 f i unlittwotexture_dx9.obj
 0001:00021d40       ?GetParamType@CShader@SDK_UnlitTwoTexture_DX9@@UBE?AW4ShaderParamType_t@@H@Z 10022d40 f i unlittwotexture_dx9.obj
 0001:00021d70       ?GetParamDefault@CShader@SDK_UnlitTwoTexture_DX9@@UBEPBDH@Z 10022d70 f i unlittwotexture_dx9.obj
 0001:00021db0       ?GetParamFlags@CShader@SDK_UnlitTwoTexture_DX9@@UBEHH@Z 10022db0 f i unlittwotexture_dx9.obj
 0001:00021df0       ?OnInitShaderInstance@CShader@SDK_UnlitTwoTexture_DX9@@UAEXPAPAVIMaterialVar@@PAVIShaderInit@@PBD@Z 10022df0 f i unlittwotexture_dx9.obj
 0001:00021ef0       ?OnDrawElements@CShader@SDK_UnlitTwoTexture_DX9@@UAEXPAPAVIMaterialVar@@PAVIShaderShadow@@PAVIShaderDynamicAPI@@W4VertexCompressionType_t@@PAPAVCBasePerMaterialContextData@@@Z 10022ef0 f i unlittwotexture_dx9.obj
 0001:00022430       ??1?$CUtlVector@PAVCShaderParam@SDK_UnlitTwoTexture@@V?$CUtlMemory@PAVCShaderParam@SDK_UnlitTwoTexture@@H@@@@QAE@XZ 10023430 f i unlittwotexture_dx9.obj
 0001:000224a0       ??1?$CUtlVector@PAVCShaderParam@SDK_UnlitTwoTexture_DX9@@V?$CUtlMemory@PAVCShaderParam@SDK_UnlitTwoTexture_DX9@@H@@@@QAE@XZ 100234a0 f i unlittwotexture_dx9.obj
 0001:00022510       ?InsertBefore@?$CUtlVector@PAVCShaderParam@SDK_UnlitTwoTexture_DX9@@V?$CUtlMemory@PAVCShaderParam@SDK_UnlitTwoTexture_DX9@@H@@@@QAEHHABQAVCShaderParam@SDK_UnlitTwoTexture_DX9@@@Z 10023510 f i unlittwotexture_dx9.obj
 0001:00022580       ?Grow@?$CUtlMemory@PAVCShaderParam@SDK_UnlitTwoTexture_DX9@@H@@QAEXH@Z 10023580 f i unlittwotexture_dx9.obj
 0001:00022620       ?GetName@CShader@Unsharp@@UBEPBDXZ 10023620 f i unsharp.obj
 0001:00022630       ?GetFlags@CShader@Unsharp@@UBEHXZ 10023630 f i unsharp.obj
 0001:00022640       ?GetNumParams@CShader@Unsharp@@UBEHXZ 10023640 f i unsharp.obj
 0001:00022650       ?GetParamName@CShader@Unsharp@@UBEPBDH@Z 10023650 f i unsharp.obj
 0001:00022680       ?GetParamHelp@CShader@Unsharp@@UBEPBDH@Z 10023680 f i unsharp.obj
 0001:000226c0       ?GetParamType@CShader@Unsharp@@UBE?AW4ShaderParamType_t@@H@Z 100236c0 f i unsharp.obj
 0001:000226f0       ?GetParamDefault@CShader@Unsharp@@UBEPBDH@Z 100236f0 f i unsharp.obj
 0001:00022730       ?GetParamFlags@CShader@Unsharp@@UBEHH@Z 10023730 f i unsharp.obj
 0001:00022770       ?OnInitShaderInstance@CShader@Unsharp@@UAEXPAPAVIMaterialVar@@PAVIShaderInit@@PBD@Z 10023770 f i unsharp.obj
 0001:00022820       ?OnDrawElements@CShader@Unsharp@@UAEXPAPAVIMaterialVar@@PAVIShaderShadow@@PAVIShaderDynamicAPI@@W4VertexCompressionType_t@@PAPAVCBasePerMaterialContextData@@@Z 10023820 f i unsharp.obj
 0001:00022a70       ??1?$CUtlVector@PAVCShaderParam@Unsharp@@V?$CUtlMemory@PAVCShaderParam@Unsharp@@H@@@@QAE@XZ 10023a70 f i unsharp.obj
 0001:00022ae0       ?InsertBefore@?$CUtlVector@PAVCShaderParam@Unsharp@@V?$CUtlMemory@PAVCShaderParam@Unsharp@@H@@@@QAEHHABQAVCShaderParam@Unsharp@@@Z 10023ae0 f i unsharp.obj
 0001:00022b50       ?Grow@?$CUtlMemory@PAVCShaderParam@Unsharp@@H@@QAEXH@Z 10023b50 f i unsharp.obj
 0001:00022bf0       ?GetName@CShader@Unsharp_Blur@@UBEPBDXZ 10023bf0 f i unsharp_blur.obj
 0001:00022c00       ?GetFlags@CShader@Unsharp_Blur@@UBEHXZ 10023c00 f i unsharp_blur.obj
 0001:00022c10       ?GetNumParams@CShader@Unsharp_Blur@@UBEHXZ 10023c10 f i unsharp_blur.obj
 0001:00022c20       ?GetParamName@CShader@Unsharp_Blur@@UBEPBDH@Z 10023c20 f i unsharp_blur.obj
 0001:00022c50       ?GetParamHelp@CShader@Unsharp_Blur@@UBEPBDH@Z 10023c50 f i unsharp_blur.obj
 0001:00022c90       ?GetParamType@CShader@Unsharp_Blur@@UBE?AW4ShaderParamType_t@@H@Z 10023c90 f i unsharp_blur.obj
 0001:00022cc0       ?GetParamDefault@CShader@Unsharp_Blur@@UBEPBDH@Z 10023cc0 f i unsharp_blur.obj
 0001:00022d00       ?GetParamFlags@CShader@Unsharp_Blur@@UBEHH@Z 10023d00 f i unsharp_blur.obj
 0001:00022d40       ?OnInitShaderInstance@CShader@Unsharp_Blur@@UAEXPAPAVIMaterialVar@@PAVIShaderInit@@PBD@Z 10023d40 f i unsharp_blur.obj
 0001:00022da0       ?OnDrawElements@CShader@Unsharp_Blur@@UAEXPAPAVIMaterialVar@@PAVIShaderShadow@@PAVIShaderDynamicAPI@@W4VertexCompressionType_t@@PAPAVCBasePerMaterialContextData@@@Z 10023da0 f i unsharp_blur.obj
 0001:00022f80       ??1?$CUtlVector@PAVCShaderParam@Unsharp_Blur@@V?$CUtlMemory@PAVCShaderParam@Unsharp_Blur@@H@@@@QAE@XZ 10023f80 f i unsharp_blur.obj
 0001:00022ff0       ?InsertBefore@?$CUtlVector@PAVCShaderParam@Unsharp_Blur@@V?$CUtlMemory@PAVCShaderParam@Unsharp_Blur@@H@@@@QAEHHABQAVCShaderParam@Unsharp_Blur@@@Z 10023ff0 f i unsharp_blur.obj
 0001:00023060       ?Grow@?$CUtlMemory@PAVCShaderParam@Unsharp_Blur@@H@@QAEXH@Z 10024060 f i unsharp_blur.obj
 0001:00023100       ?SetupVars@CShader@SDK_VertexLitGeneric@@QAEXAAUVertexLitGeneric_DX9_Vars_t@@@Z 10024100 f i vertexlitgeneric_dx9.obj
 0001:00023360       ?NeedsPowerOfTwoFrameBufferTexture@CShader@SDK_VertexLitGeneric@@UBE_NPAPAVIMaterialVar@@_N@Z 10024360 f i vertexlitgeneric_dx9.obj
 0001:000233c0       ?IsTranslucent@CShader@SDK_VertexLitGeneric@@UBE_NPAPAVIMaterialVar@@@Z 100243c0 f i vertexlitgeneric_dx9.obj
 0001:00023410       ?SetupVarsFleshInteriorBlendedPass@CShader@SDK_VertexLitGeneric@@QAEXAAUFleshInteriorBlendedPassVars_t@@@Z 10024410 f i vertexlitgeneric_dx9.obj
 0001:000234d0       ?OnInitShaderParams@CShader@SDK_VertexLitGeneric@@UAEXPAPAVIMaterialVar@@PBD@Z 100244d0 f i vertexlitgeneric_dx9.obj
 0001:000236c0       ?GetFallbackShader@CShader@SDK_VertexLitGeneric@@UBEPBDPAPAVIMaterialVar@@@Z 100246c0 f i vertexlitgeneric_dx9.obj
 0001:00023720       ?GetName@CShader@SDK_VertexLitGeneric@@UBEPBDXZ 10024720 f i vertexlitgeneric_dx9.obj
 0001:00023730       ?GetFlags@CShader@SDK_VertexLitGeneric@@UBEHXZ 10024730 f i vertexlitgeneric_dx9.obj
 0001:00023740       ?GetNumParams@CShader@SDK_VertexLitGeneric@@UBEHXZ 10024740 f i vertexlitgeneric_dx9.obj
 0001:00023750       ?GetParamName@CShader@SDK_VertexLitGeneric@@UBEPBDH@Z 10024750 f i vertexlitgeneric_dx9.obj
 0001:00023780       ?GetParamHelp@CShader@SDK_VertexLitGeneric@@UBEPBDH@Z 10024780 f i vertexlitgeneric_dx9.obj
 0001:000237c0       ?GetParamType@CShader@SDK_VertexLitGeneric@@UBE?AW4ShaderParamType_t@@H@Z 100247c0 f i vertexlitgeneric_dx9.obj
 0001:000237f0       ?GetParamDefault@CShader@SDK_VertexLitGeneric@@UBEPBDH@Z 100247f0 f i vertexlitgeneric_dx9.obj
 0001:00023830       ?GetParamFlags@CShader@SDK_VertexLitGeneric@@UBEHH@Z 10024830 f i vertexlitgeneric_dx9.obj
 0001:00023870       ?OnInitShaderInstance@CShader@SDK_VertexLitGeneric@@UAEXPAPAVIMaterialVar@@PAVIShaderInit@@PBD@Z 10024870 f i vertexlitgeneric_dx9.obj
 0001:000239b0       ?OnDrawElements@CShader@SDK_VertexLitGeneric@@UAEXPAPAVIMaterialVar@@PAVIShaderShadow@@PAVIShaderDynamicAPI@@W4VertexCompressionType_t@@PAPAVCBasePerMaterialContextData@@@Z 100249b0 f i vertexlitgeneric_dx9.obj
 0001:00023c40       ??1?$CUtlVector@PAVCShaderParam@SDK_VertexLitGeneric@@V?$CUtlMemory@PAVCShaderParam@SDK_VertexLitGeneric@@H@@@@QAE@XZ 10024c40 f i vertexlitgeneric_dx9.obj
 0001:00023cb0       ?InsertBefore@?$CUtlVector@PAVCShaderParam@SDK_VertexLitGeneric@@V?$CUtlMemory@PAVCShaderParam@SDK_VertexLitGeneric@@H@@@@QAEHHABQAVCShaderParam@SDK_VertexLitGeneric@@@Z 10024cb0 f i vertexlitgeneric_dx9.obj
 0001:00023d20       ?Grow@?$CUtlMemory@PAVCShaderParam@SDK_VertexLitGeneric@@H@@QAEXH@Z 10024d20 f i vertexlitgeneric_dx9.obj
 0001:00023dc0       ?GetIndex@sdk_vertexlit_and_unlit_generic_ps20_Static_Index@@QAEHXZ 10024dc0 f i vertexlitgeneric_dx9_helper.obj
 0001:00023e30       ??0sdk_vertexlit_and_unlit_generic_ps20b_Static_Index@@QAE@XZ 10024e30 f i vertexlitgeneric_dx9_helper.obj
 0001:00023e30       ??0sdk_vertexlit_and_unlit_generic_ps30_Static_Index@@QAE@XZ 10024e30 f i vertexlitgeneric_dx9_helper.obj
 0001:00023e70       ?GetIndex@sdk_vertexlit_and_unlit_generic_bump_ps20_Static_Index@@QAEHXZ 10024e70 f i vertexlitgeneric_dx9_helper.obj
 0001:00023ec0       ?GetIndex@sdk_vertexlit_and_unlit_generic_bump_ps20b_Static_Index@@QAEHXZ 10024ec0 f i vertexlitgeneric_dx9_helper.obj
 0001:00023ec0       ?GetIndex@sdk_vertexlit_and_unlit_generic_bump_ps30_Static_Index@@QAEHXZ 10024ec0 f i vertexlitgeneric_dx9_helper.obj
 0001:00023f10       ?GetIndex@sdk_vertexlit_and_unlit_generic_vs30_Dynamic_Index@@QAEHXZ 10024f10 f i vertexlitgeneric_dx9_helper.obj
 0001:00023f40       ?GetIndex@sdk_vertexlit_and_unlit_generic_ps20b_Static_Index@@QAEHXZ 10024f40 f i vertexlitgeneric_dx9_helper.obj
 0001:00023f40       ?GetIndex@sdk_vertexlit_and_unlit_generic_ps30_Static_Index@@QAEHXZ 10024f40 f i vertexlitgeneric_dx9_helper.obj
 0001:00024020       ?InitParamsVertexLitGeneric_DX9@@YAXPAVCBaseVSShader@@PAPAVIMaterialVar@@PBD_NAAUVertexLitGeneric_DX9_Vars_t@@@Z 10025020 f   vertexlitgeneric_dx9_helper.obj
 0001:00024730       ?InitVertexLitGeneric_DX9@@YAXPAVCBaseVSShader@@PAPAVIMaterialVar@@_NAAUVertexLitGeneric_DX9_Vars_t@@@Z 10025730 f   vertexlitgeneric_dx9_helper.obj
 0001:000277e0       ??_ECSkin_DX9_Context@@UAEPAXI@Z 100287e0 f i  CIL library: CIL module
 0001:000277e0       ??_GCVertexLitGeneric_DX9_Context@@UAEPAXI@Z 100287e0 f i vertexlitgeneric_dx9_helper.obj
 0001:000277e0       ??_GCSkin_DX9_Context@@UAEPAXI@Z 100287e0 f i skin_dx9_helper.obj
 0001:000277e0       ??_ECBasePerMaterialContextData@@UAEPAXI@Z 100287e0 f i  CIL library: CIL module
 0001:000277e0       ??_ECVertexLitGeneric_DX9_Context@@UAEPAXI@Z 100287e0 f i  CIL library: CIL module
 0001:000277e0       ??_GCBasePerMaterialContextData@@UAEPAXI@Z 100287e0 f i lightmappedadv_helper.obj
 0001:00027810       ?DrawVertexLitGeneric_DX9@@YAXPAVCBaseVSShader@@PAPAVIMaterialVar@@PAVIShaderDynamicAPI@@PAVIShaderShadow@@_NAAUVertexLitGeneric_DX9_Vars_t@@W4VertexCompressionType_t@@PAPAVCBasePerMaterialContextData@@@Z 10028810 f   vertexlitgeneric_dx9_helper.obj
 0001:000278c0       ?SetPixelShaderConstantGammaToLinear@?$CCommandBufferBuilder@V?$CFixedCommandStorageBuffer@$0DCA@@@@@QAEXHH@Z 100288c0 f i vertexlitgeneric_dx9_helper.obj
 0001:000279c0       ?SetVertexShaderTextureTransform@?$CCommandBufferBuilder@V?$CFixedCommandStorageBuffer@$0DCA@@@@@QAEXHH@Z 100289c0 f i vertexlitgeneric_dx9_helper.obj
 0001:00027ac0       ?SetVertexShaderTextureScaledTransform@?$CCommandBufferBuilder@V?$CFixedCommandStorageBuffer@$0DCA@@@@@QAEXHHH@Z 10028ac0 f i vertexlitgeneric_dx9_helper.obj
 0001:00027c70       ?GetName@CShader@Vignetting@@UBEPBDXZ 10028c70 f i vignetting.obj
 0001:00027c80       ?GetFlags@CShader@Vignetting@@UBEHXZ 10028c80 f i vignetting.obj
 0001:00027c90       ?GetNumParams@CShader@Vignetting@@UBEHXZ 10028c90 f i vignetting.obj
 0001:00027ca0       ?GetParamName@CShader@Vignetting@@UBEPBDH@Z 10028ca0 f i vignetting.obj
 0001:00027cd0       ?GetParamHelp@CShader@Vignetting@@UBEPBDH@Z 10028cd0 f i vignetting.obj
 0001:00027d10       ?GetParamType@CShader@Vignetting@@UBE?AW4ShaderParamType_t@@H@Z 10028d10 f i vignetting.obj
 0001:00027d40       ?GetParamDefault@CShader@Vignetting@@UBEPBDH@Z 10028d40 f i vignetting.obj
 0001:00027d80       ?GetParamFlags@CShader@Vignetting@@UBEHH@Z 10028d80 f i vignetting.obj
 0001:00027dc0       ?OnInitShaderInstance@CShader@Vignetting@@UAEXPAPAVIMaterialVar@@PAVIShaderInit@@PBD@Z 10028dc0 f i vignetting.obj
 0001:00027e20       ?OnDrawElements@CShader@Vignetting@@UAEXPAPAVIMaterialVar@@PAVIShaderShadow@@PAVIShaderDynamicAPI@@W4VertexCompressionType_t@@PAPAVCBasePerMaterialContextData@@@Z 10028e20 f i vignetting.obj
 0001:00027fa0       ??1?$CUtlVector@PAVCShaderParam@Vignetting@@V?$CUtlMemory@PAVCShaderParam@Vignetting@@H@@@@QAE@XZ 10028fa0 f i vignetting.obj
 0001:00028010       ?InsertBefore@?$CUtlVector@PAVCShaderParam@Vignetting@@V?$CUtlMemory@PAVCShaderParam@Vignetting@@H@@@@QAEHHABQAVCShaderParam@Vignetting@@@Z 10029010 f i vignetting.obj
 0001:00028080       ?Grow@?$CUtlMemory@PAVCShaderParam@Vignetting@@H@@QAEXH@Z 10029080 f i vignetting.obj
 0001:00028120       ?GetFallbackShader@CShader@SDK_VortWarp@@UBEPBDPAPAVIMaterialVar@@@Z 10029120 f i vortwarp_dx9.obj
 0001:00028130       ?GetName@CShader@SDK_VortWarp@@UBEPBDXZ 10029130 f i vortwarp_dx9.obj
 0001:00028140       ?GetFlags@CShader@SDK_VortWarp@@UBEHXZ 10029140 f i vortwarp_dx9.obj
 0001:00028150       ?GetNumParams@CShader@SDK_VortWarp@@UBEHXZ 10029150 f i vortwarp_dx9.obj
 0001:00028160       ?GetParamName@CShader@SDK_VortWarp@@UBEPBDH@Z 10029160 f i vortwarp_dx9.obj
 0001:00028190       ?GetParamHelp@CShader@SDK_VortWarp@@UBEPBDH@Z 10029190 f i vortwarp_dx9.obj
 0001:000281d0       ?GetParamType@CShader@SDK_VortWarp@@UBE?AW4ShaderParamType_t@@H@Z 100291d0 f i vortwarp_dx9.obj
 0001:00028200       ?GetParamDefault@CShader@SDK_VortWarp@@UBEPBDH@Z 10029200 f i vortwarp_dx9.obj
 0001:00028240       ?GetParamFlags@CShader@SDK_VortWarp@@UBEHH@Z 10029240 f i vortwarp_dx9.obj
 0001:00028280       ??0CShader@SDK_VortWarp@@QAE@XZ 10029280 f i vortwarp_dx9.obj
 0001:000282e0       ?DrawVortWarp_DX9@@YAXPAVCBaseVSShader@@PAPAVIMaterialVar@@PAVIShaderDynamicAPI@@PAVIShaderShadow@@_N4AAUVortWarp_DX9_Vars_t@@W4VertexCompressionType_t@@@Z 100292e0 f   vortwarp_dx9.obj
 0001:000292c0       ?SetupVars@CShader@SDK_VortWarp_DX9@@QAEXAAUVortWarp_DX9_Vars_t@@@Z 1002a2c0 f i vortwarp_dx9.obj
 0001:00029420       ?OnInitShaderParams@CShader@SDK_VortWarp_DX9@@UAEXPAPAVIMaterialVar@@PBD@Z 1002a420 f i vortwarp_dx9.obj
 0001:00029500       ?GetFallbackShader@CShader@SDK_VortWarp_DX9@@UBEPBDPAPAVIMaterialVar@@@Z 1002a500 f i vortwarp_dx9.obj
 0001:00029520       ?GetName@CShader@SDK_VortWarp_DX9@@UBEPBDXZ 1002a520 f i vortwarp_dx9.obj
 0001:00029530       ?GetFlags@CShader@SDK_VortWarp_DX9@@UBEHXZ 1002a530 f i vortwarp_dx9.obj
 0001:00029540       ?GetNumParams@CShader@SDK_VortWarp_DX9@@UBEHXZ 1002a540 f i vortwarp_dx9.obj
 0001:00029550       ?GetParamName@CShader@SDK_VortWarp_DX9@@UBEPBDH@Z 1002a550 f i vortwarp_dx9.obj
 0001:00029580       ?GetParamHelp@CShader@SDK_VortWarp_DX9@@UBEPBDH@Z 1002a580 f i vortwarp_dx9.obj
 0001:000295c0       ?GetParamType@CShader@SDK_VortWarp_DX9@@UBE?AW4ShaderParamType_t@@H@Z 1002a5c0 f i vortwarp_dx9.obj
 0001:000295f0       ?GetParamDefault@CShader@SDK_VortWarp_DX9@@UBEPBDH@Z 1002a5f0 f i vortwarp_dx9.obj
 0001:00029630       ?GetParamFlags@CShader@SDK_VortWarp_DX9@@UBEHH@Z 1002a630 f i vortwarp_dx9.obj
 0001:00029670       ?OnInitShaderInstance@CShader@SDK_VortWarp_DX9@@UAEXPAPAVIMaterialVar@@PAVIShaderInit@@PBD@Z 1002a670 f i vortwarp_dx9.obj
 0001:00029760       ?OnDrawElements@CShader@SDK_VortWarp_DX9@@UAEXPAPAVIMaterialVar@@PAVIShaderShadow@@PAVIShaderDynamicAPI@@W4VertexCompressionType_t@@PAPAVCBasePerMaterialContextData@@@Z 1002a760 f i vortwarp_dx9.obj
 0001:00029820       ??1?$CUtlVector@PAVCShaderParam@SDK_VortWarp@@V?$CUtlMemory@PAVCShaderParam@SDK_VortWarp@@H@@@@QAE@XZ 1002a820 f i vortwarp_dx9.obj
 0001:00029890       ??1?$CUtlVector@PAVCShaderParam@SDK_VortWarp_DX9@@V?$CUtlMemory@PAVCShaderParam@SDK_VortWarp_DX9@@H@@@@QAE@XZ 1002a890 f i vortwarp_dx9.obj
 0001:00029900       ?InsertBefore@?$CUtlVector@PAVCShaderParam@SDK_VortWarp_DX9@@V?$CUtlMemory@PAVCShaderParam@SDK_VortWarp_DX9@@H@@@@QAEHHABQAVCShaderParam@SDK_VortWarp_DX9@@@Z 1002a900 f i vortwarp_dx9.obj
 0001:00029970       ?Grow@?$CUtlMemory@PAVCShaderParam@SDK_VortWarp_DX9@@H@@QAEXH@Z 1002a970 f i vortwarp_dx9.obj
 0001:00029a10       ?GetFallbackShader@CShader@SDK_Water@@UBEPBDPAPAVIMaterialVar@@@Z 1002aa10 f i water.obj
 0001:00029a20       ?GetName@CShader@SDK_Water@@UBEPBDXZ 1002aa20 f i water.obj
 0001:00029a30       ?GetFlags@CShader@SDK_Water@@UBEHXZ 1002aa30 f i water.obj
 0001:00029a40       ?GetNumParams@CShader@SDK_Water@@UBEHXZ 1002aa40 f i water.obj
 0001:00029a50       ?GetParamName@CShader@SDK_Water@@UBEPBDH@Z 1002aa50 f i water.obj
 0001:00029a80       ?GetParamHelp@CShader@SDK_Water@@UBEPBDH@Z 1002aa80 f i water.obj
 0001:00029ac0       ?GetParamType@CShader@SDK_Water@@UBE?AW4ShaderParamType_t@@H@Z 1002aac0 f i water.obj
 0001:00029af0       ?GetParamDefault@CShader@SDK_Water@@UBEPBDH@Z 1002aaf0 f i water.obj
 0001:00029b30       ?GetParamFlags@CShader@SDK_Water@@UBEHH@Z 1002ab30 f i water.obj
 0001:00029b70       ??0CShader@SDK_Water@@QAE@XZ 1002ab70 f i water.obj
 0001:00029bd0       ?OnInitShaderParams@CShader@SDK_Water_DX90@@UAEXPAPAVIMaterialVar@@PBD@Z 1002abd0 f i water.obj
 0001:00029ef0       ?GetFallbackShader@CShader@SDK_Water_DX90@@UBEPBDPAPAVIMaterialVar@@@Z 1002aef0 f i water.obj
 0001:00029f10       ?GetName@CShader@SDK_Water_DX90@@UBEPBDXZ 1002af10 f i water.obj
 0001:00029f20       ?GetFlags@CShader@SDK_Water_DX90@@UBEHXZ 1002af20 f i water.obj
 0001:00029f30       ?GetNumParams@CShader@SDK_Water_DX90@@UBEHXZ 1002af30 f i water.obj
 0001:00029f40       ?GetParamName@CShader@SDK_Water_DX90@@UBEPBDH@Z 1002af40 f i water.obj
 0001:00029f70       ?GetParamHelp@CShader@SDK_Water_DX90@@UBEPBDH@Z 1002af70 f i water.obj
 0001:00029fb0       ?GetParamType@CShader@SDK_Water_DX90@@UBE?AW4ShaderParamType_t@@H@Z 1002afb0 f i water.obj
 0001:00029fe0       ?GetParamDefault@CShader@SDK_Water_DX90@@UBEPBDH@Z 1002afe0 f i water.obj
 0001:0002a020       ?GetParamFlags@CShader@SDK_Water_DX90@@UBEHH@Z 1002b020 f i water.obj
 0001:0002a060       ?OnInitShaderInstance@CShader@SDK_Water_DX90@@UAEXPAPAVIMaterialVar@@PAVIShaderInit@@PBD@Z 1002b060 f i water.obj
 0001:0002a2e0       ?DrawReflectionRefraction@CShader@SDK_Water_DX90@@QAEXPAPAVIMaterialVar@@PAVIShaderShadow@@PAVIShaderDynamicAPI@@_N3@Z 1002b2e0 f i water.obj
 0001:0002ae20       ?DrawCheapWater@CShader@SDK_Water_DX90@@QAEXPAPAVIMaterialVar@@PAVIShaderShadow@@PAVIShaderDynamicAPI@@_N3@Z 1002be20 f i water.obj
 0001:0002b4c0       ?OnDrawElements@CShader@SDK_Water_DX90@@UAEXPAPAVIMaterialVar@@PAVIShaderShadow@@PAVIShaderDynamicAPI@@W4VertexCompressionType_t@@PAPAVCBasePerMaterialContextData@@@Z 1002c4c0 f i water.obj
 0001:0002b5f0       ?GetName@CShader@SDK_Water_DX9_HDR@SDK_Water_DX90@@UBEPBDXZ 1002c5f0 f i water.obj
 0001:0002b600       ?GetFlags@CShader@SDK_Water_DX9_HDR@SDK_Water_DX90@@UBEHXZ 1002c600 f i water.obj
 0001:0002b610       ?GetFallbackShader@CShader@SDK_Water_DX9_HDR@SDK_Water_DX90@@UBEPBDPAPAVIMaterialVar@@@Z 1002c610 f i water.obj
 0001:0002b630       ??1?$CUtlVector@PAVCShaderParam@SDK_Water@@V?$CUtlMemory@PAVCShaderParam@SDK_Water@@H@@@@QAE@XZ 1002c630 f i water.obj
 0001:0002b6a0       ??1?$CUtlVector@PAVCShaderParam@SDK_Water_DX90@@V?$CUtlMemory@PAVCShaderParam@SDK_Water_DX90@@H@@@@QAE@XZ 1002c6a0 f i water.obj
 0001:0002b710       ?InsertBefore@?$CUtlVector@PAVCShaderParam@SDK_Water_DX90@@V?$CUtlMemory@PAVCShaderParam@SDK_Water_DX90@@H@@@@QAEHHABQAVCShaderParam@SDK_Water_DX90@@@Z 1002c710 f i water.obj
 0001:0002b780       ?Grow@?$CUtlMemory@PAVCShaderParam@SDK_Water_DX90@@H@@QAEXH@Z 1002c780 f i water.obj
 0001:0002b820       ?GetFallbackShader@CShader@SDK_WorldTwoTextureBlend@@UBEPBDPAPAVIMaterialVar@@@Z 1002c820 f i worldtwotextureblend.obj
 0001:0002b860       ?OnInitShaderParams@CShader@SDK_WorldTwoTextureBlend@@UAEXPAPAVIMaterialVar@@PBD@Z 1002c860 f i worldtwotextureblend.obj
 0001:0002bae0       ?GetName@CShader@SDK_WorldTwoTextureBlend@@UBEPBDXZ 1002cae0 f i worldtwotextureblend.obj
 0001:0002baf0       ?GetFlags@CShader@SDK_WorldTwoTextureBlend@@UBEHXZ 1002caf0 f i worldtwotextureblend.obj
 0001:0002bb00       ?GetNumParams@CShader@SDK_WorldTwoTextureBlend@@UBEHXZ 1002cb00 f i worldtwotextureblend.obj
 0001:0002bb10       ?GetParamName@CShader@SDK_WorldTwoTextureBlend@@UBEPBDH@Z 1002cb10 f i worldtwotextureblend.obj
 0001:0002bb40       ?GetParamHelp@CShader@SDK_WorldTwoTextureBlend@@UBEPBDH@Z 1002cb40 f i worldtwotextureblend.obj
 0001:0002bb80       ?GetParamType@CShader@SDK_WorldTwoTextureBlend@@UBE?AW4ShaderParamType_t@@H@Z 1002cb80 f i worldtwotextureblend.obj
 0001:0002bbb0       ?GetParamDefault@CShader@SDK_WorldTwoTextureBlend@@UBEPBDH@Z 1002cbb0 f i worldtwotextureblend.obj
 0001:0002bbf0       ?GetParamFlags@CShader@SDK_WorldTwoTextureBlend@@UBEHH@Z 1002cbf0 f i worldtwotextureblend.obj
 0001:0002bc30       ?OnInitShaderInstance@CShader@SDK_WorldTwoTextureBlend@@UAEXPAPAVIMaterialVar@@PAVIShaderInit@@PBD@Z 1002cc30 f i worldtwotextureblend.obj
 0001:0002bdf0       ?DrawPass@CShader@SDK_WorldTwoTextureBlend@@QAEXPAPAVIMaterialVar@@PAVIShaderDynamicAPI@@PAVIShaderShadow@@_NW4VertexCompressionType_t@@@Z 1002cdf0 f i worldtwotextureblend.obj
 0001:0002c850       ?OnDrawElements@CShader@SDK_WorldTwoTextureBlend@@UAEXPAPAVIMaterialVar@@PAVIShaderShadow@@PAVIShaderDynamicAPI@@W4VertexCompressionType_t@@PAPAVCBasePerMaterialContextData@@@Z 1002d850 f i worldtwotextureblend.obj
 0001:0002c8d0       ??1?$CUtlVector@PAVCShaderParam@SDK_WorldTwoTextureBlend@@V?$CUtlMemory@PAVCShaderParam@SDK_WorldTwoTextureBlend@@H@@@@QAE@XZ 1002d8d0 f i worldtwotextureblend.obj
 0001:0002c940       ?InsertBefore@?$CUtlVector@PAVCShaderParam@SDK_WorldTwoTextureBlend@@V?$CUtlMemory@PAVCShaderParam@SDK_WorldTwoTextureBlend@@H@@@@QAEHHABQAVCShaderParam@SDK_WorldTwoTextureBlend@@@Z 1002d940 f i worldtwotextureblend.obj
 0001:0002c9b0       ?Grow@?$CUtlMemory@PAVCShaderParam@SDK_WorldTwoTextureBlend@@H@@QAEXH@Z 1002d9b0 f i worldtwotextureblend.obj
 0001:0002ca50       ??0sdk_worldvertexalpha_ps20b_Static_Index@@QAE@XZ 1002da50 f i worldvertexalpha.obj
 0001:0002ca70       ?OnInitShaderParams@CShader@SDK_WorldVertexAlpha@@UAEXPAPAVIMaterialVar@@PBD@Z 1002da70 f i worldvertexalpha.obj
 0001:0002caa0       ?GetName@CShader@SDK_WorldVertexAlpha@@UBEPBDXZ 1002daa0 f i worldvertexalpha.obj
 0001:0002cab0       ?GetFlags@CShader@SDK_WorldVertexAlpha@@UBEHXZ 1002dab0 f i worldvertexalpha.obj
 0001:0002cac0       ?GetNumParams@CShader@SDK_WorldVertexAlpha@@UBEHXZ 1002dac0 f i worldvertexalpha.obj
 0001:0002cad0       ?GetParamName@CShader@SDK_WorldVertexAlpha@@UBEPBDH@Z 1002dad0 f i worldvertexalpha.obj
 0001:0002cb00       ?GetParamHelp@CShader@SDK_WorldVertexAlpha@@UBEPBDH@Z 1002db00 f i worldvertexalpha.obj
 0001:0002cb40       ?GetParamType@CShader@SDK_WorldVertexAlpha@@UBE?AW4ShaderParamType_t@@H@Z 1002db40 f i worldvertexalpha.obj
 0001:0002cb70       ?GetParamDefault@CShader@SDK_WorldVertexAlpha@@UBEPBDH@Z 1002db70 f i worldvertexalpha.obj
 0001:0002cbb0       ?GetParamFlags@CShader@SDK_WorldVertexAlpha@@UBEHH@Z 1002dbb0 f i worldvertexalpha.obj
 0001:0002cbf0       ?OnInitShaderInstance@CShader@SDK_WorldVertexAlpha@@UAEXPAPAVIMaterialVar@@PAVIShaderInit@@PBD@Z 1002dbf0 f i worldvertexalpha.obj
 0001:0002cc30       ?GetFallbackShader@CShader@SDK_WorldVertexAlpha@@UBEPBDPAPAVIMaterialVar@@@Z 1002dc30 f i worldvertexalpha.obj
 0001:0002cc40       ?OnDrawElements@CShader@SDK_WorldVertexAlpha@@UAEXPAPAVIMaterialVar@@PAVIShaderShadow@@PAVIShaderDynamicAPI@@W4VertexCompressionType_t@@PAPAVCBasePerMaterialContextData@@@Z 1002dc40 f i worldvertexalpha.obj
 0001:0002d1b0       ??1?$CUtlVector@PAVCShaderParam@SDK_WorldVertexAlpha@@V?$CUtlMemory@PAVCShaderParam@SDK_WorldVertexAlpha@@H@@@@QAE@XZ 1002e1b0 f i worldvertexalpha.obj
 0001:0002d220       ?GetFallbackShader@CShader@SDK_WorldVertexTransition@@UBEPBDPAPAVIMaterialVar@@@Z 1002e220 f i worldvertextransition.obj
 0001:0002d230       ?GetName@CShader@SDK_WorldVertexTransition@@UBEPBDXZ 1002e230 f i worldvertextransition.obj
 0001:0002d240       ?GetFlags@CShader@SDK_WorldVertexTransition@@UBEHXZ 1002e240 f i worldvertextransition.obj
 0001:0002d250       ?GetNumParams@CShader@SDK_WorldVertexTransition@@UBEHXZ 1002e250 f i worldvertextransition.obj
 0001:0002d260       ?GetParamName@CShader@SDK_WorldVertexTransition@@UBEPBDH@Z 1002e260 f i worldvertextransition.obj
 0001:0002d290       ?GetParamHelp@CShader@SDK_WorldVertexTransition@@UBEPBDH@Z 1002e290 f i worldvertextransition.obj
 0001:0002d2d0       ?GetParamType@CShader@SDK_WorldVertexTransition@@UBE?AW4ShaderParamType_t@@H@Z 1002e2d0 f i worldvertextransition.obj
 0001:0002d300       ?GetParamDefault@CShader@SDK_WorldVertexTransition@@UBEPBDH@Z 1002e300 f i worldvertextransition.obj
 0001:0002d340       ?GetParamFlags@CShader@SDK_WorldVertexTransition@@UBEHH@Z 1002e340 f i worldvertextransition.obj
 0001:0002d380       ??0CShader@SDK_WorldVertexTransition@@QAE@XZ 1002e380 f i worldvertextransition.obj
 0001:0002d3e0       ?SetupVars@CShader@SDK_WorldVertexTransition_DX9@@QAEXAAULightmappedGeneric_DX9_Vars_t@@@Z 1002e3e0 f i worldvertextransition.obj
 0001:0002d5c0       ?GetFallbackShader@CShader@SDK_WorldVertexTransition_DX9@@UBEPBDPAPAVIMaterialVar@@@Z 1002e5c0 f i worldvertextransition.obj
 0001:0002d5e0       ?OnInitShaderParams@CShader@SDK_WorldVertexTransition_DX9@@UAEXPAPAVIMaterialVar@@PBD@Z 1002e5e0 f i worldvertextransition.obj
 0001:0002d600       ?GetName@CShader@SDK_WorldVertexTransition_DX9@@UBEPBDXZ 1002e600 f i worldvertextransition.obj
 0001:0002d610       ?GetFlags@CShader@SDK_WorldVertexTransition_DX9@@UBEHXZ 1002e610 f i worldvertextransition.obj
 0001:0002d620       ?GetNumParams@CShader@SDK_WorldVertexTransition_DX9@@UBEHXZ 1002e620 f i worldvertextransition.obj
 0001:0002d630       ?GetParamName@CShader@SDK_WorldVertexTransition_DX9@@UBEPBDH@Z 1002e630 f i worldvertextransition.obj
 0001:0002d660       ?GetParamHelp@CShader@SDK_WorldVertexTransition_DX9@@UBEPBDH@Z 1002e660 f i worldvertextransition.obj
 0001:0002d6a0       ?GetParamType@CShader@SDK_WorldVertexTransition_DX9@@UBE?AW4ShaderParamType_t@@H@Z 1002e6a0 f i worldvertextransition.obj
 0001:0002d6d0       ?GetParamDefault@CShader@SDK_WorldVertexTransition_DX9@@UBEPBDH@Z 1002e6d0 f i worldvertextransition.obj
 0001:0002d710       ?GetParamFlags@CShader@SDK_WorldVertexTransition_DX9@@UBEHH@Z 1002e710 f i worldvertextransition.obj
 0001:0002d750       ?OnInitShaderInstance@CShader@SDK_WorldVertexTransition_DX9@@UAEXPAPAVIMaterialVar@@PAVIShaderInit@@PBD@Z 1002e750 f i worldvertextransition.obj
 0001:0002d770       ?OnDrawElements@CShader@SDK_WorldVertexTransition_DX9@@UAEXPAPAVIMaterialVar@@PAVIShaderShadow@@PAVIShaderDynamicAPI@@W4VertexCompressionType_t@@PAPAVCBasePerMaterialContextData@@@Z 1002e770 f i worldvertextransition.obj
 0001:0002d870       ??1?$CUtlVector@PAVCShaderParam@SDK_WorldVertexTransition@@V?$CUtlMemory@PAVCShaderParam@SDK_WorldVertexTransition@@H@@@@QAE@XZ 1002e870 f i worldvertextransition.obj
 0001:0002d8e0       ??1?$CUtlVector@PAVCShaderParam@SDK_WorldVertexTransition_DX9@@V?$CUtlMemory@PAVCShaderParam@SDK_WorldVertexTransition_DX9@@H@@@@QAE@XZ 1002e8e0 f i worldvertextransition.obj
 0001:0002d950       ?InsertBefore@?$CUtlVector@PAVCShaderParam@SDK_WorldVertexTransition_DX9@@V?$CUtlMemory@PAVCShaderParam@SDK_WorldVertexTransition_DX9@@H@@@@QAEHHABQAVCShaderParam@SDK_WorldVertexTransition_DX9@@@Z 1002e950 f i worldvertextransition.obj
 0001:0002d9c0       ?Grow@?$CUtlMemory@PAVCShaderParam@SDK_WorldVertexTransition_DX9@@H@@QAEXH@Z 1002e9c0 f i worldvertextransition.obj
 0001:0002da60       ?DrawWorldVertexTransitionEditor_DX8@@YAXPAVCBaseVSShader@@PAPAVIMaterialVar@@PAVIShaderDynamicAPI@@PAVIShaderShadow@@AAUWorldVertexTransitionEditor_DX8_Vars_t@@@Z 1002ea60 f   worldvertextransition_dx8_helper.obj
 0001:0002e460       ?MD5Update@@YAXPAUMD5Context_t@@PBEI@Z 1002f460 f   checksum_md5.obj
 0001:0002e530       ?MD5Final@@YAXQAEPAUMD5Context_t@@@Z 1002f530 f   checksum_md5.obj
 0001:0002e5c0       _DllMain@12                1002f5c0 f   shader_dll_verify.obj
 0001:0002e5e0       __ftol3                    1002f5e0 f   shader_dll_verify.obj
 0001:0002e5f0       ?Function1@CShaderDLLVerification@@UAEKPAE@Z 1002f5f0 f   shader_dll_verify.obj
 0001:0002eb30       ?Function2@CShaderDLLVerification@@UAEXHHH@Z 1002fb30 f   shader_dll_verify.obj
 0001:0002eb90       ?Function5@CShaderDLLVerification@@UAEKXZ 1002fb90 f   shader_dll_verify.obj
 0001:0002eba0       ?GetNumParams@CBaseShader@@UBEHXZ 1002fba0 f   shaderlib:BaseShader.obj
 0001:0002ebb0       ?GetParamName@CBaseShader@@UBEPBDH@Z 1002fbb0 f   shaderlib:BaseShader.obj
 0001:0002ebd0       ?GetParamHelp@CBaseShader@@UBEPBDH@Z 1002fbd0 f   shaderlib:BaseShader.obj
 0001:0002ebf0       ?GetParamType@CBaseShader@@UBE?AW4ShaderParamType_t@@H@Z 1002fbf0 f   shaderlib:BaseShader.obj
 0001:0002ec10       ?GetParamDefault@CBaseShader@@UBEPBDH@Z 1002fc10 f   shaderlib:BaseShader.obj
 0001:0002ec30       ?GetParamFlags@CBaseShader@@UBEHH@Z 1002fc30 f   shaderlib:BaseShader.obj
 0001:0002ec50       ?InitShaderParams@CBaseShader@@UAEXPAPAVIMaterialVar@@PBD@Z 1002fc50 f   shaderlib:BaseShader.obj
 0001:0002ec80       ?InitShaderInstance@CBaseShader@@UAEXPAPAVIMaterialVar@@PAVIShaderInit@@PBD2@Z 1002fc80 f   shaderlib:BaseShader.obj
 0001:0002ecd0       ?DrawElements@CBaseShader@@UAEXPAPAVIMaterialVar@@HPAVIShaderShadow@@PAVIShaderDynamicAPI@@W4VertexCompressionType_t@@PAPAVCBasePerMaterialContextData@@@Z 1002fcd0 f   shaderlib:BaseShader.obj
 0001:0002ed70       ?SetInitialShadowState@CBaseShader@@QAEXXZ 1002fd70 f   shaderlib:BaseShader.obj
 0001:0002ee40       ?Draw@CBaseShader@@QAEX_N@Z 1002fe40 f   shaderlib:BaseShader.obj
 0001:0002eea0       ?LoadTexture@CBaseShader@@QAEXH@Z 1002fea0 f   shaderlib:BaseShader.obj
 0001:0002eee0       ?LoadBumpMap@CBaseShader@@QAEXH@Z 1002fee0 f   shaderlib:BaseShader.obj
 0001:0002ef20       ?LoadCubeMap@CBaseShader@@QAEXH@Z 1002ff20 f   shaderlib:BaseShader.obj
 0001:0002ef60       ?GetShaderAPITextureBindHandle@CBaseShader@@QAEHHHH@Z 1002ff60 f   shaderlib:BaseShader.obj
 0001:0002efb0       ?BindTexture@CBaseShader@@QAEXW4Sampler_t@@HH@Z 1002ffb0 f   shaderlib:BaseShader.obj
 0001:0002f000       ?BindTexture@CBaseShader@@QAEXW4Sampler_t@@PAVITexture@@H@Z 10030000 f   shaderlib:BaseShader.obj
 0001:0002f020       ?TextureIsTranslucent@CBaseShader@@QAE_NH_N@Z 10030020 f   shaderlib:BaseShader.obj
 0001:0002f080       ?ComputeModulationFlags@CBaseShader@@UAEHPAPAVIMaterialVar@@PAVIShaderDynamicAPI@@@Z 10030080 f   shaderlib:BaseShader.obj
 0001:0002f210       ?NeedsPowerOfTwoFrameBufferTexture@CBaseShader@@UBE_NPAPAVIMaterialVar@@_N@Z 10030210 f   shaderlib:BaseShader.obj
 0001:0002f230       ?NeedsFullFrameBufferTexture@CBaseShader@@UBE_NPAPAVIMaterialVar@@_N@Z 10030230 f   shaderlib:BaseShader.obj
 0001:0002f250       ?IsTranslucent@CBaseShader@@UBE_NPAPAVIMaterialVar@@@Z 10030250 f   shaderlib:BaseShader.obj
 0001:0002f270       ?SetColorState@CBaseShader@@QAEXH_N@Z 10030270 f   shaderlib:BaseShader.obj
 0001:0002f4d0       ?ComputeModulationColor@CBaseShader@@QAEXPAM@Z 100304d0 f   shaderlib:BaseShader.obj
 0001:0002f620       ?EnableAlphaBlending@CBaseShader@@QAEXW4ShaderBlendFactor_t@@0@Z 10030620 f   shaderlib:BaseShader.obj
 0001:0002f660       ?SetNormalBlendingShadowState@CBaseShader@@QAEXH_N@Z 10030660 f   shaderlib:BaseShader.obj
 0001:0002f740       ?SetAdditiveBlendingShadowState@CBaseShader@@QAEXH_N@Z 10030740 f   shaderlib:BaseShader.obj
 0001:0002f810       ?SetFixedFunctionTextureScale@CBaseShader@@QAEXW4MaterialMatrixMode_t@@H@Z 10030810 f   shaderlib:BaseShader.obj
 0001:0002f8f0       ?SetFixedFunctionTextureTransform@CBaseShader@@QAEXW4MaterialMatrixMode_t@@H@Z 100308f0 f   shaderlib:BaseShader.obj
 0001:0002f9f0       ?SetFixedFunctionTextureScaledTransform@CBaseShader@@QAEXW4MaterialMatrixMode_t@@HH@Z 100309f0 f   shaderlib:BaseShader.obj
 0001:0002fb70       ?FogToFogColor@CBaseShader@@QAEXXZ 10030b70 f   shaderlib:BaseShader.obj
 0001:0002fba0       ?DefaultFog@CBaseShader@@QAEXXZ 10030ba0 f   shaderlib:BaseShader.obj
 0001:0002fbe0       ?FixedFunctionMultiplyByDetailPass@CBaseShader@@QAEXHHHHH@Z 10030be0 f   shaderlib:BaseShader.obj
 0001:0002fee0       ?FixedFunctionMultiplyByLightmapPass@CBaseShader@@QAEXHHHM@Z 10030ee0 f   shaderlib:BaseShader.obj
 0001:00030200       ?FixedFunctionBaseTimesDetailPass@CBaseShader@@QAEXHHHHH@Z 10031200 f   shaderlib:BaseShader.obj
 0001:000304e0       ?SetShadowEnvMappingState@CBaseShader@@QAEHHH@Z 100314e0 f   shaderlib:BaseShader.obj
 0001:000306d0       ?SetDynamicEnvMappingState@CBaseShader@@QAEXHHHHHHHHH@Z 100316d0 f   shaderlib:BaseShader.obj
 0001:00030830       ?FixedFunctionAdditiveMaskedEnvmapPass@CBaseShader@@QAEXHHHHHHHHH@Z 10031830 f   shaderlib:BaseShader.obj
 0001:00030920       ?IsHDREnabled@CBaseShader@@QAE_NXZ 10031920 f   shaderlib:BaseShader.obj
 0001:00030970       ?GetShaderDLLInternal@@YAPAVIShaderDLLInternal@@XZ 10031970 f   shaderlib:ShaderDLL.obj
 0001:000309a0       ??0CShaderDLL@@QAE@XZ      100319a0 f   shaderlib:ShaderDLL.obj
 0001:000309f0       ?Connect@CShaderDLL@@UAE_NP6APAXPBDPAH@Z_N@Z 100319f0 f   shaderlib:ShaderDLL.obj
 0001:00030a80       ?Disconnect@CShaderDLL@@UAEX_N@Z 10031a80 f   shaderlib:ShaderDLL.obj
 0001:00030ac0       ?Connect@CShaderDLL@@UAE_NP6APAXPBDPAH@Z@Z 10031ac0 f   shaderlib:ShaderDLL.obj
 0001:00030ae0       ?Disconnect@CShaderDLL@@UAEXXZ 10031ae0 f   shaderlib:ShaderDLL.obj
 0001:00030af0       ?ShaderCount@CShaderDLL@@UBEHXZ 10031af0 f   shaderlib:ShaderDLL.obj
 0001:00030b00       ?GetShader@CShaderDLL@@UAEPAVIShader@@H@Z 10031b00 f   shaderlib:ShaderDLL.obj
 0001:00030b20       ?InsertShader@CShaderDLL@@UAEXPAVIShader@@@Z 10031b20 f   shaderlib:ShaderDLL.obj
 0001:00030b80       ?Grow@?$CUtlMemory@PAVIShader@@H@@QAEXH@Z 10031b80 f i shaderlib:ShaderDLL.obj
 0001:00030c20       ?RegisterConCommandBase@CShaderLibConVarAccessor@@UAE_NPAVConCommandBase@@@Z 10031c20 f i shaderlib:shaderlib_cvar.obj
 0001:00030c80       _cosf                      10031c80 f i mathlib:vmatrix.obj
 0001:00030c90       ?SinCos@@YAXMPAM0@Z        10031c90 f i mathlib:vmatrix.obj
 0001:00030cb0       ??4VMatrix@@QAEAAV0@ABV0@@Z 10031cb0 f   mathlib:vmatrix.obj
 0001:00030d20       ?MatrixMul@VMatrix@@QBEXABV1@AAV1@@Z 10031d20 f   mathlib:vmatrix.obj
 0001:00030f80       ??DVMatrix@@QBE?AV0@ABV0@@Z 10031f80 f   mathlib:vmatrix.obj
 0001:00030fa0       ?MatrixTranspose@@YAXABVVMatrix@@AAV1@@Z 10031fa0 f   mathlib:vmatrix.obj
 0001:00031060       ?MatrixMultiply@@YAXABVVMatrix@@0AAV1@@Z 10032060 f   mathlib:vmatrix.obj
 0001:000312d0       ?Transpose3x3@VMatrix@@QBE?AV1@XZ 100322d0 f   mathlib:vmatrix.obj
 0001:00031340       ?GammaToLinear@@YAMM@Z     10032340 f   mathlib:color_conversion.obj
 0001:00031390       ?BuildGammaTable@@YAXMMMH@Z 10032390 f   mathlib:color_conversion.obj
 0001:00031630       ?_sqrtf@@YAMM@Z            10032630 f   mathlib:mathlib_base.obj
 0001:00031640       ?_rsqrtf@@YAMM@Z           10032640 f   mathlib:mathlib_base.obj
 0001:00031650       ?_VectorNormalize@@YIMAAVVector@@@Z 10032650 f   mathlib:mathlib_base.obj
 0001:00031690       ?_VectorNormalizeFast@@YIXAAVVector@@@Z 10032690 f   mathlib:mathlib_base.obj
 0001:000316d0       ?_InvRSquared@@YAMPBM@Z    100326d0 f   mathlib:mathlib_base.obj
 0001:00031710       ?InitSinCosTable@@YAXXZ    10032710 f   mathlib:mathlib_base.obj
 0001:00031760       ?MathLib_Init@@YAXMMMH_N000@Z 10032760 f   mathlib:mathlib_base.obj
 0001:00031900       ?_SSE_Sqrt@@YAMM@Z         10032900 f   mathlib:sse.obj
 0001:00031920       ?_SSE_RSqrtAccurate@@YAMM@Z 10032920 f   mathlib:sse.obj
 0001:00031970       ?_SSE_RSqrtFast@@YAMM@Z    10032970 f   mathlib:sse.obj
 0001:00031990       ?_SSE_VectorNormalizeFast@@YIXAAVVector@@@Z 10032990 f   mathlib:sse.obj
 0001:00031a20       ?_SSE_InvRSquared@@YAMPBM@Z 10032a20 f   mathlib:sse.obj
 0001:00031a70       ?_SSE_SinCos@@YAXMPAM0@Z   10032a70 f   mathlib:sse.obj
 0001:00031bb0       ?_SSE_cos@@YAMM@Z          10032bb0 f   mathlib:sse.obj
 0001:00031c80       ?_SSE2_SinCos@@YAXMPAM0@Z  10032c80 f   mathlib:sse.obj
 0001:00031da0       ?_SSE2_cos@@YAMM@Z         10032da0 f   mathlib:sse.obj
 0001:00031e70       ?_3DNow_Sqrt@@YAMM@Z       10032e70 f   mathlib:3dnow.obj
 0001:00031ea0       ?_3DNow_RSqrt@@YAMM@Z      10032ea0 f   mathlib:3dnow.obj
 0001:00031ec0       ?_3DNow_VectorNormalize@@YIMAAVVector@@@Z 10032ec0 f   mathlib:3dnow.obj
 0001:00031f50       ?_3DNow_VectorNormalizeFast@@YIXAAVVector@@@Z 10032f50 f   mathlib:3dnow.obj
 0001:00031f60       ?_3DNow_InvRSquared@@YAMPBM@Z 10032f60 f   mathlib:3dnow.obj
 0001:00031fa0       ?ConVar_Register@@YAXHPAVIConCommandBaseAccessor@@@Z 10032fa0 f   tier1:convar.obj
 0001:00032030       ?ConVar_Unregister@@YAXXZ  10033030 f   tier1:convar.obj
 0001:00032070       ?IsCommand@ConCommandBase@@UBE_NXZ 10033070 f   tier1:convar.obj
 0001:00032070       ?IsCommand@ConCommand@@UBE_NXZ 10033070 f   tier1:convar.obj
 0001:00032080       ?GetDLLIdentifier@ConCommandBase@@UBEHXZ 10033080 f   tier1:convar.obj
 0001:00032090       ?Create@ConCommandBase@@MAEXPBD0H@Z 10033090 f   tier1:convar.obj
 0001:000320e0       ?Init@ConCommandBase@@MAEXXZ 100330e0 f   tier1:convar.obj
 0001:000320e0       ?Init@ConVar@@EAEXXZ       100330e0 f   tier1:convar.obj
 0001:00032100       ?GetName@ConCommandBase@@UBEPBDXZ 10033100 f   tier1:convar.obj
 0001:00032110       ?IsFlagSet@ConCommandBase@@UBE_NH@Z 10033110 f   tier1:convar.obj
 0001:00032120       ?AddFlags@ConCommandBase@@UAEXH@Z 10033120 f   tier1:convar.obj
 0001:00032130       ?GetHelpText@ConCommandBase@@UBEPBDXZ 10033130 f   tier1:convar.obj
 0001:00032140       ?IsRegistered@ConCommandBase@@UBE_NXZ 10033140 f   tier1:convar.obj
 0001:00032150       ?DefaultCompletionFunc@@YAHPBDQAY0EA@D@Z 10033150 f   tier1:convar.obj
 0001:00032160       ??0ConCommand@@QAE@PBDP6AXXZ0HP6AH0QAY0EA@D@Z@Z 10033160 f   tier1:convar.obj
 0001:00032200       ??1ConCommand@@UAE@XZ      10033200 f   tier1:convar.obj
 0001:00032210       ?Dispatch@ConCommand@@UAEXABVCCommand@@@Z 10033210 f   tier1:convar.obj
 0001:00032250       ?CanAutoComplete@ConCommand@@UAE_NXZ 10033250 f   tier1:convar.obj
 0001:00032260       ??1ConVar@@UAE@XZ          10033260 f   tier1:convar.obj
 0001:00032290       ?IsFlagSet@ConVar@@UBE_NH@Z 10033290 f   tier1:convar.obj
 0001:000322b0       ?GetHelpText@ConVar@@UBEPBDXZ 100332b0 f   tier1:convar.obj
 0001:000322c0       ?AddFlags@ConVar@@UAEXH@Z  100332c0 f   tier1:convar.obj
 0001:000322d0       ?IsRegistered@ConVar@@UBE_NXZ 100332d0 f   tier1:convar.obj
 0001:000322e0       ?GetName@ConVar@@UBEPBDXZ  100332e0 f   tier1:convar.obj
 0001:000322f0       ?IsCommand@ConVar@@UBE_NXZ 100332f0 f   tier1:convar.obj
 0001:00032300       ?InternalSetValue@ConVar@@EAEXPBD@Z 10033300 f   tier1:convar.obj
 0001:00032390       ?ChangeStringValue@ConVar@@EAEXPBDM@Z 10033390 f   tier1:convar.obj
 0001:00032440       ?ClampValue@ConVar@@EAE_NAAM@Z 10033440 f   tier1:convar.obj
 0001:00032490       ?InternalSetFloatValue@ConVar@@EAEXM@Z 10033490 f   tier1:convar.obj
 0001:00032520       ?InternalSetIntValue@ConVar@@EAEXH@Z 10033520 f   tier1:convar.obj
 0001:000325a0       ?Create@ConVar@@EAEXPBD0H0_NM1MP6AXPAVIConVar@@0M@Z@Z 100335a0 f   tier1:convar.obj
 0001:00032670       ?SetValue@ConVar@@UAEXPBD@Z 10033670 f   tier1:convar.obj
 0001:00032680       ?SetValue@ConVar@@UAEXM@Z  10033680 f   tier1:convar.obj
 0001:000326a0       ?SetValue@ConVar@@UAEXH@Z  100336a0 f   tier1:convar.obj
 0001:000326b0       ?IsFlagSet@ConVar@@WBI@BE_NH@Z 100336b0 f i tier1:convar.obj
 0001:000326c0       ?GetName@ConVar@@WBI@BEPBDXZ 100336c0 f i tier1:convar.obj
 0001:000326d0       ?RegisterConCommandBase@CDefaultAccessor@@UAE_NPAVConCommandBase@@@Z 100336d0 f i tier1:convar.obj
 0001:000326f0       ??_EConCommandBase@@UAEPAXI@Z 100336f0 f i tier1:convar.obj
 0001:000326f0       ??_GConCommand@@UAEPAXI@Z  100336f0 f i tier1:convar.obj
 0001:000326f0       ??_EConCommand@@UAEPAXI@Z  100336f0 f i tier1:convar.obj
 0001:000326f0       ??_GConCommandBase@@UAEPAXI@Z 100336f0 f i tier1:convar.obj
 0001:00032720       ??0ConVar@@QAE@PBD0H@Z     10033720 f   tier1:convar.obj
 0001:00032780       ??_GConVar@@UAEPAXI@Z      10033780 f i tier1:convar.obj
 0001:00032780       ??_GCEmptyConVar@@UAEPAXI@Z 10033780 f i tier1:convar.obj
 0001:00032780       ??_ECEmptyConVar@@UAEPAXI@Z 10033780 f i tier1:convar.obj
 0001:00032780       ??_EConVar@@UAEPAXI@Z      10033780 f i tier1:convar.obj
 0001:000327d0       ??0ConVar@@QAE@PBD0H0@Z    100337d0 f   tier1:convar.obj
 0001:00032830       ??0CEmptyConVar@@QAE@XZ    10033830 f i tier1:convar.obj
 0001:00032900       ?SetValue@CEmptyConVar@@UAEXPBD@Z 10033900 f i tier1:convar.obj
 0001:00032900       ?SetValue@CEmptyConVar@@UAEXM@Z 10033900 f i tier1:convar.obj
 0001:00032900       ?SetValue@CEmptyConVar@@UAEXH@Z 10033900 f i tier1:convar.obj
 0001:00032910       ?GetName@CEmptyConVar@@UBEPBDXZ 10033910 f i tier1:convar.obj
 0001:00032920       ?IsFlagSet@CEmptyConVar@@UBE_NH@Z 10033920 f i tier1:convar.obj
 0001:00032930       ?GetName@CEmptyConVar@@WBI@BEPBDXZ 10033930 f i tier1:convar.obj
 0001:00032940       ?IsFlagSet@CEmptyConVar@@WBI@BE_NH@Z 10033940 f i tier1:convar.obj
 0001:00032950       ?Grow@?$CUtlMemory@VCUtlString@@H@@QAEXH@Z 10033950 f i tier1:convar.obj
 0001:00032a00       ?AutoCompleteSuggest@ConCommand@@UAEHPBDAAV?$CUtlVector@VCUtlString@@V?$CUtlMemory@VCUtlString@@H@@@@@Z 10033a00 f   tier1:convar.obj
 0001:00032b20       ?V_snprintf@@YAHPADHPBDZZ  10033b20 f   tier1:strtools.obj
 0001:00032b70       ?ConnectTier1Libraries@@YAXPAP6APAXPBDPAH@ZH@Z 10033b70 f   tier1:tier1.obj
 0001:00032be0       ?DisconnectTier1Libraries@@YAXXZ 10033be0 f   tier1:tier1.obj
 0001:00032c00       ??0InterfaceReg@@QAE@P6APAXXZPBD@Z 10033c00 f   tier1:interface.obj
 0001:00032c30       _CreateInterface           10033c30 f   tier1:interface.obj
 0001:00032ca0       ?Grow@?$CUtlMemory@EH@@QAEXH@Z 10033ca0 f i tier1:utlstring.obj
 0001:00032d50       ?Set@CUtlBinaryBlock@@QAEXPBXH@Z 10033d50 f   tier1:utlstring.obj
 0001:00032dd0       ??0CUtlString@@QAE@PBD@Z   10033dd0 f   tier1:utlstring.obj
 0001:00032e30       ??0CUtlString@@QAE@ABV0@@Z 10033e30 f   tier1:utlstring.obj
 0001:00032ea0       ?FindConversion@CUtlCStringConversion@@UAEDPBDPAH@Z 10033ea0 f   tier1:utlbuffer.obj
 0001:00032ec0       ??0CUtlCharConversion@@QAE@DPBDHPAUConversionArray_t@0@@Z 10033ec0 f   tier1:utlbuffer.obj
 0001:00032f60       ?FindConversion@CUtlCharConversion@@UAEDPBDPAH@Z 10033f60 f   tier1:utlbuffer.obj
 0001:00032fe0       ?FindConversion@CUtlNoEscConversion@@UAEDPBDPAH@Z 10033fe0 f i tier1:utlbuffer.obj
 0001:00033000       _memmove                   10034000 f   LIBCMT:memmove.obj
 0001:00033417       ___onexitinit              10034417 f   LIBCMT:onexit.obj
 0001:00033448       __onexit                   10034448 f   LIBCMT:onexit.obj
 0001:00033484       _atexit                    10034484 f   LIBCMT:onexit.obj
 0001:0003349b       __purecall                 1003449b f   LIBCMT:purevirt.obj
 0001:000334c5       ??1type_info@@UAE@XZ       100344c5 f   LIBCMT:typinfo.obj
 0001:000334d5       ??_Gtype_info@@UAEPAXI@Z   100344d5 f i LIBCMT:typinfo.obj
 0001:000334d5       ??_Etype_info@@UAEPAXI@Z   100344d5 f i LIBCMT:typinfo.obj
 0001:000334f6       ??3@YAXPAX@Z               100344f6 f   LIBCMT:delete.obj
 0001:00033501       ??1bad_alloc@std@@UAE@XZ   10034501 f i LIBCMT:new.obj
 0001:0003350c       ??_Gbad_alloc@std@@UAEPAXI@Z 1003450c f i LIBCMT:new.obj
 0001:0003350c       ??_Ebad_alloc@std@@UAEPAXI@Z 1003450c f i LIBCMT:new.obj
 0001:00033533       ??0bad_alloc@std@@QAE@ABV01@@Z 10034533 f i LIBCMT:new.obj
 0001:00033550       ??2@YAPAXI@Z               10034550 f   LIBCMT:new.obj
 0001:000335d0       __CRT_INIT@12              100345d0 f   LIBCMT:dllcrt0.obj
 0001:0003382a       __DllMainCRTStartup@12     1003482a f   LIBCMT:dllcrt0.obj
 0001:0003384d       __cfltcvt_init             1003484d f   LIBCMT:_fpinit_.obj
 0001:000338ad       __fpmath                   100348ad f   LIBCMT:_fpinit_.obj
 0001:000338d0       _acos                      100348d0 f   LIBCMT:_acos_.obj
 0001:00033910       __CIacos                   10034910 f   LIBCMT:_acos_.obj
 0001:0003394b       __CIacos_default           1003494b f   LIBCMT:_acos_.obj
 0001:0003395f       __acos_default             1003495f     LIBCMT:_acos_.obj
 0001:00033a20       _memset                    10034a20 f   LIBCMT:memset.obj
 0001:00033aa0       _floor                     10034aa0 f   LIBCMT:_floor_pentium4_.obj
 0001:00033ae0       __floor_pentium4           10034ae0 f   LIBCMT:_floor_pentium4_.obj
 0001:00033bd0       _pow                       10034bd0 f   LIBCMT:_pow_.obj
 0001:00033c10       __CIpow                    10034c10 f   LIBCMT:_pow_.obj
 0001:00033c4b       __CIpow_default            10034c4b f   LIBCMT:_pow_.obj
 0001:00033c64       __pow_default              10034c64     LIBCMT:_pow_.obj
 0001:00033e60       __ftol2_sse                10034e60 f   LIBCMT:ftol2.obj
 0001:00033e69       __ftol2_pentium4           10034e69 f   LIBCMT:ftol2.obj
 0001:00033e7c       __ftol2_sse_excpt          10034e7c f   LIBCMT:ftol2.obj
 0001:00033e96       __ftol2                    10034e96 f   LIBCMT:ftol2.obj
 0001:00033f10       _asin                      10034f10 f   LIBCMT:_asin_.obj
 0001:00033f50       __CIasin                   10034f50 f   LIBCMT:_asin_.obj
 0001:00033f8b       __CIasin_default           10034f8b f   LIBCMT:_asin_.obj
 0001:00033f9f       __asin_default             10034f9f     LIBCMT:_asin_.obj
 0001:00034060       _fmod                      10035060 f   LIBCMT:_87fmod_.obj
 0001:0003406a       __CIfmod                   1003506a f   LIBCMT:_87fmod_.obj
 0001:00034090       __alloca_probe_16          10035090 f   LIBCMT:alloca16.obj
 0001:000340a6       __alloca_probe_8           100350a6     LIBCMT:alloca16.obj
 0001:000340bc       ??0_LocaleUpdate@@QAE@PAUlocaleinfo_struct@@@Z 100350bc f i LIBCMT:atof.obj
 0001:00034143       __atof_l                   10035143 f   LIBCMT:atof.obj
 0001:000341ee       _atof                      100351ee f   LIBCMT:atof.obj
 0001:00034210       _memcpy                    10035210 f   LIBCMT:memcpy.obj
 0001:00034590       _strchr                    10035590 f   LIBCMT:strchr.obj
 0001:00034596       ___from_strstr_to_strchr   10035596     LIBCMT:strchr.obj
 0001:00034650       __chkstk                   10035650 f   LIBCMT:chkstk.obj
 0001:00034650       __alloca_probe             10035650     LIBCMT:chkstk.obj
 0001:00034680       _strstr                    10035680 f   LIBCMT:strstr.obj
 0001:00034706       __tolower_l                10035706 f   LIBCMT:tolower.obj
 0001:0003481b       _tolower                   1003581b f   LIBCMT:tolower.obj
 0001:00034850       _strncat                   10035850 f   LIBCMT:strncat.obj
 0001:00034990       _strncpy                   10035990 f   LIBCMT:strncpy.obj
 0001:00034ab4       __vsnprintf_l              10035ab4 f   LIBCMT:vsnprint.obj
 0001:00034b60       __vsnprintf                10035b60 f   LIBCMT:vsnprint.obj
 0001:00034b80       __allmul                   10035b80 f   LIBCMT:llmul.obj
 0001:00034bc0       __allrem                   10035bc0 f   LIBCMT:llrem.obj
 0001:00034c80       __alldiv                   10035c80 f   LIBCMT:lldiv.obj
 0001:00034d2a       __isdigit_l                10035d2a f i LIBCMT:_ctype.obj
 0001:00034d7b       _isdigit                   10035d7b f i LIBCMT:_ctype.obj
 0001:00034da9       __VEC_memcpy               10035da9 f   LIBCMT:p4_memcpy.obj
 0001:00034eac       ___sse2_available_init     10035eac f   LIBCMT:cpu_disp.obj
 0001:00034ebc       __malloc_crt               10035ebc f   LIBCMT:crtheap.obj
 0001:00034f01       __calloc_crt               10035f01 f   LIBCMT:crtheap.obj
 0001:00034f4d       __realloc_crt              10035f4d f   LIBCMT:crtheap.obj
 0001:00034f9b       __msize                    10035f9b f   LIBCMT:msize.obj
 0001:00034fce       ___crtCorExitProcess       10035fce f   LIBCMT:crt0dat.obj
 0001:00034ff9       ___crtExitProcess          10035ff9 f   LIBCMT:crt0dat.obj
 0001:00035011       __lockexit                 10036011 f   LIBCMT:crt0dat.obj
 0001:0003501a       __unlockexit               1003601a f   LIBCMT:crt0dat.obj
 0001:00035023       __init_pointers            10036023 f   LIBCMT:crt0dat.obj
 0001:00035056       __initterm_e               10036056 f   LIBCMT:crt0dat.obj
 0001:0003507a       __cinit                    1003607a f   LIBCMT:crt0dat.obj
 0001:00035251       __exit                     10036251 f   LIBCMT:crt0dat.obj
 0001:00035267       __cexit                    10036267 f   LIBCMT:crt0dat.obj
 0001:00035276       __amsg_exit                10036276 f   LIBCMT:crt0dat.obj
 0001:000352a0       __SEH_prolog4              100362a0 f   LIBCMT:sehprolg4.obj
 0001:000352e5       __SEH_epilog4              100362e5 f   LIBCMT:sehprolg4.obj
 0001:00035300       __except_handler4          10036300 f   LIBCMT:chandler4.obj
 0001:0003548f       _abort                     1003648f f   LIBCMT:abort.obj
 0001:000354c2       __set_abort_behavior       100364c2 f   LIBCMT:abort.obj
 0001:000354e3       __GET_RTERRMSG             100364e3 f   LIBCMT:crt0msg.obj
 0001:00035509       __NMSG_WRITE               10036509 f   LIBCMT:crt0msg.obj
 0001:000356b8       __FF_MSGBANNER             100366b8 f   LIBCMT:crt0msg.obj
 0001:000356f1       __initp_misc_purevirt      100366f1 f   LIBCMT:inithelp.obj
 0001:00035700       ?_Type_info_dtor@type_info@@CAXPAV1@@Z 10036700 f   LIBCMT:typname.obj
 0001:00035770       _strcmp                    10036770 f   LIBCMT:strcmp.obj
 0001:000357f8       _free                      100367f8 f   LIBCMT:free.obj
 0001:00035832       ??0exception@std@@QAE@ABQBDH@Z 10036832 f   LIBCMT:stdexcpt.obj
 0001:0003584f       ?what@exception@std@@UBEPBDXZ 1003684f f   LIBCMT:stdexcpt.obj
 0001:0003585c       ?_Copy_str@exception@std@@AAEXPBD@Z 1003685c f   LIBCMT:stdexcpt.obj
 0001:0003589c       ?_Tidy@exception@std@@AAEXXZ 1003689c f   LIBCMT:stdexcpt.obj
 0001:000358ba       ??4exception@std@@QAEAAV01@ABV01@@Z 100368ba f   LIBCMT:stdexcpt.obj
 0001:000358ef       ??1exception@std@@UAE@XZ   100368ef f   LIBCMT:stdexcpt.obj
 0001:000358fa       ??_Eexception@std@@UAEPAXI@Z 100368fa f i LIBCMT:stdexcpt.obj
 0001:000358fa       ??_Gexception@std@@UAEPAXI@Z 100368fa f i LIBCMT:stdexcpt.obj
 0001:00035921       ??0exception@std@@QAE@ABV01@@Z 10036921 f   LIBCMT:stdexcpt.obj
 0001:00035946       _malloc                    10036946 f   LIBCMT:malloc.obj
 0001:000359da       __initp_heap_handler       100369da f   LIBCMT:handler.obj
 0001:000359e9       __callnewh                 100369e9 f   LIBCMT:handler.obj
 0001:00035a11       __CxxThrowException@8      10036a11 f   LIBCMT:throw.obj
 0001:00035a5d       __encoded_null             10036a5d f   LIBCMT:tidtable.obj
 0001:00035a66       ___crtTlsAlloc@4           10036a66 f   LIBCMT:tidtable.obj
 0001:00035a6f       ___set_flsgetvalue         10036a6f f   LIBCMT:tidtable.obj
 0001:00035aa3       __mtterm                   10036aa3 f   LIBCMT:tidtable.obj
 0001:00035ae0       __initptd                  10036ae0 f   LIBCMT:tidtable.obj
 0001:00035b94       __getptd_noexit            10036b94 f   LIBCMT:tidtable.obj
 0001:00035c0d       __getptd                   10036c0d f   LIBCMT:tidtable.obj
 0001:00035c27       __freefls@4                10036c27 f   LIBCMT:tidtable.obj
 0001:00035d56       __freeptd                  10036d56 f   LIBCMT:tidtable.obj
 0001:00035dc4       __mtinit                   10036dc4 f   LIBCMT:tidtable.obj
 0001:00035f3f       __ioinit                   10036f3f f   LIBCMT:ioinit.obj
 0001:00036184       __ioterm                   10037184 f   LIBCMT:ioinit.obj
 0001:000361d7       __setenvp                  100371d7 f   LIBCMT:stdenvp.obj
 0001:0003644d       __setargv                  1003744d f   LIBCMT:stdargv.obj
 0001:00036508       ___crtGetEnvironmentStringsA 10037508 f   LIBCMT:a_env.obj
 0001:0003659f       __RTC_Initialize           1003759f f   LIBCMT:_initsect_.obj
 0001:000365c5       __RTC_Terminate            100375c5 f   LIBCMT:_initsect_.obj
 0001:000365eb       __heap_init                100375eb f   LIBCMT:heapinit.obj
 0001:00036609       __heap_term                10037609 f   LIBCMT:heapinit.obj
 0001:0003661d       __XcptFilter               1003761d f   LIBCMT:winxfltr.obj
 0001:00036767       ___CppXcptFilter           10037767 f   LIBCMT:winxfltr.obj
 0001:00036787       ___security_init_cookie    10037787 f   LIBCMT:gs_support.obj
 0001:00036822       __forcdecpt_l              10037822 f   LIBCMT:cvt.obj
 0001:00036896       __cropzeros_l              10037896 f   LIBCMT:cvt.obj
 0001:00036918       __positive                 10037918 f   LIBCMT:cvt.obj
 0001:00036934       __fassign_l                10037934 f   LIBCMT:cvt.obj
 0001:00036976       __fassign                  10037976 f   LIBCMT:cvt.obj
 0001:000369af       __forcdecpt                100379af f   LIBCMT:cvt.obj
 0001:000369c2       __cropzeros                100379c2 f   LIBCMT:cvt.obj
 0001:00036b36       __cftoe_l                  10037b36 f   LIBCMT:cvt.obj
 0001:00036bfd       __cftoe                    10037bfd f   LIBCMT:cvt.obj
 0001:00036c1d       __cftoa_l                  10037c1d f   LIBCMT:cvt.obj
 0001:00037096       __cftof_l                  10038096 f   LIBCMT:cvt.obj
 0001:00037157       __cftog_l                  10038157 f   LIBCMT:cvt.obj
 0001:00037244       __cfltcvt_l                10038244 f   LIBCMT:cvt.obj
 0001:000372cc       __cfltcvt                  100382cc f   LIBCMT:cvt.obj
 0001:000372ef       __initp_misc_cfltcvt_tab   100382ef f   LIBCMT:cmiscdat.obj
 0001:00037312       __setdefaultprecision      10038312 f   LIBCMT:fp8.obj
 0001:0003733a       __sse2_mathfcns_init       1003833a f   LIBCMT:_mathfcns_.obj
 0001:00037350       __CIacos_pentium4          10038350 f   LIBCMT:_acos_pentium4_.obj
 0001:00037368       __acos_pentium4            10038368     LIBCMT:_acos_pentium4_.obj
 0001:000378b0       __trandisp1                100388b0 f   LIBCMT:_87disp_.obj
 0001:00037917       __trandisp2                10038917 f   LIBCMT:_87disp_.obj
 0001:000379a3       __rttospopde               100389a3     LIBCMT:_87disp_.obj
 0001:000379a8       __rttospop                 100389a8     LIBCMT:_87disp_.obj
 0001:000379aa       __rtnospop                 100389aa     LIBCMT:_87disp_.obj
 0001:000379ac       __rttosnpop                100389ac     LIBCMT:_87disp_.obj
 0001:000379ad       __rtnospopde               100389ad     LIBCMT:_87disp_.obj
 0001:000379b4       __rtzeropop                100389b4     LIBCMT:_87disp_.obj
 0001:000379b6       __rtzeronpop               100389b6     LIBCMT:_87disp_.obj
 0001:000379bb       __rtonepop                 100389bb     LIBCMT:_87disp_.obj
 0001:000379bd       __rtonenpop                100389bd     LIBCMT:_87disp_.obj
 0001:000379c2       __tosnan1                  100389c2     LIBCMT:_87disp_.obj
 0001:000379ed       __nosnan2                  100389ed     LIBCMT:_87disp_.obj
 0001:000379ef       __tosnan2                  100389ef     LIBCMT:_87disp_.obj
 0001:00037a17       __nan2                     10038a17     LIBCMT:_87disp_.obj
 0001:00037a56       __rtindfpop                10038a56     LIBCMT:_87disp_.obj
 0001:00037a58       __rtindfnpop               10038a58     LIBCMT:_87disp_.obj
 0001:00037a69       __rttosnpopde              10038a69     LIBCMT:_87disp_.obj
 0001:00037a73       __rtchsifneg               10038a73     LIBCMT:_87disp_.obj
 0001:00037a80       __startTwoArgErrorHandling 10038a80 f   LIBCMT:_genexcep_.obj
 0001:00037a97       __startOneArgErrorHandling 10038a97 f   LIBCMT:_genexcep_.obj
 0001:00037ae0       __twoToTOS                 10038ae0 f   LIBCMT:_common_.obj
 0001:00037af5       __load_CW                  10038af5 f   LIBCMT:_common_.obj
 0001:00037b0c       __convertTOStoQNaN         10038b0c f   LIBCMT:_common_.obj
 0001:00037b25       __fload_withFB             10038b25 f   LIBCMT:_common_.obj
 0001:00037b68       __checkTOS_withFB          10038b68 f   LIBCMT:_common_.obj
 0001:00037b7e       __fast_exit                10038b7e f   LIBCMT:_common_.obj
 0001:00037b8b       __math_exit                10038b8b f   LIBCMT:_common_.obj
 0001:00037bb5       __check_overflow_exit      10038bb5 f   LIBCMT:_common_.obj
 0001:00037bc9       __check_range_exit         10038bc9 f   LIBCMT:_common_.obj
 0001:00037c6c       __VEC_memzero              10038c6c f   LIBCMT:p4_memset.obj
 0001:00037d26       ___libm_error_support      10038d26 f   LIBCMT:_libm_error_.obj
 0001:00037ff2       __floor_default            10038ff2 f   LIBCMT:_floor_.obj
 0001:000380d0       __CIpow_pentium4           100390d0 f   LIBCMT:_pow_pentium4_.obj
 0001:000380e9       __pow_pentium4             100390e9     LIBCMT:_pow_pentium4_.obj
 0001:00038c41       __fFEXP                    10039c41     LIBCMT:_87tran_.obj
 0001:00038c98       __rtinfpopse               10039c98     LIBCMT:_87tran_.obj
 0001:00038c9a       __rtinfnpopse              10039c9a     LIBCMT:_87tran_.obj
 0001:00038caa       __fFLN                     10039caa     LIBCMT:_87tran_.obj
 0001:00038d5f       __rtinfpop                 10039d5f     LIBCMT:_87tran_.obj
 0001:00038d61       __rtinfnpop                10039d61     LIBCMT:_87tran_.obj
 0001:00038d7e       __ffexpm1                  10039d7e     LIBCMT:_87tran_.obj
 0001:00038e27       __d_inttype                10039e27 f   LIBCMT:_powhlp_.obj
 0001:00038e91       __powhlp                   10039e91 f   LIBCMT:_powhlp_.obj
 0001:00038fc0       __CIasin_pentium4          10039fc0 f   LIBCMT:_asin_pentium4_.obj
 0001:00038fd8       __asin_pentium4            10039fd8     LIBCMT:_asin_pentium4_.obj
 0001:00039540       __cintrindisp2             1003a540 f   LIBCMT:_87cdisp_.obj
 0001:0003957e       __cintrindisp1             1003a57e f   LIBCMT:_87cdisp_.obj
 0001:000395bb       __ctrandisp2               1003a5bb f   LIBCMT:_87cdisp_.obj
 0001:0003974a       __ctrandisp1               1003a74a f   LIBCMT:_87cdisp_.obj
 0001:0003977d       __fload                    1003a77d f   LIBCMT:_87cdisp_.obj
 0001:000399dc       ___updatetmbcinfo          1003a9dc f   LIBCMT:mbctype.obj
 0001:00039afc       __setmbcp_nolock           1003aafc f   LIBCMT:mbctype.obj
 0001:00039ce5       __setmbcp                  1003ace5 f   LIBCMT:mbctype.obj
 0001:00039e7f       ___initmbctable            1003ae7f f   LIBCMT:mbctype.obj
 0001:00039e9d       ___addlocaleref            1003ae9d f   LIBCMT:localref.obj
 0001:00039f2c       ___removelocaleref         1003af2c f   LIBCMT:localref.obj
 0001:00039fc5       ___freetlocinfo            1003afc5 f   LIBCMT:localref.obj
 0001:0003a110       __updatetlocinfoEx_nolock  1003b110 f   LIBCMT:localref.obj
 0001:0003a15d       ___updatetlocinfo          1003b15d f   LIBCMT:localref.obj
 0001:0003a1d6       __fltin2                   1003b1d6 f   LIBCMT:_cfin_.obj
 0001:0003a27d       __isctype_l                1003b27d f   LIBCMT:isctype.obj
 0001:0003a335       __initp_misc_invarg        1003b335 f   LIBCMT:invarg.obj
 0001:0003a344       __call_reportfault         1003b344 f   LIBCMT:invarg.obj
 0001:0003a46d       __invoke_watson            1003b46d f   LIBCMT:invarg.obj
 0001:0003a492       __invalid_parameter        1003b492 f   LIBCMT:invarg.obj
 0001:0003a4bf       __invalid_parameter_noinfo 1003b4bf f   LIBCMT:invarg.obj
 0001:0003a4cf       __get_errno_from_oserr     1003b4cf f   LIBCMT:dosmap.obj
 0001:0003a511       __errno                    1003b511 f   LIBCMT:dosmap.obj
 0001:0003a524       ___doserrno                1003b524 f   LIBCMT:dosmap.obj
 0001:0003a537       __dosmaperr                1003b537 f   LIBCMT:dosmap.obj
 0001:0003a55a       @__security_check_cookie@4 1003b55a f   LIBCMT:secchk.obj
 0001:0003a569       ___strgtold12_l            1003b569 f   LIBCMT:_strgtold_.obj
 0001:0003ac45       __freea                    1003bc45 f i LIBCMT:a_map.obj
 0001:0003ae4c       ___crtLCMapStringA         1003be4c f   LIBCMT:a_map.obj
 0001:0003ae92       __isleadbyte_l             1003be92 f i LIBCMT:_wctype.obj
 0001:0003aeca       _isleadbyte                1003beca f i LIBCMT:_wctype.obj
 0001:0003aedd       __mtinitlocks              1003bedd f   LIBCMT:mlock.obj
 0001:0003af27       __mtdeletelocks            1003bf27 f   LIBCMT:mlock.obj
 0001:0003af7e       __unlock                   1003bf7e f   LIBCMT:mlock.obj
 0001:0003af95       __mtinitlocknum            1003bf95 f   LIBCMT:mlock.obj
 0001:0003b057       __lock                     1003c057 f   LIBCMT:mlock.obj
 0001:0003b08a       __flsbuf                   1003c08a f   LIBCMT:_flsbuf.obj
 0001:0003b26e       __output_l                 1003c26e f   LIBCMT:output.obj
 0001:0003be20       __calloc_impl              1003ce20 f   LIBCMT:calloc_impl.obj
 0001:0003bea2       _realloc                   1003cea2 f   LIBCMT:realloc.obj
 0001:0003bf4f       ?terminate@@YAXXZ          1003cf4f f   LIBCMT:hooks.obj
 0001:0003bf88       __initp_eh_hooks           1003cf88 f   LIBCMT:hooks.obj
 0001:0003bf99       __initp_misc_winsig        1003cf99 f   LIBCMT:winsig.obj
 0001:0003bfee       ___get_sigabrt             1003cfee f   LIBCMT:winsig.obj
 0001:0003bffb       _raise                     1003cffb f   LIBCMT:winsig.obj
 0001:0003c19e       __initp_misc_rand_s        1003d19e f   LIBCMT:rand_s.obj
 0001:0003c1b0       __ValidateImageBase        1003d1b0 f   LIBCMT:pesect.obj
 0001:0003c1f0       __FindPESection            1003d1f0 f   LIBCMT:pesect.obj
 0001:0003c240       __IsNonwritableInCurrentImage 1003d240 f   LIBCMT:pesect.obj
 0001:0003c300       __local_unwind4            1003d300 f   LIBCMT:exsup4.obj
 0001:0003c3d6       __seh_longjmp_unwind4@4    1003d3d6 f   LIBCMT:exsup4.obj
 0001:0003c3f2       @_EH4_CallFilterFunc@8     1003d3f2 f   LIBCMT:exsup4.obj
 0001:0003c409       @_EH4_TransferToHandler@8  1003d409 f   LIBCMT:exsup4.obj
 0001:0003c422       @_EH4_GlobalUnwind2@8      1003d422 f   LIBCMT:exsup4.obj
 0001:0003c43b       @_EH4_LocalUnwind@16       1003d43b f   LIBCMT:exsup4.obj
 0001:0003c460       _strlen                    1003d460 f   LIBCMT:strlen.obj
 0001:0003c4eb       ___crtMessageBoxW          1003d4eb f   LIBCMT:crtmboxw.obj
 0001:0003c657       _wcscat_s                  1003d657 f   LIBCMT:wcscat_s.obj
 0001:0003c6cc       _wcsncpy_s                 1003d6cc f   LIBCMT:wcsncpy_s.obj
 0001:0003c799       _wcslen                    1003d799 f   LIBCMT:wcslen.obj
 0001:0003c7b4       _wcscpy_s                  1003d7b4 f   LIBCMT:wcscpy_s.obj
 0001:0003c817       __set_error_mode           1003d817 f   LIBCMT:errmode.obj
 0001:0003c856       _strcpy_s                  1003d856 f   LIBCMT:strcpy_s.obj
 0001:0003c908       __ismbblead                1003d908 f   LIBCMT:ismbbyte.obj
 0001:0003c920       _strrchr                   1003d920 f   LIBCMT:strrchr.obj
 0001:0003c94d       __atodbl_l                 1003d94d f   LIBCMT:atodbl.obj
 0001:0003c9f5       __atoflt_l                 1003d9f5 f   LIBCMT:atodbl.obj
 0001:0003ca9d       __fptostr                  1003da9d f   LIBCMT:_fptostr.obj
 0001:0003cb50       ___dtold                   1003db50 f   LIBCMT:_cfout_.obj
 0001:0003cc03       __fltout2                  1003dc03 f   LIBCMT:_cfout_.obj
 0001:0003cca0       __alldvrm                  1003dca0 f   LIBCMT:lldvrm.obj
 0001:0003cd80       __aullshr                  1003dd80 f   LIBCMT:ullshr.obj
 0001:0003cd9f       __fptrap                   1003dd9f f   LIBCMT:crt0fp.obj
 0001:0003cda8       __controlfp_s              1003dda8 f   LIBCMT:_contrlfp_.obj
 0001:0003ce07       __87except                 1003de07 f   LIBCMT:_87except_.obj
 0001:0003cf46       __matherr                  1003df46 f   LIBCMT:_matherr_.obj
 0001:0003cf49       __raise_exc_ex             1003df49 f   LIBCMT:_fpexcept_.obj
 0001:0003d225       __raise_exc                1003e225 f   LIBCMT:_fpexcept_.obj
 0001:0003d248       __handle_exc               1003e248 f   LIBCMT:_fpexcept_.obj
 0001:0003d42c       __set_errno_from_matherr   1003e42c f   LIBCMT:_fpexcept_.obj
 0001:0003d459       __errcode                  1003e459 f   LIBCMT:_fpexcept_.obj
 0001:0003d48d       __umatherr                 1003e48d f   LIBCMT:_fpexcept_.obj
 0001:0003d52d       __handle_qnan1             1003e52d f   LIBCMT:_fpexcept_.obj
 0001:0003d582       __except1                  1003e582 f   LIBCMT:_fpexcept_.obj
 0001:0003d64c       __frnd                     1003e64c f   LIBCMT:_frnd_.obj
 0001:0003d660       __set_exp                  1003e660 f   LIBCMT:_util_.obj
 0001:0003d68d       __sptype                   1003e68d f   LIBCMT:_util_.obj
 0001:0003d6f3       __decomp                   1003e6f3 f   LIBCMT:_util_.obj
 0001:0003d7b6       __statfp                   1003e7b6 f   LIBCMT:_fpctrl_.obj
 0001:0003d7c6       __clrfp                    1003e7c6 f   LIBCMT:_fpctrl_.obj
 0001:0003d7d7       __ctrlfp                   1003e7d7 f   LIBCMT:_fpctrl_.obj
 0001:0003d802       __set_statfp               1003e802 f   LIBCMT:_fpctrl_.obj
 0001:0003d85a       ___set_fpsr_sse2           1003e85a f   LIBCMT:_fpctrl_.obj
 0001:0003d8cc       __fpclass                  1003e8cc f   LIBCMT:_ieeemisc_.obj
 0001:0003d970       __aulldvrm                 1003e970 f   LIBCMT:ulldvrm.obj
 0001:0003daec       ___crtGetStringTypeA       1003eaec f   LIBCMT:a_str.obj
 0001:0003db2c       ___free_lc_time            1003eb2c f   LIBCMT:inittime.obj
 0001:0003dea3       ___free_lconv_num          1003eea3 f   LIBCMT:initnum.obj
 0001:0003df0c       ___free_lconv_mon          1003ef0c f   LIBCMT:initmon.obj
 0001:0003e00a       __ld12tod                  1003f00a f   LIBCMT:_intrncvt_.obj
 0001:0003e55b       __ld12tof                  1003f55b f   LIBCMT:_intrncvt_.obj
 0001:0003eaac       __crt_debugger_hook        1003faac f   LIBCMT:dbghook.obj
 0001:0003eab4       ___report_gsfailure        1003fab4 f   LIBCMT:gs_report.obj
 0001:0003ebba       ___mtold12                 1003fbba f   LIBCMT:_mantold_.obj
 0001:0003eda0       _strcspn                   1003fda0 f   LIBCMT:strcspn.obj
 0001:0003edf0       _strpbrk                   1003fdf0 f   LIBCMT:strpbrk.obj
 0001:0003ee30       __SEH_prolog4_GS           1003fe30 f   LIBCMT:sehprolg4gs.obj
 0001:0003ee78       __SEH_epilog4_GS           1003fe78 f   LIBCMT:sehprolg4gs.obj
 0001:0003ee87       __lseeki64_nolock          1003fe87 f   LIBCMT:lseeki64.obj
 0001:0003ef0c       __lseeki64                 1003ff0c f   LIBCMT:lseeki64.obj
 0001:0003eff6       __write_nolock             1003fff6 f   LIBCMT:write.obj
 0001:0003f6f3       __write                    100406f3 f   LIBCMT:write.obj
 0001:0003f7c7       __getbuf                   100407c7 f   LIBCMT:_getbuf.obj
 0001:0003f810       __isatty                   10040810 f   LIBCMT:isatty.obj
 0001:0003f866       ___iob_func                10040866 f   LIBCMT:_file.obj
 0001:0003f86c       ___initstdio               1004086c f   LIBCMT:_file.obj
 0001:0003f91d       ___endstdio                1004091d f   LIBCMT:_file.obj
 0001:0003f93d       __lock_file                1004093d f   LIBCMT:_file.obj
 0001:0003f97e       __lock_file2               1004097e f   LIBCMT:_file.obj
 0001:0003f9b0       __unlock_file              100409b0 f   LIBCMT:_file.obj
 0001:0003f9ec       __unlock_file2             100409ec f   LIBCMT:_file.obj
 0001:0003fa1b       __fileno                   10040a1b f   LIBCMT:fileno.obj
 0001:0003fa41       __get_printf_count_output  10040a41 f   LIBCMT:printf.obj
 0001:0003fa57       __mbtowc_l                 10040a57 f   LIBCMT:mbtowc.obj
 0001:0003fb6d       _mbtowc                    10040b6d f   LIBCMT:mbtowc.obj
 0001:0003fb87       __wctomb_s_l               10040b87 f   LIBCMT:wctomb.obj
 0001:0003fcdc       _wctomb_s                  10040cdc f   LIBCMT:wctomb.obj
 0001:0003fd00       __global_unwind2           10040d00 f   LIBCMT:exsup.obj
 0001:0003fd65       __local_unwind2            10040d65 f   LIBCMT:exsup.obj
 0001:0003fde9       __abnormal_termination     10040de9 f   LIBCMT:exsup.obj
 0001:0003fe0c       __NLG_Notify1              10040e0c f   LIBCMT:exsup.obj
 0001:0003fe15       __NLG_Notify               10040e15 f   LIBCMT:exsup.obj
 0001:0003fe2c       __NLG_Dispatch             10040e2c     LIBCMT:exsup.obj
 0001:0003fe2c       __NLG_Dispatch2            10040e2c     LIBCMT:exsup.obj
 0001:0003fe34       __NLG_Call                 10040e34 f   LIBCMT:exsup.obj
 0001:0003fe36       __NLG_Return2              10040e36     LIBCMT:exsup.obj
 0001:0003fe37       _$I10_OUTPUT               10040e37 f   LIBCMT:_x10fout_.obj
 0001:0004085d       __control87                1004185d f i LIBCMT:_ieee87_.obj
 0001:00040b6f       ___ascii_stricmp           10041b6f f   LIBCMT:stricmp.obj
 0001:00040ba8       __stricmp_l                10041ba8 f   LIBCMT:stricmp.obj
 0001:00040c68       _stricmp                   10041c68 f   LIBCMT:stricmp.obj
 0001:00040c68       __stricmp                  10041c68 f   LIBCMT:stricmp.obj
 0001:00040caf       __free_osfhnd              10041caf f   LIBCMT:osfinfo.obj
 0001:00040d35       __get_osfhandle            10041d35 f   LIBCMT:osfinfo.obj
 0001:00040d9e       ___lock_fhandle            10041d9e f   LIBCMT:osfinfo.obj
 0001:00040e3d       __unlock_fhandle           10041e3d f   LIBCMT:osfinfo.obj
 0001:00040e64       __putwch_nolock            10041e64 f   LIBCMT:putwch.obj
 0001:00040ea6       __fcloseall                10041ea6 f   LIBCMT:closeall.obj
 0001:00040f42       __flush                    10041f42 f   LIBCMT:fflush.obj
 0001:00040faa       __fflush_nolock            10041faa f   LIBCMT:fflush.obj
 0001:000410cc       __flushall                 100420cc f   LIBCMT:fflush.obj
 0001:000410e0       ___ascii_strnicmp          100420e0 f   LIBCMT:_strnicm.obj
 0001:00041141       ___initconout              10042141 f   LIBCMT:initcon.obj
 0001:00041160       ___termconout              10042160 f   LIBCMT:initcon.obj
 0001:00041177       __fclose_nolock            10042177 f   LIBCMT:fclose.obj
 0001:000411e4       _fclose                    100421e4 f   LIBCMT:fclose.obj
 0001:00041258       __commit                   10042258 f   LIBCMT:commit.obj
 0001:00041331       __close_nolock             10042331 f   LIBCMT:close.obj
 0001:000413cd       __close                    100423cd f   LIBCMT:close.obj
 0001:00041491       __freebuf                  10042491 f   LIBCMT:_freebuf.obj
 0001:000414c2       _RtlUnwind@16              100424c2 f   kernel32:KERNEL32.dll
 0002:00000000       __imp__GetEnvironmentStringsW@0 1004c000     kernel32:KERNEL32.dll
 0002:00000004       __imp__FlushFileBuffers@4  1004c004     kernel32:KERNEL32.dll
 0002:00000008       __imp__CloseHandle@4       1004c008     kernel32:KERNEL32.dll
 0002:0000000c       __imp__CreateFileW@28      1004c00c     kernel32:KERNEL32.dll
 0002:00000010       __imp__WriteConsoleW@20    1004c010     kernel32:KERNEL32.dll
 0002:00000014       __imp__SetStdHandle@8      1004c014     kernel32:KERNEL32.dll
 0002:00000018       __imp__GetConsoleMode@8    1004c018     kernel32:KERNEL32.dll
 0002:0000001c       __imp__GetConsoleCP@0      1004c01c     kernel32:KERNEL32.dll
 0002:00000020       __imp__SetFilePointer@16   1004c020     kernel32:KERNEL32.dll
 0002:00000024       __imp__MultiByteToWideChar@24 1004c024     kernel32:KERNEL32.dll
 0002:00000028       __imp__WideCharToMultiByte@32 1004c028     kernel32:KERNEL32.dll
 0002:0000002c       __imp__GetProcAddress@8    1004c02c     kernel32:KERNEL32.dll
 0002:00000030       __imp__EncodePointer@4     1004c030     kernel32:KERNEL32.dll
 0002:00000034       __imp__DecodePointer@4     1004c034     kernel32:KERNEL32.dll
 0002:00000038       __imp__GetCurrentThreadId@0 1004c038     kernel32:KERNEL32.dll
 0002:0000003c       __imp__GetCommandLineA@0   1004c03c     kernel32:KERNEL32.dll
 0002:00000040       __imp__GetLastError@0      1004c040     kernel32:KERNEL32.dll
 0002:00000044       __imp__IsProcessorFeaturePresent@4 1004c044     kernel32:KERNEL32.dll
 0002:00000048       __imp__Sleep@4             1004c048     kernel32:KERNEL32.dll
 0002:0000004c       __imp__HeapSize@12         1004c04c     kernel32:KERNEL32.dll
 0002:00000050       __imp__GetModuleHandleW@4  1004c050     kernel32:KERNEL32.dll
 0002:00000054       __imp__ExitProcess@4       1004c054     kernel32:KERNEL32.dll
 0002:00000058       __imp__WriteFile@20        1004c058     kernel32:KERNEL32.dll
 0002:0000005c       __imp__GetStdHandle@4      1004c05c     kernel32:KERNEL32.dll
 0002:00000060       __imp__GetModuleFileNameW@12 1004c060     kernel32:KERNEL32.dll
 0002:00000064       __imp__HeapFree@12         1004c064     kernel32:KERNEL32.dll
 0002:00000068       __imp__HeapAlloc@12        1004c068     kernel32:KERNEL32.dll
 0002:0000006c       __imp__RaiseException@16   1004c06c     kernel32:KERNEL32.dll
 0002:00000070       __imp__TlsAlloc@0          1004c070     kernel32:KERNEL32.dll
 0002:00000074       __imp__TlsGetValue@4       1004c074     kernel32:KERNEL32.dll
 0002:00000078       __imp__TlsSetValue@8       1004c078     kernel32:KERNEL32.dll
 0002:0000007c       __imp__TlsFree@4           1004c07c     kernel32:KERNEL32.dll
 0002:00000080       __imp__InterlockedIncrement@4 1004c080     kernel32:KERNEL32.dll
 0002:00000084       __imp__SetLastError@4      1004c084     kernel32:KERNEL32.dll
 0002:00000088       __imp__InterlockedDecrement@4 1004c088     kernel32:KERNEL32.dll
 0002:0000008c       __imp__SetHandleCount@4    1004c08c     kernel32:KERNEL32.dll
 0002:00000090       __imp__InitializeCriticalSectionAndSpinCount@8 1004c090     kernel32:KERNEL32.dll
 0002:00000094       __imp__GetFileType@4       1004c094     kernel32:KERNEL32.dll
 0002:00000098       __imp__GetStartupInfoW@4   1004c098     kernel32:KERNEL32.dll
 0002:0000009c       __imp__DeleteCriticalSection@4 1004c09c     kernel32:KERNEL32.dll
 0002:000000a0       __imp__GetModuleFileNameA@12 1004c0a0     kernel32:KERNEL32.dll
 0002:000000a4       __imp__FreeEnvironmentStringsW@4 1004c0a4     kernel32:KERNEL32.dll
 0002:000000a8       __imp__HeapCreate@12       1004c0a8     kernel32:KERNEL32.dll
 0002:000000ac       __imp__HeapDestroy@4       1004c0ac     kernel32:KERNEL32.dll
 0002:000000b0       __imp__QueryPerformanceCounter@4 1004c0b0     kernel32:KERNEL32.dll
 0002:000000b4       __imp__GetTickCount@0      1004c0b4     kernel32:KERNEL32.dll
 0002:000000b8       __imp__GetCurrentProcessId@0 1004c0b8     kernel32:KERNEL32.dll
 0002:000000bc       __imp__GetSystemTimeAsFileTime@4 1004c0bc     kernel32:KERNEL32.dll
 0002:000000c0       __imp__GetCPInfo@8         1004c0c0     kernel32:KERNEL32.dll
 0002:000000c4       __imp__GetACP@0            1004c0c4     kernel32:KERNEL32.dll
 0002:000000c8       __imp__GetOEMCP@0          1004c0c8     kernel32:KERNEL32.dll
 0002:000000cc       __imp__IsValidCodePage@4   1004c0cc     kernel32:KERNEL32.dll
 0002:000000d0       __imp__UnhandledExceptionFilter@4 1004c0d0     kernel32:KERNEL32.dll
 0002:000000d4       __imp__SetUnhandledExceptionFilter@4 1004c0d4     kernel32:KERNEL32.dll
 0002:000000d8       __imp__IsDebuggerPresent@0 1004c0d8     kernel32:KERNEL32.dll
 0002:000000dc       __imp__TerminateProcess@8  1004c0dc     kernel32:KERNEL32.dll
 0002:000000e0       __imp__GetCurrentProcess@0 1004c0e0     kernel32:KERNEL32.dll
 0002:000000e4       __imp__LCMapStringW@24     1004c0e4     kernel32:KERNEL32.dll
 0002:000000e8       __imp__LeaveCriticalSection@4 1004c0e8     kernel32:KERNEL32.dll
 0002:000000ec       __imp__EnterCriticalSection@4 1004c0ec     kernel32:KERNEL32.dll
 0002:000000f0       __imp__HeapReAlloc@16      1004c0f0     kernel32:KERNEL32.dll
 0002:000000f4       __imp__LoadLibraryW@4      1004c0f4     kernel32:KERNEL32.dll
 0002:000000f8       __imp__RtlUnwind@16        1004c0f8     kernel32:KERNEL32.dll
 0002:000000fc       __imp__GetStringTypeW@16   1004c0fc     kernel32:KERNEL32.dll
 0002:00000100       \177KERNEL32_NULL_THUNK_DATA 1004c100     kernel32:KERNEL32.dll
 0002:00000104       __imp__GetCPUInformation   1004c104     tier0:tier0.dll
 0002:00000108       __imp__CommandLine_Tier0   1004c108     tier0:tier0.dll
 0002:0000010c       __imp_?DevMsg@@YAXPBDZZ    1004c10c     tier0:tier0.dll
 0002:00000110       __imp__Warning             1004c110     tier0:tier0.dll
 0002:00000114       __imp__Msg                 1004c114     tier0:tier0.dll
 0002:00000118       __imp__g_pMemAlloc         1004c118     tier0:tier0.dll
 0002:0000011c       __imp__AssertValidStringPtr 1004c11c     tier0:tier0.dll
 0002:00000120       __imp___AssertValidWritePtr 1004c120     tier0:tier0.dll
 0002:00000124       \177tier0_NULL_THUNK_DATA  1004c124     tier0:tier0.dll
 0002:00000128       __imp__RandomFloat         1004c128     vstdlib:vstdlib.dll
 0002:0000012c       \177vstdlib_NULL_THUNK_DATA 1004c12c     vstdlib:vstdlib.dll
 0002:00000130       ___xc_a                    1004c130     LIBCMT:crt0init.obj
 0002:00000cd0       ___xc_z                    1004ccd0     LIBCMT:crt0init.obj
 0002:00000cd4       ___xi_a                    1004ccd4     LIBCMT:crt0init.obj
 0002:00000cec       ___xi_z                    1004ccec     LIBCMT:crt0init.obj
 0002:00000cf0       ___xp_a                    1004ccf0     LIBCMT:crt0init.obj
 0002:00000cfc       ___xp_z                    1004ccfc     LIBCMT:crt0init.obj
 0002:00000d00       ___xt_a                    1004cd00     LIBCMT:crt0init.obj
 0002:00000d04       ___xt_z                    1004cd04     LIBCMT:crt0init.obj
 0002:00000d30       __real@4000000000000000    1004cd30     mathlib:vmatrix.obj
 0002:00000d38       __real@400921fb54442d18    1004cd38     mathlib:vmatrix.obj
 0002:00000d40       __real@3f000000            1004cd40     mathlib:vmatrix.obj
 0002:00000d48       __real@40019999a0000000    1004cd48     mathlib:color_conversion.obj
 0002:00000d50       __real@3fdd1745c0000000    1004cd50     mathlib:color_conversion.obj
 0002:00000d58       __real@3f733333            1004cd58     mathlib:color_conversion.obj
 0002:00000d60       __real@3f50000000000000    1004cd60     mathlib:color_conversion.obj
 0002:00000d68       __real@3e800000            1004cd68     mathlib:color_conversion.obj
 0002:00000d70       __real@406fe00000000000    1004cd70     mathlib:color_conversion.obj
 0002:00000d78       __real@3fec000000000000    1004cd78     mathlib:color_conversion.obj
 0002:00000d80       __real@3f50040100401004    1004cd80     mathlib:color_conversion.obj
 0002:00000d88       __real@3b808081            1004cd88     mathlib:color_conversion.obj
 0002:00000d90       __real@3fc0000000000000    1004cd90     mathlib:color_conversion.obj
 0002:00000d98       __real@3fb3333333333333    1004cd98     mathlib:color_conversion.obj
 0002:00000da0       __real@3d4ccccd            1004cda0     mathlib:color_conversion.obj
 0002:00000da4       __real@3e000000            1004cda4     mathlib:color_conversion.obj
 0002:00000da8       ?nanmask@@3HB              1004cda8     mathlib:mathlib_base.obj
 0002:00000dac       __real@34000000            1004cdac     mathlib:mathlib_base.obj
 0002:00000db0       __real@3f70000000000000    1004cdb0     mathlib:mathlib_base.obj
 0002:00000db8       __real@0000000000000000    1004cdb8     mathlib:mathlib_base.obj
 0002:00000e84       ??_7ConCommandBase@@6B@    1004ce84     tier1:convar.obj
 0002:00000eb0       ??_7ConCommand@@6B@        1004ceb0     tier1:convar.obj
 0002:00000ee8       ??_7IConVar@@6B@           1004cee8     tier1:convar.obj
 0002:00000f00       ??_7ConVar@@6BIConVar@@@   1004cf00     tier1:convar.obj
 0002:00000f1c       ??_7ConVar@@6BConCommandBase@@@ 1004cf1c     tier1:convar.obj
 0002:00000f5c       ??_C@_02NJPGOMH@?$CFf?$AA@ 1004cf5c     tier1:convar.obj
 0002:00000f60       ??_C@_02DPKJAMEF@?$CFd?$AA@ 1004cf60     tier1:convar.obj
 0002:00000f68       ??_7CDefaultAccessor@@6B@  1004cf68     tier1:convar.obj
 0002:00000f70       ??_7CEmptyConVar@@6BIConVar@@@ 1004cf70     tier1:convar.obj
 0002:00000f8c       ??_7CEmptyConVar@@6BConCommandBase@@@ 1004cf8c     tier1:convar.obj
 0002:00000fcc       ??_C@_01JOAMLHOP@?9?$AA@   1004cfcc     tier1:strtools.obj
 0002:00000fd0       ??_C@_0BB@MDCHKHHM@VProcessUtils001?$AA@ 1004cfd0     tier1:tier1.obj
 0002:00000fe4       ??_C@_0P@BMLDPPDB@VEngineCvar004?$AA@ 1004cfe4     tier1:tier1.obj
 0002:00000ff4       ??_C@_01BJJEKLCA@?$CC?$AA@ 1004cff4     tier1:utlbuffer.obj
 0002:00000ff8       ??_C@_01GEODFPGF@?8?$AA@   1004cff8     tier1:utlbuffer.obj
 0002:00000ffc       ??_C@_01OGPIMHDM@?$DP?$AA@ 1004cffc     tier1:utlbuffer.obj
 0002:00001000       ??_C@_01KICIPPFI@?2?$AA@   1004d000     tier1:utlbuffer.obj
 0002:00001004       ??_C@_01MCMALHOG@a?$AA@    1004d004     tier1:utlbuffer.obj
 0002:00001008       ??_C@_01INIBCBCB@f?$AA@    1004d008     tier1:utlbuffer.obj
 0002:0000100c       ??_C@_01KDCPPGHE@r?$AA@    1004d00c     tier1:utlbuffer.obj
 0002:00001010       ??_C@_01OJONOECF@b?$AA@    1004d010     tier1:utlbuffer.obj
 0002:00001014       ??_C@_01MHEDDDHA@v?$AA@    1004d014     tier1:utlbuffer.obj
 0002:00001018       ??_C@_01PFHFFBPC@t?$AA@    1004d018     tier1:utlbuffer.obj
 0002:0000101c       ??_C@_01EFFIKLCJ@n?$AA@    1004d01c     tier1:utlbuffer.obj
 0002:00001024       ??_7CUtlCharConversion@@6B@ 1004d024     tier1:utlbuffer.obj
 0002:0000102c       ??_7CUtlNoEscConversion@@6B@ 1004d02c     tier1:utlbuffer.obj
 0002:00001034       ??_7CUtlCStringConversion@@6B@ 1004d034     tier1:utlbuffer.obj
 0002:0000103c       ??_7type_info@@6B@         1004d03c     LIBCMT:typinfo.obj
 0002:00001044       ??_7bad_alloc@std@@6B@     1004d044     LIBCMT:new.obj
 0002:0000104c       ??_C@_0P@GHFPNOJB@bad?5allocation?$AA@ 1004d04c     LIBCMT:new.obj
 0002:0000105c       __pRawDllMain              1004d05c     LIBCMT:dllcrt0.obj
 0002:0000105c       __pDefaultRawDllMain       1004d05c     LIBCMT:dllcrt0.obj
 0002:00001060       __FPinit                   1004d060     LIBCMT:_fpinit_.obj
 0002:000010c0       __OP_FMODjmptab            1004d0c0     LIBCMT:_87fmod_.obj
 0002:00001110       ??_C@_0P@MIGLKIOC@CorExitProcess?$AA@ 1004d110     LIBCMT:crt0dat.obj
 0002:00001120       ??_C@_1BI@BGOHAHKC@?$AAm?$AAs?$AAc?$AAo?$AAr?$AAe?$AAe?$AA?4?$AAd?$AAl?$AAl?$AA?$AA@ 1004d120     LIBCMT:crt0dat.obj
 0002:00001138       ??_C@_1BO@BKOMIGKJ@?$AAr?$AAu?$AAn?$AAt?$AAi?$AAm?$AAe?$AA?5?$AAe?$AAr?$AAr?$AAo?$AAr?$AA?5?$AA?$AA@ 1004d138     LIBCMT:crt0msg.obj
 0002:00001158       ??_C@_15JNBOKNOG@?$AA?$AN?$AA?6?$AA?$AA@ 1004d158     LIBCMT:crt0msg.obj
 0002:00001160       ??_C@_1BM@JBBEPPHI@?$AAT?$AAL?$AAO?$AAS?$AAS?$AA?5?$AAe?$AAr?$AAr?$AAo?$AAr?$AA?$AN?$AA?6?$AA?$AA@ 1004d160     LIBCMT:crt0msg.obj
 0002:0000117c       ??_C@_1BK@KMOMNAAI@?$AAS?$AAI?$AAN?$AAG?$AA?5?$AAe?$AAr?$AAr?$AAo?$AAr?$AA?$AN?$AA?6?$AA?$AA@ 1004d17c     LIBCMT:crt0msg.obj
 0002:00001198       ??_C@_1BO@BFCDCGC@?$AAD?$AAO?$AAM?$AAA?$AAI?$AAN?$AA?5?$AAe?$AAr?$AAr?$AAo?$AAr?$AA?$AN?$AA?6?$AA?$AA@ 1004d198     LIBCMT:crt0msg.obj
 0002:000011b8       ??_C@_1BOO@KGEDBGAJ@?$AAR?$AA6?$AA0?$AA3?$AA3?$AA?$AN?$AA?6?$AA?9?$AA?5?$AAA?$AAt?$AAt?$AAe?$AAm?$AAp?$AAt?$AA?5?$AAt?$AAo?$AA?5?$AAu?$AAs?$AAe?$AA?5?$AAM?$AAS?$AAI?$AAL?$AA?5?$AAc?$AAo?$AAd@ 1004d1b8     LIBCMT:crt0msg.obj
 0002:000013a8       ??_C@_1GG@GOPILAJP@?$AAR?$AA6?$AA0?$AA3?$AA2?$AA?$AN?$AA?6?$AA?9?$AA?5?$AAn?$AAo?$AAt?$AA?5?$AAe?$AAn?$AAo?$AAu?$AAg?$AAh?$AA?5?$AAs?$AAp?$AAa?$AAc?$AAe?$AA?5?$AAf?$AAo?$AAr?$AA?5?$AAl?$AAo@ 1004d3a8     LIBCMT:crt0msg.obj
 0002:00001410       ??_C@_1MG@ENCOOIDF@?$AAR?$AA6?$AA0?$AA3?$AA1?$AA?$AN?$AA?6?$AA?9?$AA?5?$AAA?$AAt?$AAt?$AAe?$AAm?$AAp?$AAt?$AA?5?$AAt?$AAo?$AA?5?$AAi?$AAn?$AAi?$AAt?$AAi?$AAa?$AAl?$AAi?$AAz?$AAe?$AA?5?$AAt@ 1004d410     LIBCMT:crt0msg.obj
 0002:000014d8       ??_C@_1DO@BMFCDCD@?$AAR?$AA6?$AA0?$AA3?$AA0?$AA?$AN?$AA?6?$AA?9?$AA?5?$AAC?$AAR?$AAT?$AA?5?$AAn?$AAo?$AAt?$AA?5?$AAi?$AAn?$AAi?$AAt?$AAi?$AAa?$AAl?$AAi?$AAz?$AAe?$AAd?$AA?$AN?$AA?6?$AA?$AA@ 1004d4d8     LIBCMT:crt0msg.obj
 0002:00001518       ??_C@_1EK@HHFLMAOL@?$AAR?$AA6?$AA0?$AA2?$AA8?$AA?$AN?$AA?6?$AA?9?$AA?5?$AAu?$AAn?$AAa?$AAb?$AAl?$AAe?$AA?5?$AAt?$AAo?$AA?5?$AAi?$AAn?$AAi?$AAt?$AAi?$AAa?$AAl?$AAi?$AAz?$AAe?$AA?5?$AAh?$AAe@ 1004d518     LIBCMT:crt0msg.obj
 0002:00001568       ??_C@_1GK@MFGOKLAG@?$AAR?$AA6?$AA0?$AA2?$AA7?$AA?$AN?$AA?6?$AA?9?$AA?5?$AAn?$AAo?$AAt?$AA?5?$AAe?$AAn?$AAo?$AAu?$AAg?$AAh?$AA?5?$AAs?$AAp?$AAa?$AAc?$AAe?$AA?5?$AAf?$AAo?$AAr?$AA?5?$AAl?$AAo@ 1004d568     LIBCMT:crt0msg.obj
 0002:000015d8       ??_C@_1GK@MCAAGJMO@?$AAR?$AA6?$AA0?$AA2?$AA6?$AA?$AN?$AA?6?$AA?9?$AA?5?$AAn?$AAo?$AAt?$AA?5?$AAe?$AAn?$AAo?$AAu?$AAg?$AAh?$AA?5?$AAs?$AAp?$AAa?$AAc?$AAe?$AA?5?$AAf?$AAo?$AAr?$AA?5?$AAs?$AAt@ 1004d5d8     LIBCMT:crt0msg.obj
 0002:00001648       ??_C@_1EM@MAADIHMB@?$AAR?$AA6?$AA0?$AA2?$AA5?$AA?$AN?$AA?6?$AA?9?$AA?5?$AAp?$AAu?$AAr?$AAe?$AA?5?$AAv?$AAi?$AAr?$AAt?$AAu?$AAa?$AAl?$AA?5?$AAf?$AAu?$AAn?$AAc?$AAt?$AAi?$AAo?$AAn?$AA?5?$AAc@ 1004d648     LIBCMT:crt0msg.obj
 0002:00001698       ??_C@_1GK@FHCKBEFA@?$AAR?$AA6?$AA0?$AA2?$AA4?$AA?$AN?$AA?6?$AA?9?$AA?5?$AAn?$AAo?$AAt?$AA?5?$AAe?$AAn?$AAo?$AAu?$AAg?$AAh?$AA?5?$AAs?$AAp?$AAa?$AAc?$AAe?$AA?5?$AAf?$AAo?$AAr?$AA?5?$AA_?$AAo@ 1004d698     LIBCMT:crt0msg.obj
 0002:00001708       ??_C@_1FC@ECHBIFBC@?$AAR?$AA6?$AA0?$AA1?$AA9?$AA?$AN?$AA?6?$AA?9?$AA?5?$AAu?$AAn?$AAa?$AAb?$AAl?$AAe?$AA?5?$AAt?$AAo?$AA?5?$AAo?$AAp?$AAe?$AAn?$AA?5?$AAc?$AAo?$AAn?$AAs?$AAo?$AAl?$AAe?$AA?5@ 1004d708     LIBCMT:crt0msg.obj
 0002:00001760       ??_C@_1EC@JIBHAOPH@?$AAR?$AA6?$AA0?$AA1?$AA8?$AA?$AN?$AA?6?$AA?9?$AA?5?$AAu?$AAn?$AAe?$AAx?$AAp?$AAe?$AAc?$AAt?$AAe?$AAd?$AA?5?$AAh?$AAe?$AAa?$AAp?$AA?5?$AAe?$AAr?$AAr?$AAo?$AAr?$AA?$AN?$AA?6@ 1004d760     LIBCMT:crt0msg.obj
 0002:000017a8       ??_C@_1FK@BEOGODMC@?$AAR?$AA6?$AA0?$AA1?$AA7?$AA?$AN?$AA?6?$AA?9?$AA?5?$AAu?$AAn?$AAe?$AAx?$AAp?$AAe?$AAc?$AAt?$AAe?$AAd?$AA?5?$AAm?$AAu?$AAl?$AAt?$AAi?$AAt?$AAh?$AAr?$AAe?$AAa?$AAd?$AA?5@ 1004d7a8     LIBCMT:crt0msg.obj
 0002:00001808       ??_C@_1FI@LOGNIKDM@?$AAR?$AA6?$AA0?$AA1?$AA6?$AA?$AN?$AA?6?$AA?9?$AA?5?$AAn?$AAo?$AAt?$AA?5?$AAe?$AAn?$AAo?$AAu?$AAg?$AAh?$AA?5?$AAs?$AAp?$AAa?$AAc?$AAe?$AA?5?$AAf?$AAo?$AAr?$AA?5?$AAt?$AAh@ 1004d808     LIBCMT:crt0msg.obj
 0002:00001860       ??_C@_1EG@BEHAGFJD@?$AAR?$AA6?$AA0?$AA1?$AA0?$AA?$AN?$AA?6?$AA?9?$AA?5?$AAa?$AAb?$AAo?$AAr?$AAt?$AA?$CI?$AA?$CJ?$AA?5?$AAh?$AAa?$AAs?$AA?5?$AAb?$AAe?$AAe?$AAn?$AA?5?$AAc?$AAa?$AAl?$AAl?$AAe?$AAd@ 1004d860     LIBCMT:crt0msg.obj
 0002:000018a8       ??_C@_1FI@HONFMGBI@?$AAR?$AA6?$AA0?$AA0?$AA9?$AA?$AN?$AA?6?$AA?9?$AA?5?$AAn?$AAo?$AAt?$AA?5?$AAe?$AAn?$AAo?$AAu?$AAg?$AAh?$AA?5?$AAs?$AAp?$AAa?$AAc?$AAe?$AA?5?$AAf?$AAo?$AAr?$AA?5?$AAe?$AAn@ 1004d8a8     LIBCMT:crt0msg.obj
 0002:00001900       ??_C@_1FE@LLNEDJMD@?$AAR?$AA6?$AA0?$AA0?$AA8?$AA?$AN?$AA?6?$AA?9?$AA?5?$AAn?$AAo?$AAt?$AA?5?$AAe?$AAn?$AAo?$AAu?$AAg?$AAh?$AA?5?$AAs?$AAp?$AAa?$AAc?$AAe?$AA?5?$AAf?$AAo?$AAr?$AA?5?$AAa?$AAr@ 1004d900     LIBCMT:crt0msg.obj
 0002:00001958       ??_C@_1FK@PGACCAFB@?$AAR?$AA6?$AA0?$AA0?$AA2?$AA?$AN?$AA?6?$AA?9?$AA?5?$AAf?$AAl?$AAo?$AAa?$AAt?$AAi?$AAn?$AAg?$AA?5?$AAp?$AAo?$AAi?$AAn?$AAt?$AA?5?$AAs?$AAu?$AAp?$AAp?$AAo?$AAr?$AAt?$AA?5@ 1004d958     LIBCMT:crt0msg.obj
 0002:00001a68       ??_C@_1EK@MBDPDCGA@?$AAM?$AAi?$AAc?$AAr?$AAo?$AAs?$AAo?$AAf?$AAt?$AA?5?$AAV?$AAi?$AAs?$AAu?$AAa?$AAl?$AA?5?$AAC?$AA?$CL?$AA?$CL?$AA?5?$AAR?$AAu?$AAn?$AAt?$AAi?$AAm?$AAe?$AA?5?$AAL?$AAi?$AAb@ 1004da68     LIBCMT:crt0msg.obj
 0002:00001ab4       ??_C@_15IABLJNFO@?$AA?6?$AA?6?$AA?$AA@ 1004dab4     LIBCMT:crt0msg.obj
 0002:00001abc       ??_C@_17LGKOMLJ@?$AA?4?$AA?4?$AA?4?$AA?$AA@ 1004dabc     LIBCMT:crt0msg.obj
 0002:00001ac4       ??_C@_1CO@EAEJAADC@?$AA?$DM?$AAp?$AAr?$AAo?$AAg?$AAr?$AAa?$AAm?$AA?5?$AAn?$AAa?$AAm?$AAe?$AA?5?$AAu?$AAn?$AAk?$AAn?$AAo?$AAw?$AAn?$AA?$DO?$AA?$AA@ 1004dac4     LIBCMT:crt0msg.obj
 0002:00001af4       ??_C@_1DE@JNGNBFGO@?$AAR?$AAu?$AAn?$AAt?$AAi?$AAm?$AAe?$AA?5?$AAE?$AAr?$AAr?$AAo?$AAr?$AA?$CB?$AA?6?$AA?6?$AAP?$AAr?$AAo?$AAg?$AAr?$AAa?$AAm?$AA?3?$AA?5?$AA?$AA@ 1004daf4     LIBCMT:crt0msg.obj
 0002:00001b2c       ??_7exception@std@@6B@     1004db2c     LIBCMT:stdexcpt.obj
 0002:00001b34       ??_C@_0BC@EOODALEL@Unknown?5exception?$AA@ 1004db34     LIBCMT:stdexcpt.obj
 0002:00001b68       ??_C@_1BK@DBDEIDLH@?$AAK?$AAE?$AAR?$AAN?$AAE?$AAL?$AA3?$AA2?$AA?4?$AAD?$AAL?$AAL?$AA?$AA@ 1004db68     LIBCMT:tidtable.obj
 0002:00001b84       ??_C@_07PEJMOBNF@FlsFree?$AA@ 1004db84     LIBCMT:tidtable.obj
 0002:00001b8c       ??_C@_0M@JCPCPOEF@FlsSetValue?$AA@ 1004db8c     LIBCMT:tidtable.obj
 0002:00001b98       ??_C@_0M@GDNOONDI@FlsGetValue?$AA@ 1004db98     LIBCMT:tidtable.obj
 0002:00001ba4       ??_C@_08KNHFBNJ@FlsAlloc?$AA@ 1004dba4     LIBCMT:tidtable.obj
 0002:00001bb0       __XcptActTab               1004dbb0     LIBCMT:winxfltr.obj
 0002:00001c40       __First_FPE_Indx           1004dc40     LIBCMT:winxfltr.obj
 0002:00001c44       __Num_FPE                  1004dc44     LIBCMT:winxfltr.obj
 0002:00001c48       __XcptActTabSize           1004dc48     LIBCMT:winxfltr.obj
 0002:00001c4c       __XcptActTabCount          1004dc4c     LIBCMT:winxfltr.obj
 0002:00001c50       ??_C@_05KLBDPFGC@e?$CL000?$AA@ 1004dc50     LIBCMT:cvt.obj
 0002:00003480       __indefinite               1004f480     LIBCMT:_87disp_.obj
 0002:0000348a       __piby2                    1004f48a     LIBCMT:_87disp_.obj
 0002:000034b8       __DEFAULT_CW_in_mem        1004f4b8     LIBCMT:_common_.obj
 0002:000034ba       __pi_by_2_to_61            1004f4ba     LIBCMT:_common_.obj
 0002:00003560       ??_C@_03IIINPABG@tan?$AA@  1004f560     LIBCMT:_libm_error_.obj
 0002:00003564       ??_C@_03LALBNOCG@cos?$AA@  1004f564     LIBCMT:_libm_error_.obj
 0002:00003568       ??_C@_03BLEJJJBH@sin?$AA@  1004f568     LIBCMT:_libm_error_.obj
 0002:0000356c       ??_C@_04EHEDPDJG@modf?$AA@ 1004f56c     LIBCMT:_libm_error_.obj
 0002:00003574       ??_C@_05PBJFFIGL@floor?$AA@ 1004f574     LIBCMT:_libm_error_.obj
 0002:0000357c       ??_C@_04GFPJNGEK@ceil?$AA@ 1004f57c     LIBCMT:_libm_error_.obj
 0002:00003584       ??_C@_04MLLJIGOK@atan?$AA@ 1004f584     LIBCMT:_libm_error_.obj
 0002:0000358c       ??_C@_05EOHGHCHD@exp10?$AA@ 1004f58c     LIBCMT:_libm_error_.obj
 0002:00003594       ??_C@_04PDIFKINK@acos?$AA@ 1004f594     LIBCMT:_libm_error_.obj
 0002:0000359c       ??_C@_04FIHNOPOL@asin?$AA@ 1004f59c     LIBCMT:_libm_error_.obj
 0002:000035a4       ??_C@_03MGHMBJCF@log?$AA@  1004f5a4     LIBCMT:_libm_error_.obj
 0002:000035a8       ??_C@_05HGHHAHAP@log10?$AA@ 1004f5a8     LIBCMT:_libm_error_.obj
 0002:000035b0       ??_C@_03KHJOGHMM@exp?$AA@  1004f5b0     LIBCMT:_libm_error_.obj
 0002:000035b4       ??_C@_03JGHBODFD@pow?$AA@  1004f5b4     LIBCMT:_libm_error_.obj
 0002:00006f00       __infinity                 10052f00     LIBCMT:_87tran_.obj
 0002:00006f0a       __minfinity                10052f0a     LIBCMT:_87tran_.obj
 0002:00006f14       __logemax                  10052f14     LIBCMT:_87tran_.obj
 0002:00006f3a       __OP_EXPjmptab             10052f3a     LIBCMT:_87tran_.obj
 0002:00008770       ??_C@_1BC@GDGBMEMK@?$AAH?$AAH?$AA?3?$AAm?$AAm?$AA?3?$AAs?$AAs?$AA?$AA@ 10054770     LIBCMT:nlsdata2.obj
 0002:00008784       ??_C@_1CI@KNAKOEBC@?$AAd?$AAd?$AAd?$AAd?$AA?0?$AA?5?$AAM?$AAM?$AAM?$AAM?$AA?5?$AAd?$AAd?$AA?0?$AA?5?$AAy?$AAy?$AAy?$AAy?$AA?$AA@ 10054784     LIBCMT:nlsdata2.obj
 0002:000087ac       ??_C@_1BC@IEBCMHCM@?$AAM?$AAM?$AA?1?$AAd?$AAd?$AA?1?$AAy?$AAy?$AA?$AA@ 100547ac     LIBCMT:nlsdata2.obj
 0002:000087c0       ??_C@_15CLMNNGEL@?$AAP?$AAM?$AA?$AA@ 100547c0     LIBCMT:nlsdata2.obj
 0002:000087c8       ??_C@_15ODEHAHHF@?$AAA?$AAM?$AA?$AA@ 100547c8     LIBCMT:nlsdata2.obj
 0002:000087d0       ??_C@_1BC@FEMKIFH@?$AAD?$AAe?$AAc?$AAe?$AAm?$AAb?$AAe?$AAr?$AA?$AA@ 100547d0     LIBCMT:nlsdata2.obj
 0002:000087e4       ??_C@_1BC@BGLIFPF@?$AAN?$AAo?$AAv?$AAe?$AAm?$AAb?$AAe?$AAr?$AA?$AA@ 100547e4     LIBCMT:nlsdata2.obj
 0002:000087f8       ??_C@_1BA@EPANDLNG@?$AAO?$AAc?$AAt?$AAo?$AAb?$AAe?$AAr?$AA?$AA@ 100547f8     LIBCMT:nlsdata2.obj
 0002:00008808       ??_C@_1BE@DKAAMBJL@?$AAS?$AAe?$AAp?$AAt?$AAe?$AAm?$AAb?$AAe?$AAr?$AA?$AA@ 10054808     LIBCMT:nlsdata2.obj
 0002:0000881c       ??_C@_1O@PAHLKOAC@?$AAA?$AAu?$AAg?$AAu?$AAs?$AAt?$AA?$AA@ 1005481c     LIBCMT:nlsdata2.obj
 0002:0000882c       ??_C@_19BIFMLPCD@?$AAJ?$AAu?$AAl?$AAy?$AA?$AA@ 1005482c     LIBCMT:nlsdata2.obj
 0002:00008838       ??_C@_19EPFLPGAP@?$AAJ?$AAu?$AAn?$AAe?$AA?$AA@ 10054838     LIBCMT:nlsdata2.obj
 0002:00008844       ??_C@_1M@GJNLMHFD@?$AAA?$AAp?$AAr?$AAi?$AAl?$AA?$AA@ 10054844     LIBCMT:nlsdata2.obj
 0002:00008850       ??_C@_1M@IKEENEDF@?$AAM?$AAa?$AAr?$AAc?$AAh?$AA?$AA@ 10054850     LIBCMT:nlsdata2.obj
 0002:0000885c       ??_C@_1BC@JGDDFFAM@?$AAF?$AAe?$AAb?$AAr?$AAu?$AAa?$AAr?$AAy?$AA?$AA@ 1005485c     LIBCMT:nlsdata2.obj
 0002:00008870       ??_C@_1BA@EFMEIEBA@?$AAJ?$AAa?$AAn?$AAu?$AAa?$AAr?$AAy?$AA?$AA@ 10054870     LIBCMT:nlsdata2.obj
 0002:00008880       ??_C@_17EGKACKIF@?$AAD?$AAe?$AAc?$AA?$AA@ 10054880     LIBCMT:nlsdata2.obj
 0002:00008888       ??_C@_17BBDMLCIG@?$AAN?$AAo?$AAv?$AA?$AA@ 10054888     LIBCMT:nlsdata2.obj
 0002:00008890       ??_C@_17FNLKOI@?$AAO?$AAc?$AAt?$AA?$AA@ 10054890     LIBCMT:nlsdata2.obj
 0002:00008898       ??_C@_17HCHCOKMG@?$AAS?$AAe?$AAp?$AA?$AA@ 10054898     LIBCMT:nlsdata2.obj
 0002:000088a0       ??_C@_17ICPELBCN@?$AAA?$AAu?$AAg?$AA?$AA@ 100548a0     LIBCMT:nlsdata2.obj
 0002:000088a8       ??_C@_17IJPCKHK@?$AAJ?$AAu?$AAl?$AA?$AA@ 100548a8     LIBCMT:nlsdata2.obj
 0002:000088b0       ??_C@_17KCJGOCPB@?$AAJ?$AAu?$AAn?$AA?$AA@ 100548b0     LIBCMT:nlsdata2.obj
 0002:000088b8       ??_C@_17PNNKMEED@?$AAM?$AAa?$AAy?$AA?$AA@ 100548b8     LIBCMT:nlsdata2.obj
 0002:000088c0       ??_C@_17LFPOIHDD@?$AAA?$AAp?$AAr?$AA?$AA@ 100548c0     LIBCMT:nlsdata2.obj
 0002:000088c8       ??_C@_17CKNLEDEC@?$AAM?$AAa?$AAr?$AA?$AA@ 100548c8     LIBCMT:nlsdata2.obj
 0002:000088d0       ??_C@_17LMDJEKJN@?$AAF?$AAe?$AAb?$AA?$AA@ 100548d0     LIBCMT:nlsdata2.obj
 0002:000088d8       ??_C@_17DKNBKCHM@?$AAJ?$AAa?$AAn?$AA?$AA@ 100548d8     LIBCMT:nlsdata2.obj
 0002:000088e0       ??_C@_1BC@ENMNNPAJ@?$AAS?$AAa?$AAt?$AAu?$AAr?$AAd?$AAa?$AAy?$AA?$AA@ 100548e0     LIBCMT:nlsdata2.obj
 0002:000088f4       ??_C@_1O@PDICJHAG@?$AAF?$AAr?$AAi?$AAd?$AAa?$AAy?$AA?$AA@ 100548f4     LIBCMT:nlsdata2.obj
 0002:00008904       ??_C@_1BC@HHMNLIHE@?$AAT?$AAh?$AAu?$AAr?$AAs?$AAd?$AAa?$AAy?$AA?$AA@ 10054904     LIBCMT:nlsdata2.obj
 0002:00008918       ??_C@_1BE@EBOGMDOH@?$AAW?$AAe?$AAd?$AAn?$AAe?$AAs?$AAd?$AAa?$AAy?$AA?$AA@ 10054918     LIBCMT:nlsdata2.obj
 0002:0000892c       ??_C@_1BA@ENFBFFEK@?$AAT?$AAu?$AAe?$AAs?$AAd?$AAa?$AAy?$AA?$AA@ 1005492c     LIBCMT:nlsdata2.obj
 0002:0000893c       ??_C@_1O@MMNBFLIA@?$AAM?$AAo?$AAn?$AAd?$AAa?$AAy?$AA?$AA@ 1005493c     LIBCMT:nlsdata2.obj
 0002:0000894c       ??_C@_1O@IHNHDHPB@?$AAS?$AAu?$AAn?$AAd?$AAa?$AAy?$AA?$AA@ 1005494c     LIBCMT:nlsdata2.obj
 0002:0000895c       ??_C@_17GGIBDPIH@?$AAS?$AAa?$AAt?$AA?$AA@ 1005495c     LIBCMT:nlsdata2.obj
 0002:00008964       ??_C@_17HFOLPPLP@?$AAF?$AAr?$AAi?$AA?$AA@ 10054964     LIBCMT:nlsdata2.obj
 0002:0000896c       ??_C@_17PDPHAADD@?$AAT?$AAh?$AAu?$AA?$AA@ 1005496c     LIBCMT:nlsdata2.obj
 0002:00008974       ??_C@_17CJEDCEPE@?$AAW?$AAe?$AAd?$AA?$AA@ 10054974     LIBCMT:nlsdata2.obj
 0002:0000897c       ??_C@_17BMKGEGOJ@?$AAT?$AAu?$AAe?$AA?$AA@ 1005497c     LIBCMT:nlsdata2.obj
 0002:00008984       ??_C@_17KBOMKBF@?$AAM?$AAo?$AAn?$AA?$AA@ 10054984     LIBCMT:nlsdata2.obj
 0002:0000898c       ??_C@_17MBGCMIPB@?$AAS?$AAu?$AAn?$AA?$AA@ 1005498c     LIBCMT:nlsdata2.obj
 0002:00008994       ??_C@_08JCCMCCIL@HH?3mm?3ss?$AA@ 10054994     LIBCMT:nlsdata2.obj
 0002:000089a0       ??_C@_0BE@CKGJFCPC@dddd?0?5MMMM?5dd?0?5yyyy?$AA@ 100549a0     LIBCMT:nlsdata2.obj
 0002:000089b4       ??_C@_08BPBNCDIB@MM?1dd?1yy?$AA@ 100549b4     LIBCMT:nlsdata2.obj
 0002:000089c0       ??_C@_02CJNFDJBF@PM?$AA@   100549c0     LIBCMT:nlsdata2.obj
 0002:000089c4       ??_C@_02DEDBPAFC@AM?$AA@   100549c4     LIBCMT:nlsdata2.obj
 0002:000089c8       ??_C@_08EDHMEBNP@December?$AA@ 100549c8     LIBCMT:nlsdata2.obj
 0002:000089d4       ??_C@_08HCHEGEOA@November?$AA@ 100549d4     LIBCMT:nlsdata2.obj
 0002:000089e0       ??_C@_07JJNFCEND@October?$AA@ 100549e0     LIBCMT:nlsdata2.obj
 0002:000089e8       ??_C@_09BHHEALKD@September?$AA@ 100549e8     LIBCMT:nlsdata2.obj
 0002:000089f4       ??_C@_06LBBHFDDG@August?$AA@ 100549f4     LIBCMT:nlsdata2.obj
 0002:000089fc       ??_C@_04MIEPOIFP@July?$AA@ 100549fc     LIBCMT:nlsdata2.obj
 0002:00008a04       ??_C@_04CNLMGBGM@June?$AA@ 10054a04     LIBCMT:nlsdata2.obj
 0002:00008a0c       ??_C@_05DMJDNLEJ@April?$AA@ 10054a0c     LIBCMT:nlsdata2.obj
 0002:00008a14       ??_C@_05HPCKOFNC@March?$AA@ 10054a14     LIBCMT:nlsdata2.obj
 0002:00008a1c       ??_C@_08GNJGEPFN@February?$AA@ 10054a1c     LIBCMT:nlsdata2.obj
 0002:00008a28       ??_C@_07CGJPFGJA@January?$AA@ 10054a28     LIBCMT:nlsdata2.obj
 0002:00008a30       ??_C@_03MKABNOCG@Dec?$AA@  10054a30     LIBCMT:nlsdata2.obj
 0002:00008a34       ??_C@_03JPJOFNIA@Nov?$AA@  10054a34     LIBCMT:nlsdata2.obj
 0002:00008a38       ??_C@_03BMAOKBAD@Oct?$AA@  10054a38     LIBCMT:nlsdata2.obj
 0002:00008a3c       ??_C@_03GGCAPAJC@Sep?$AA@  10054a3c     LIBCMT:nlsdata2.obj
 0002:00008a40       ??_C@_03IFJFEIGA@Aug?$AA@  10054a40     LIBCMT:nlsdata2.obj
 0002:00008a44       ??_C@_03LBGABGKK@Jul?$AA@  10054a44     LIBCMT:nlsdata2.obj
 0002:00008a48       ??_C@_03IDFGHECI@Jun?$AA@  10054a48     LIBCMT:nlsdata2.obj
 0002:00008a4c       ??_C@_03CNMDKL@May?$AA@    10054a4c     LIBCMT:nlsdata2.obj
 0002:00008a50       ??_C@_03LEOLGMJP@Apr?$AA@  10054a50     LIBCMT:nlsdata2.obj
 0002:00008a54       ??_C@_03ODNJBKGA@Mar?$AA@  10054a54     LIBCMT:nlsdata2.obj
 0002:00008a58       ??_C@_03HJBDCHOM@Feb?$AA@  10054a58     LIBCMT:nlsdata2.obj
 0002:00008a5c       ??_C@_03JIHJHPIE@Jan?$AA@  10054a5c     LIBCMT:nlsdata2.obj
 0002:00008a60       ??_C@_08INBOOONO@Saturday?$AA@ 10054a60     LIBCMT:nlsdata2.obj
 0002:00008a6c       ??_C@_06JECMNKMI@Friday?$AA@ 10054a6c     LIBCMT:nlsdata2.obj
 0002:00008a74       ??_C@_08HACCIKIA@Thursday?$AA@ 10054a74     LIBCMT:nlsdata2.obj
 0002:00008a80       ??_C@_09DLIGFAKA@Wednesday?$AA@ 10054a80     LIBCMT:nlsdata2.obj
 0002:00008a8c       ??_C@_07BAAGCFCM@Tuesday?$AA@ 10054a8c     LIBCMT:nlsdata2.obj
 0002:00008a94       ??_C@_06JLEDEDGH@Monday?$AA@ 10054a94     LIBCMT:nlsdata2.obj
 0002:00008a9c       ??_C@_06OOPIFAJ@Sunday?$AA@ 10054a9c     LIBCMT:nlsdata2.obj
 0002:00008aa4       ??_C@_03FEFJNEK@Sat?$AA@   10054aa4     LIBCMT:nlsdata2.obj
 0002:00008aa8       ??_C@_03IDIOELNC@Fri?$AA@  10054aa8     LIBCMT:nlsdata2.obj
 0002:00008aac       ??_C@_03IOFIKPDN@Thu?$AA@  10054aac     LIBCMT:nlsdata2.obj
 0002:00008ab0       ??_C@_03MHOMLAJA@Wed?$AA@  10054ab0     LIBCMT:nlsdata2.obj
 0002:00008ab4       ??_C@_03NAGEINEP@Tue?$AA@  10054ab4     LIBCMT:nlsdata2.obj
 0002:00008ab8       ??_C@_03PDAGKDH@Mon?$AA@   10054ab8     LIBCMT:nlsdata2.obj
 0002:00008abc       ??_C@_03KOEHGMDN@Sun?$AA@  10054abc     LIBCMT:nlsdata2.obj
 0002:00008b40       ??_C@_01NEMOKFLO@?$DN?$AA@ 10054b40     LIBCMT:setlocal.obj
 0002:00008b44       ??_C@_1O@CEDCILHN@?$AA?$CI?$AAn?$AAu?$AAl?$AAl?$AA?$CJ?$AA?$AA@ 10054b44     LIBCMT:output.obj
 0002:00008b54       ??_C@_06OJHGLDPL@?$CInull?$CJ?$AA@ 10054b54     LIBCMT:output.obj
 0002:00008b60       ___lookuptable             10054b60     LIBCMT:output.obj
 0002:00008bbc       ??_C@_0BI@DFKBFLJE@GetProcessWindowStation?$AA@ 10054bbc     LIBCMT:crtmboxw.obj
 0002:00008bd4       ??_C@_0BK@DEKFELLI@GetUserObjectInformationW?$AA@ 10054bd4     LIBCMT:crtmboxw.obj
 0002:00008bf0       ??_C@_0BD@HHGDFDBJ@GetLastActivePopup?$AA@ 10054bf0     LIBCMT:crtmboxw.obj
 0002:00008c04       ??_C@_0BA@HNOPNCHB@GetActiveWindow?$AA@ 10054c04     LIBCMT:crtmboxw.obj
 0002:00008c14       ??_C@_0M@DLDCCGNP@MessageBoxW?$AA@ 10054c14     LIBCMT:crtmboxw.obj
 0002:00008c20       ??_C@_1BG@GOEBHBDC@?$AAU?$AAS?$AAE?$AAR?$AA3?$AA2?$AA?4?$AAD?$AAL?$AAL?$AA?$AA@ 10054c20     LIBCMT:crtmboxw.obj
 0002:00008c38       ??_C@_0BK@CFCOFLF@?5Complete?5Object?5Locator?8?$AA@ 10054c38     LIBCMT:undname.obj
 0002:00008c54       ??_C@_0BN@MECKDCOJ@?5Class?5Hierarchy?5Descriptor?8?$AA@ 10054c54     LIBCMT:undname.obj
 0002:00008c74       ??_C@_0BD@LGICGFMM@?5Base?5Class?5Array?8?$AA@ 10054c74     LIBCMT:undname.obj
 0002:00008c88       ??_C@_0BM@LDKODKLH@?5Base?5Class?5Descriptor?5at?5?$CI?$AA@ 10054c88     LIBCMT:undname.obj
 0002:00008ca4       ??_C@_0BC@DAFEJGAK@?5Type?5Descriptor?8?$AA@ 10054ca4     LIBCMT:undname.obj
 0002:00008cb8       ??_C@_0BM@PMGGMLDN@?$GAlocal?5static?5thread?5guard?8?$AA@ 10054cb8     LIBCMT:undname.obj
 0002:00008cd4       ??_C@_0CL@FGIJHLCE@?$GAmanaged?5vector?5copy?5constructor@ 10054cd4     LIBCMT:undname.obj
 0002:00008d00       ??_C@_0CJ@GJELGAMM@?$GAvector?5vbase?5copy?5constructor?5i@ 10054d00     LIBCMT:undname.obj
 0002:00008d2c       ??_C@_0CD@CGAJBKEJ@?$GAvector?5copy?5constructor?5iterato@ 10054d2c     LIBCMT:undname.obj
 0002:00008d50       ??_C@_0CB@PDBIFEP@?$GAdynamic?5atexit?5destructor?5for?5?8@ 10054d50     LIBCMT:undname.obj
 0002:00008d74       ??_C@_0BL@CLIPGLGB@?$GAdynamic?5initializer?5for?5?8?$AA@ 10054d74     LIBCMT:undname.obj
 0002:00008d90       ??_C@_0CM@FCBBDIGB@?$GAeh?5vector?5vbase?5copy?5constructo@ 10054d90     LIBCMT:undname.obj
 0002:00008dbc       ??_C@_0CG@HLDDJMAG@?$GAeh?5vector?5copy?5constructor?5iter@ 10054dbc     LIBCMT:undname.obj
 0002:00008de4       ??_C@_0CF@IMGKMJNO@?$GAmanaged?5vector?5destructor?5itera@ 10054de4     LIBCMT:undname.obj
 0002:00008e0c       ??_C@_0CG@CFDHKGGD@?$GAmanaged?5vector?5constructor?5iter@ 10054e0c     LIBCMT:undname.obj
 0002:00008e34       ??_C@_0BN@CKNJLHMB@?$GAplacement?5delete?$FL?$FN?5closure?8?$AA@ 10054e34     LIBCMT:undname.obj
 0002:00008e54       ??_C@_0BL@CNOONJFP@?$GAplacement?5delete?5closure?8?$AA@ 10054e54     LIBCMT:undname.obj
 0002:00008e70       ??_C@_0P@HJKNJFNN@?$GAomni?5callsig?8?$AA@ 10054e70     LIBCMT:undname.obj
 0002:00008e80       ??_C@_09LBNFPBCA@?5delete?$FL?$FN?$AA@ 10054e80     LIBCMT:undname.obj
 0002:00008e8c       ??_C@_06FHBGPFGH@?5new?$FL?$FN?$AA@ 10054e8c     LIBCMT:undname.obj
 0002:00008e94       ??_C@_0CE@IIHCMGGL@?$GAlocal?5vftable?5constructor?5closu@ 10054e94     LIBCMT:undname.obj
 0002:00008eb8       ??_C@_0BA@KKLDJDLB@?$GAlocal?5vftable?8?$AA@ 10054eb8     LIBCMT:undname.obj
 0002:00008ec8       ??_C@_05KHLCHHI@?$GARTTI?$AA@ 10054ec8     LIBCMT:undname.obj
 0002:00008ed0       ??_C@_03KLGMFNMG@?$GAEH?$AA@ 10054ed0     LIBCMT:undname.obj
 0002:00008ed4       ??_C@_0BA@KBCDOMBN@?$GAudt?5returning?8?$AA@ 10054ed4     LIBCMT:undname.obj
 0002:00008ee4       ??_C@_0BL@LLKPOHJI@?$GAcopy?5constructor?5closure?8?$AA@ 10054ee4     LIBCMT:undname.obj
 0002:00008f00       ??_C@_0CH@OOJPLCPH@?$GAeh?5vector?5vbase?5constructor?5ite@ 10054f00     LIBCMT:undname.obj
 0002:00008f28       ??_C@_0CA@GCEOPDGL@?$GAeh?5vector?5destructor?5iterator?8?$AA@ 10054f28     LIBCMT:undname.obj
 0002:00008f48       ??_C@_0CB@JONCMFFK@?$GAeh?5vector?5constructor?5iterator?8@ 10054f48     LIBCMT:undname.obj
 0002:00008f6c       ??_C@_0BL@NILFHHPC@?$GAvirtual?5displacement?5map?8?$AA@ 10054f6c     LIBCMT:undname.obj
 0002:00008f88       ??_C@_0CE@IKBNEHA@?$GAvector?5vbase?5constructor?5iterat@ 10054f88     LIBCMT:undname.obj
 0002:00008fac       ??_C@_0BN@LFPFMEDL@?$GAvector?5destructor?5iterator?8?$AA@ 10054fac     LIBCMT:undname.obj
 0002:00008fcc       ??_C@_0BO@PFGOCPJJ@?$GAvector?5constructor?5iterator?8?$AA@ 10054fcc     LIBCMT:undname.obj
 0002:00008fec       ??_C@_0BN@IMDCHIKM@?$GAscalar?5deleting?5destructor?8?$AA@ 10054fec     LIBCMT:undname.obj
 0002:0000900c       ??_C@_0BO@OBMKPJIG@?$GAdefault?5constructor?5closure?8?$AA@ 1005500c     LIBCMT:undname.obj
 0002:0000902c       ??_C@_0BN@DEGPLNFK@?$GAvector?5deleting?5destructor?8?$AA@ 1005502c     LIBCMT:undname.obj
 0002:0000904c       ??_C@_0BD@JDLKDPAB@?$GAvbase?5destructor?8?$AA@ 1005504c     LIBCMT:undname.obj
 0002:00009060       ??_C@_08OBABFOLI@?$GAstring?8?$AA@ 10055060     LIBCMT:undname.obj
 0002:0000906c       ??_C@_0BF@KDPPACIK@?$GAlocal?5static?5guard?8?$AA@ 1005506c     LIBCMT:undname.obj
 0002:00009084       ??_C@_08LLFFHHDJ@?$GAtypeof?8?$AA@ 10055084     LIBCMT:undname.obj
 0002:00009090       ??_C@_07FEEIOKP@?$GAvcall?8?$AA@ 10055090     LIBCMT:undname.obj
 0002:00009098       ??_C@_09BLBHBJP@?$GAvbtable?8?$AA@ 10055098     LIBCMT:undname.obj
 0002:000090a4       ??_C@_09IFPLHPGF@?$GAvftable?8?$AA@ 100550a4     LIBCMT:undname.obj
 0002:000090b0       ??_C@_02MHEGNOJ@?$FO?$DN?$AA@ 100550b0     LIBCMT:undname.obj
 0002:000090b4       ??_C@_02DHLNPPGH@?$HM?$DN?$AA@ 100550b4     LIBCMT:undname.obj
 0002:000090b8       ??_C@_02FGJGFEAB@?$CG?$DN?$AA@ 100550b8     LIBCMT:undname.obj
 0002:000090bc       ??_C@_03CDNPDDLA@?$DM?$DM?$DN?$AA@ 100550bc     LIBCMT:undname.obj
 0002:000090c0       ??_C@_03IKFCCPFF@?$DO?$DO?$DN?$AA@ 100550c0     LIBCMT:undname.obj
 0002:000090c4       ??_C@_02FENAOKFI@?$CF?$DN?$AA@ 100550c4     LIBCMT:undname.obj
 0002:000090c8       ??_C@_02FJEHGPIO@?1?$DN?$AA@ 100550c8     LIBCMT:undname.obj
 0002:000090cc       ??_C@_02FKMDLLOA@?9?$DN?$AA@ 100550cc     LIBCMT:undname.obj
 0002:000090d0       ??_C@_02FOEOMHFC@?$CL?$DN?$AA@ 100550d0     LIBCMT:undname.obj
 0002:000090d4       ??_C@_02FPIMKNGF@?$CK?$DN?$AA@ 100550d4     LIBCMT:undname.obj
 0002:000090d8       ??_C@_02NONPIBCD@?$HM?$HM?$AA@ 100550d8     LIBCMT:undname.obj
 0002:000090dc       ??_C@_02PPKAJPJL@?$CG?$CG?$AA@ 100550dc     LIBCMT:undname.obj
 0002:000090e0       ??_C@_01DNKMNLPK@?$HM?$AA@ 100550e0     LIBCMT:undname.obj
 0002:000090e4       ??_C@_01JKBOJNNK@?$FO?$AA@ 100550e4     LIBCMT:undname.obj
 0002:000090e8       ??_C@_01PJKLJHI@?$HO?$AA@  100550e8     LIBCMT:undname.obj
 0002:000090ec       ??_C@_02HCKGKOFO@?$CI?$CJ?$AA@ 100550ec     LIBCMT:undname.obj
 0002:000090f0       ??_C@_01IHBHIGKO@?0?$AA@   100550f0     LIBCMT:undname.obj
 0002:000090f4       ??_C@_02EEKDKGMJ@?$DO?$DN?$AA@ 100550f4     LIBCMT:undname.obj
 0002:000090f8       ??_C@_01PPODPGHN@?$DO?$AA@ 100550f8     LIBCMT:undname.obj
 0002:000090fc       ??_C@_02EHCHHCKH@?$DM?$DN?$AA@ 100550fc     LIBCMT:undname.obj
 0002:00009100       ??_C@_01MNNFJEPP@?$DM?$AA@ 10055100     LIBCMT:undname.obj
 0002:00009104       ??_C@_01FGNFDNOH@?$CF?$AA@ 10055104     LIBCMT:undname.obj
 0002:00009108       ??_C@_01KMDKNFGN@?1?$AA@   10055108     LIBCMT:undname.obj
 0002:0000910c       ??_C@_03MNHNFDLC@?9?$DO?$CK?$AA@ 1005510c     LIBCMT:undname.obj
 0002:00009110       ??_C@_01HNPIGOCE@?$CG?$AA@ 10055110     LIBCMT:undname.obj
 0002:00009114       ??_C@_01MIFGBAGJ@?$CL?$AA@ 10055114     LIBCMT:undname.obj
 0002:00009118       ??_C@_02BAABKJLB@?9?9?$AA@ 10055118     LIBCMT:undname.obj
 0002:0000911c       ??_C@_02ECNGHCIF@?$CL?$CL?$AA@ 1005511c     LIBCMT:undname.obj
 0002:00009120       ??_C@_01NBENCBCI@?$CK?$AA@ 10055120     LIBCMT:undname.obj
 0002:00009124       ??_C@_02HBOOOICD@?9?$DO?$AA@ 10055124     LIBCMT:undname.obj
 0002:00009128       ??_C@_08LHJFAFGD@operator?$AA@ 10055128     LIBCMT:undname.obj
 0002:00009134       ??_C@_02GPECMEKF@?$FL?$FN?$AA@ 10055134     LIBCMT:undname.obj
 0002:00009138       ??_C@_02FDNJECIE@?$CB?$DN?$AA@ 10055138     LIBCMT:undname.obj
 0002:0000913c       ??_C@_02EGOFBIJA@?$DN?$DN?$AA@ 1005513c     LIBCMT:undname.obj
 0002:00009140       ??_C@_01DCLJPIOD@?$CB?$AA@ 10055140     LIBCMT:undname.obj
 0002:00009144       ??_C@_02FODMEDOG@?$DM?$DM?$AA@ 10055144     LIBCMT:undname.obj
 0002:00009148       ??_C@_02GPIOPFAK@?$DO?$DO?$AA@ 10055148     LIBCMT:undname.obj
 0002:0000914c       ??_C@_07FPCDHGMM@?5delete?$AA@ 1005514c     LIBCMT:undname.obj
 0002:00009154       ??_C@_04NIHEBCM@?5new?$AA@ 10055154     LIBCMT:undname.obj
 0002:0000915c       ??_C@_0M@GFIIJFMG@__unaligned?$AA@ 1005515c     LIBCMT:undname.obj
 0002:00009168       ??_C@_0L@PILCLIHE@__restrict?$AA@ 10055168     LIBCMT:undname.obj
 0002:00009174       ??_C@_07JOMMBBKO@__ptr64?$AA@ 10055174     LIBCMT:undname.obj
 0002:0000917c       ??_C@_06GHPCKEAG@__eabi?$AA@ 1005517c     LIBCMT:undname.obj
 0002:00009184       ??_C@_09HIJEGCPM@__clrcall?$AA@ 10055184     LIBCMT:undname.obj
 0002:00009190       ??_C@_0L@JMKHOMEK@__fastcall?$AA@ 10055190     LIBCMT:undname.obj
 0002:0000919c       ??_C@_0L@NPHFGOKO@__thiscall?$AA@ 1005519c     LIBCMT:undname.obj
 0002:000091a8       ??_C@_09IFJBGAPI@__stdcall?$AA@ 100551a8     LIBCMT:undname.obj
 0002:000091b4       ??_C@_08GHMPAG@__pascal?$AA@ 100551b4     LIBCMT:undname.obj
 0002:000091c0       ??_C@_07KOLFKCDI@__cdecl?$AA@ 100551c0     LIBCMT:undname.obj
 0002:000091c8       ??_C@_08EHJDFFNH@__based?$CI?$AA@ 100551c8     LIBCMT:undname.obj
 0002:0000935c       ??_C@_0L@KDOEJCKC@_nextafter?$AA@ 1005535c     LIBCMT:_fpexcept_.obj
 0002:00009368       ??_C@_05JGDBENOH@_logb?$AA@ 10055368     LIBCMT:_fpexcept_.obj
 0002:00009370       ??_C@_03ONILCKOB@_yn?$AA@  10055370     LIBCMT:_fpexcept_.obj
 0002:00009374       ??_C@_03NAKIGLHK@_y1?$AA@  10055374     LIBCMT:_fpexcept_.obj
 0002:00009378       ??_C@_03MJLDFKDL@_y0?$AA@  10055378     LIBCMT:_fpexcept_.obj
 0002:0000937c       ??_C@_05GKKHEGJL@frexp?$AA@ 1005537c     LIBCMT:_fpexcept_.obj
 0002:00009384       ??_C@_04KEPJIHGP@fmod?$AA@ 10055384     LIBCMT:_fpexcept_.obj
 0002:0000938c       ??_C@_06MEIMCGCF@_hypot?$AA@ 1005538c     LIBCMT:_fpexcept_.obj
 0002:00009394       ??_C@_05KBKMEMPO@_cabs?$AA@ 10055394     LIBCMT:_fpexcept_.obj
 0002:0000939c       ??_C@_05CEJMAHNP@ldexp?$AA@ 1005539c     LIBCMT:_fpexcept_.obj
 0002:000093a4       ??_C@_04ODHECPBC@fabs?$AA@ 100553a4     LIBCMT:_fpexcept_.obj
 0002:000093ac       ??_C@_04EIAKFFMI@sqrt?$AA@ 100553ac     LIBCMT:_fpexcept_.obj
 0002:000093b4       ??_C@_05KNGEOGJB@atan2?$AA@ 100553b4     LIBCMT:_fpexcept_.obj
 0002:000093bc       ??_C@_04FJHINJAO@tanh?$AA@ 100553bc     LIBCMT:_fpexcept_.obj
 0002:000093c4       ??_C@_04HPJJNFIM@cosh?$AA@ 100553c4     LIBCMT:_fpexcept_.obj
 0002:000093cc       ??_C@_04COOMCNPB@sinh?$AA@ 100553cc     LIBCMT:_fpexcept_.obj
 0002:000093d8       ___newctype                100553d8     LIBCMT:ctype.obj
 0002:000096d8       __wctype                   100556d8     LIBCMT:ctype.obj
 0002:000098e0       ___newclmap                100558e0     LIBCMT:ctype.obj
 0002:00009a60       ___newcumap                10055a60     LIBCMT:ctype.obj
 0002:00009be8       ??_C@_06IMKFLFPG@1?$CDQNAN?$AA@ 10055be8     LIBCMT:_x10fout_.obj
 0002:00009bf0       ??_C@_05DNEBIAHO@1?$CDINF?$AA@ 10055bf0     LIBCMT:_x10fout_.obj
 0002:00009bf8       ??_C@_05PHHOCPM@1?$CDIND?$AA@ 10055bf8     LIBCMT:_x10fout_.obj
 0002:00009c00       ??_C@_06PGGFOGJG@1?$CDSNAN?$AA@ 10055c00     LIBCMT:_x10fout_.obj
 0002:00009c08       ??_C@_1BA@BALFACEM@?$AAC?$AAO?$AAN?$AAO?$AAU?$AAT?$AA$?$AA?$AA@ 10055c08     LIBCMT:initcon.obj
 0002:00009c18       ___lookuptable_s           10055c18     LIBCMT:outputs.obj
 0002:00009c74       ??_C@_0BD@NNFOBGDC@SDK_Aftershock_dx9?$AA@ 10055c74     aftershock.obj
 0002:00009c88       ??_C@_0P@PFNDMNHD@SDK_Aftershock?$AA@ 10055c88     aftershock.obj
 0002:00009c97       ??_C@_00CNPNBAHC@?$AA@     10055c97     aftershock.obj
 0002:00009c98       ??_C@_0L@JKNNGCKM@Aftershock?$AA@ 10055c98     aftershock.obj
 0002:00009ca4       ??_C@_0L@HHJPMOMN@Color?5tint?$AA@ 10055ca4     aftershock.obj
 0002:00009cb0       ??_C@_07INOGPGGA@?$FL1?51?51?$FN?$AA@ 10055cb0     aftershock.obj
 0002:00009cb8       ??_C@_0L@NEPAPPNL@$COLORTINT?$AA@ 10055cb8     aftershock.obj
 0002:00009cc4       ??_C@_01FDFGLJHB@2?$AA@    10055cc4     aftershock.obj
 0002:00009cc8       ??_C@_0P@CHMMDNBF@$REFRACTAMOUNT?$AA@ 10055cc8     aftershock.obj
 0002:00009cd8       ??_C@_0L@BPNNKCKC@normal?5map?$AA@ 10055cd8     aftershock.obj
 0002:00009ce4       ??_C@_0CB@BBKCKLDB@models?1shadertest?1shader1_normal@ 10055ce4     aftershock.obj
 0002:00009d08       ??_C@_0L@OKCAPPED@$NORMALMAP?$AA@ 10055d08     aftershock.obj
 0002:00009d14       ??_C@_0BK@FDIPAKLM@frame?5number?5for?5$bumpmap?$AA@ 10055d14     aftershock.obj
 0002:00009d30       ??_C@_01GBGANLPD@0?$AA@    10055d30     aftershock.obj
 0002:00009d34       ??_C@_0L@NMMMLADI@$BUMPFRAME?$AA@ 10055d34     aftershock.obj
 0002:00009d40       ??_C@_0BM@KHPCFGBA@$bumpmap?5texcoord?5transform?$AA@ 10055d40     aftershock.obj
 0002:00009d5c       ??_C@_0CO@CGOPOACG@center?5?45?5?45?5scale?51?51?5rotate?50?5@ 10055d5c     aftershock.obj
 0002:00009d8c       ??_C@_0P@OBPMKMDJ@$BUMPTRANSFORM?$AA@ 10055d8c     aftershock.obj
 0002:00009d9c       ??_C@_01HIHLOKLC@1?$AA@    10055d9c     aftershock.obj
 0002:00009da0       ??_C@_0BF@BILMPDO@$SILHOUETTETHICKNESS?$AA@ 10055da0     aftershock.obj
 0002:00009db8       ??_C@_0BG@JJMKACCM@Silhouette?5color?5tint?$AA@ 10055db8     aftershock.obj
 0002:00009dd0       ??_C@_0BB@BAOLKIIG@$SILHOUETTECOLOR?$AA@ 10055dd0     aftershock.obj
 0002:00009de4       ??_C@_0L@ODEBBAIP@$GROUNDMIN?$AA@ 10055de4     aftershock.obj
 0002:00009df0       ??_C@_0L@PBMKPEOA@$GROUNDMAX?$AA@ 10055df0     aftershock.obj
 0002:00009dfc       ??_C@_0M@GJGAABHI@$BLURAMOUNT?$AA@ 10055dfc     aftershock.obj
 0002:00009e08       ??_C@_0BI@FGJNLG@Needs?5CurrentTime?5Proxy?$AA@ 10055e08     aftershock.obj
 0002:00009e20       ??_C@_03MDAFIFFL@0?40?$AA@ 10055e20     aftershock.obj
 0002:00009e24       ??_C@_05MMDMCBD@$TIME?$AA@ 10055e24     aftershock.obj
 0002:00009e2c       ??_C@_0P@CLNIMFKG@Aftershock_dx8?$AA@ 10055e2c     aftershock.obj
 0002:00009e44       ??_7CShader@SDK_Aftershock@@6B@ 10055e44     aftershock.obj
 0002:00009e9c       ??_7CShader@SDK_Aftershock_dx9@@6B@ 10055e9c     aftershock.obj
 0002:0000a448       ??_C@_0BE@KADJHADF@sdk_aftershock_vs20?$AA@ 10056448     aftershock_helper.obj
 0002:0000a45c       ??_C@_0BF@NHIBBHGL@sdk_aftershock_ps20b?$AA@ 1005645c     aftershock_helper.obj
 0002:0000a474       ??_C@_0BE@CPHJIFJF@sdk_aftershock_ps20?$AA@ 10056474     aftershock_helper.obj
 0002:0000a488       ??_C@_0P@EDPJKOMO@mat_fullbright?$AA@ 10056488     BaseVSShader.obj
 0002:0000a498       ??_C@_0CH@HEOPIJLP@sdk_lightmappedgeneric_flashligh@ 10056498     BaseVSShader.obj
 0002:0000a4c0       ??_C@_0CF@HDFHLIEO@sdk_vertexlitgeneric_flashlight_@ 100564c0     BaseVSShader.obj
 0002:0000a4e8       ??_C@_0BE@BLOGKICP@sdk_flashlight_ps11?$AA@ 100564e8     BaseVSShader.obj
 0002:0000a4fc       ??_C@_0CH@GPLCAGKH@sdk_lightmappedgeneric_flashligh@ 100564fc     BaseVSShader.obj
 0002:0000a524       ??_C@_0BF@OPHGBHAN@sdk_flashlight_ps20b?$AA@ 10056524     BaseVSShader.obj
 0002:0000a53c       ??_C@_0BE@LLCHDH@sdk_flashlight_ps20?$AA@ 1005653c     BaseVSShader.obj
 0002:0000a550       ??_C@_0BG@MHIPEPBN@depthtodestalpha_vs20?$AA@ 10056550     BaseVSShader.obj
 0002:0000a568       ??_C@_0BH@OCFDAJKO@depthtodestalpha_ps20b?$AA@ 10056568     BaseVSShader.obj
 0002:0000a580       ??_C@_0O@LNEIENEI@Bleach_Bypass?$AA@ 10056580     bleach_bypass.obj
 0002:0000a590       ??_C@_0BA@ILBMGKJD@_rt_FullFrameFB?$AA@ 10056590     bleach_bypass.obj
 0002:0000a5a0       ??_C@_0L@DFAJBEFN@$FBTEXTURE?$AA@ 100565a0     bleach_bypass.obj
 0002:0000a5ac       ??_C@_03HLLJOCDO@1?40?$AA@ 100565ac     bleach_bypass.obj
 0002:0000a5b0       ??_C@_08CIAEINJO@$OPACITY?$AA@ 100565b0     bleach_bypass.obj
 0002:0000a5bc       ??_C@_09GCGMAPH@Wireframe?$AA@ 100565bc     bleach_bypass.obj
 0002:0000a5c8       ??_C@_0BI@FPGIMLAM@screenspace_simple_vs20?$AA@ 100565c8     bleach_bypass.obj
 0002:0000a5e0       ??_C@_0BE@DAIDMAIJ@bleach_bypass_ps20b?$AA@ 100565e0     bleach_bypass.obj
 0002:0000a5f4       ??_C@_0BD@JFIDGAJL@bleach_bypass_ps20?$AA@ 100565f4     bleach_bypass.obj
 0002:0000a60c       ??_7CShader@Bleach_Bypass@@6B@ 1005660c     bleach_bypass.obj
 0002:0000a65c       ??_C@_09ICINPAKF@SDK_Bloom?$AA@ 1005665c     Bloom.obj
 0002:0000a668       ??_C@_0O@FFJMKBBH@_rt_SmallHDR0?$AA@ 10056668     Bloom.obj
 0002:0000a678       ??_C@_0N@HECLOENI@$BLURTEXTURE?$AA@ 10056678     Bloom.obj
 0002:0000a688       ??_C@_0BL@MJNPLBGG@sdk_screenspaceeffect_vs20?$AA@ 10056688     Bloom.obj
 0002:0000a6a4       ??_C@_0BA@PPIHEFNE@sdk_bloom_ps20b?$AA@ 100566a4     Bloom.obj
 0002:0000a6b4       ??_C@_0P@CLJDKEKN@sdk_bloom_ps20?$AA@ 100566b4     Bloom.obj
 0002:0000a6cc       ??_7CShader@SDK_Bloom@@6B@ 100566cc     Bloom.obj
 0002:0000a71c       ??_C@_09IJLEALDN@SDK_Cable?$AA@ 1005671c     cable_dx9.obj
 0002:0000a728       ??_C@_0O@NIMHPKGH@SDK_Cable_DX9?$AA@ 10056728     cable_dx9.obj
 0002:0000a738       ??_C@_0BA@EDBLJOED@bumpmap?5texture?$AA@ 10056738     cable_dx9.obj
 0002:0000a748       ??_C@_0BF@EODCNEGG@cable?1cablenormalmap?$AA@ 10056748     cable_dx9.obj
 0002:0000a760       ??_C@_08PFPGNHEE@$BUMPMAP?$AA@ 10056760     cable_dx9.obj
 0002:0000a76c       ??_C@_0CE@EOODHLC@Minimum?5amount?5of?5light?5?$CI0?91?5val@ 1005676c     cable_dx9.obj
 0002:0000a790       ??_C@_03NKBOLEBK@0?41?$AA@ 10056790     cable_dx9.obj
 0002:0000a794       ??_C@_09NMBMNDBC@$MINLIGHT?$AA@ 10056794     cable_dx9.obj
 0002:0000a7a0       ??_C@_0BI@DMPJIIDH@Maximum?5amount?5of?5light?$AA@ 100567a0     cable_dx9.obj
 0002:0000a7b8       ??_C@_03OICINGJI@0?43?$AA@ 100567b8     cable_dx9.obj
 0002:0000a7bc       ??_C@_09LPHGBFD@$MAXLIGHT?$AA@ 100567bc     cable_dx9.obj
 0002:0000a7c8       ??_C@_09HPAEPFPA@Cable_DX8?$AA@ 100567c8     cable_dx9.obj
 0002:0000a7d4       ??_C@_0P@NMIMKLKO@sdk_cable_vs20?$AA@ 100567d4     cable_dx9.obj
 0002:0000a7e4       ??_C@_0BA@LACAOIHM@sdk_cable_ps20b?$AA@ 100567e4     cable_dx9.obj
 0002:0000a7f4       ??_C@_0P@FDMMFOAO@sdk_cable_ps20?$AA@ 100567f4     cable_dx9.obj
 0002:0000a80c       ??_7CShader@SDK_Cable@@6B@ 1005680c     cable_dx9.obj
 0002:0000a864       ??_7CShader@SDK_Cable_DX9@@6B@ 10056864     cable_dx9.obj
 0002:0000a8b4       ??_C@_0BF@MKMKEAAK@Chromatic_Dispersion?$AA@ 100568b4     chromatic.obj
 0002:0000a8cc       ??_C@_0N@ECIMBNKH@$FOCUSOFFSET?$AA@ 100568cc     chromatic.obj
 0002:0000a8dc       ??_C@_07PBFEGDKN@$RADIAL?$AA@ 100568dc     chromatic.obj
 0002:0000a8e4       ??_C@_0BA@JDBGDPHM@chromatic_ps20b?$AA@ 100568e4     chromatic.obj
 0002:0000a8f4       ??_C@_0P@LMHMOBPJ@chromatic_ps20?$AA@ 100568f4     chromatic.obj
 0002:0000a90c       ??_7CShader@Chromatic_Dispersion@@6B@ 1005690c     chromatic.obj
 0002:0000a95c       ??_C@_0BM@KMHPLHMM@sdk_cloak_blended_pass_vs20?$AA@ 1005695c     cloak_blended_pass_helper.obj
 0002:0000a978       ??_C@_0BN@BDOMBLBE@sdk_cloak_blended_pass_ps20b?$AA@ 10056978     cloak_blended_pass_helper.obj
 0002:0000a998       ??_C@_0BM@CDDPECGM@sdk_cloak_blended_pass_ps20?$AA@ 10056998     cloak_blended_pass_helper.obj
 0002:0000a9b4       ??_C@_0BM@KNLNNNPL@sdk_cloak_blended_pass_vs30?$AA@ 100569b4     cloak_blended_pass_helper.obj
 0002:0000a9d0       ??_C@_0BM@CCPNCIFL@sdk_cloak_blended_pass_ps30?$AA@ 100569d0     cloak_blended_pass_helper.obj
 0002:0000a9ec       ??_C@_0BE@DHEBPGBJ@r_lightwarpidentity?$AA@ 100569ec     cloak_dx9_helper.obj
 0002:0000aa00       ??_C@_0P@KLGDLNCF@Color_Clipping?$AA@ 10056a00     color_clipping.obj
 0002:0000aa10       ??_C@_09OKGFDNA@?$FL0?50?50?51?$FN?$AA@ 10056a10     color_clipping.obj
 0002:0000aa1c       ??_C@_09CGBOKCGF@$MINCOLOR?$AA@ 10056a1c     color_clipping.obj
 0002:0000aa28       ??_C@_09ICMKGFJH@?$FL1?51?51?51?$FN?$AA@ 10056a28     color_clipping.obj
 0002:0000aa34       ??_C@_09PBPFBACE@$MAXCOLOR?$AA@ 10056a34     color_clipping.obj
 0002:0000aa40       ??_C@_07HCLLGGKK@$SQUISH?$AA@ 10056a40     color_clipping.obj
 0002:0000aa48       ??_C@_0BF@BFMKHLBF@color_clipping_ps20b?$AA@ 10056a48     color_clipping.obj
 0002:0000aa60       ??_C@_0BE@LDOKFMCJ@color_clipping_ps20?$AA@ 10056a60     color_clipping.obj
 0002:0000aa7c       ??_7CShader@Color_Clipping@@6B@ 10056a7c     color_clipping.obj
 0002:0000aacc       ??_C@_0M@ODCACKPN@Complements?$AA@ 10056acc     complements.obj
 0002:0000aad8       ??_C@_09JBGGCPGP@$GUIDEHUE?$AA@ 10056ad8     complements.obj
 0002:0000aae4       ??_C@_07DEPICDNH@$AMOUNT?$AA@ 10056ae4     complements.obj
 0002:0000aaec       ??_C@_0N@IDPLAOHF@$CONCENTRATE?$AA@ 10056aec     complements.obj
 0002:0000aafc       ??_C@_0L@DEDCDMCH@$DESATCORR?$AA@ 10056afc     complements.obj
 0002:0000ab08       ??_C@_0BC@DNOCJGIK@complements_ps20b?$AA@ 10056b08     complements.obj
 0002:0000ab24       ??_7CShader@Complements@@6B@ 10056b24     complements.obj
 0002:0000ab74       ??_C@_08HHMDCHEE@SDK_Core?$AA@ 10056b74     core_dx9.obj
 0002:0000ab80       ??_C@_08PNBPAFID@override?$AA@ 10056b80     core_dx9.obj
 0002:0000ab8c       ??_C@_0O@MJOPCFCM@SDK_Core_DX90?$AA@ 10056b8c     core_dx9.obj
 0002:0000ab9c       ??_C@_06OJAIHGIC@unused?$AA@ 10056b9c     core_dx9.obj
 0002:0000aba4       ??_C@_0O@OCOEAKFF@?$HL255?5255?5255?$HN?$AA@ 10056ba4     core_dx9.obj
 0002:0000abb4       ??_C@_0BA@HHKHDCGM@refraction?5tint?$AA@ 10056bb4     core_dx9.obj
 0002:0000abc4       ??_C@_0N@LDIEFGGH@$REFRACTTINT?$AA@ 10056bc4     core_dx9.obj
 0002:0000abd4       ??_C@_04MPNNEBNI@0?40f?$AA@ 10056bd4     core_dx9.obj
 0002:0000abdc       ??_C@_06FABHMPLJ@envmap?$AA@ 10056bdc     core_dx9.obj
 0002:0000abe4       ??_C@_0BK@PAPJFBHL@shadertest?1shadertest_env?$AA@ 10056be4     core_dx9.obj
 0002:0000ac00       ??_C@_07NBEOHNNA@$ENVMAP?$AA@ 10056c00     core_dx9.obj
 0002:0000ac08       ??_C@_0BE@OOFDOFAF@envmap?5frame?5number?$AA@ 10056c08     core_dx9.obj
 0002:0000ac1c       ??_C@_0N@LPLBLMNN@$ENVMAPFRAME?$AA@ 10056c1c     core_dx9.obj
 0002:0000ac2c       ??_C@_0M@NEOBNNPM@envmap?5tint?$AA@ 10056c2c     core_dx9.obj
 0002:0000ac38       ??_C@_0M@GKAPIEHF@$ENVMAPTINT?$AA@ 10056c38     core_dx9.obj
 0002:0000ac44       ??_C@_0CG@CIFJOHKP@contrast?50?5?$DN?$DN?5normal?51?5?$DN?$DN?5color?$CK@ 10056c44     core_dx9.obj
 0002:0000ac6c       ??_C@_0BA@EPLKPKAO@$ENVMAPCONTRAST?$AA@ 10056c6c     core_dx9.obj
 0002:0000ac7c       ??_C@_0CG@MHHCDKGK@saturation?50?5?$DN?$DN?5greyscale?51?5?$DN?$DN?5n@ 10056c7c     core_dx9.obj
 0002:0000aca4       ??_C@_0BC@IDPPLOBL@$ENVMAPSATURATION?$AA@ 10056ca4     core_dx9.obj
 0002:0000acb8       ??_C@_07NNHJNJFE@flowmap?$AA@ 10056cb8     core_dx9.obj
 0002:0000acc0       ??_C@_08HMBCHNLI@$FLOWMAP?$AA@ 10056cc0     core_dx9.obj
 0002:0000accc       ??_C@_0BK@NKGLKAEA@frame?5number?5for?5$flowmap?$AA@ 10056ccc     core_dx9.obj
 0002:0000ace8       ??_C@_0O@GIPMJFCB@$FLOWMAPFRAME?$AA@ 10056ce8     core_dx9.obj
 0002:0000acf8       ??_C@_0BL@KMLLOIPM@2D?5rate?5to?5scroll?5$flowmap?$AA@ 10056cf8     core_dx9.obj
 0002:0000ad14       ??_C@_04GBDOHOIK@?$FL0?50?$AA@ 10056d14     core_dx9.obj
 0002:0000ad1c       ??_C@_0BD@MNKCJGLE@$FLOWMAPSCROLLRATE?$AA@ 10056d1c     core_dx9.obj
 0002:0000ad30       ??_C@_0BC@NKEEKNGH@$CORECOLORTEXTURE?$AA@ 10056d30     core_dx9.obj
 0002:0000ad44       ??_C@_0BH@NFGBINFN@$CORECOLORTEXTUREFRAME?$AA@ 10056d44     core_dx9.obj
 0002:0000ad5c       ??_C@_0BH@DBAJKBMA@$FLOWMAPTEXCOORDOFFSET?$AA@ 10056d5c     core_dx9.obj
 0002:0000ad74       ??_C@_09BGMEJLMA@Core_dx90?$AA@ 10056d74     core_dx9.obj
 0002:0000ad80       ??_C@_0O@EABOOCBB@sdk_core_vs20?$AA@ 10056d80     core_dx9.obj
 0002:0000ad90       ??_C@_0P@OLGCNECI@sdk_core_ps20b?$AA@ 10056d90     core_dx9.obj
 0002:0000ada0       ??_C@_0O@MPFOBHLB@sdk_core_ps20?$AA@ 10056da0     core_dx9.obj
 0002:0000adb4       ??_7CShader@SDK_Core@@6B@  10056db4     core_dx9.obj
 0002:0000ae0c       ??_7CShader@SDK_Core_DX90@@6B@ 10056e0c     core_dx9.obj
 0002:0000ae60       ??_C@_0EB@FIJHBPFG@?9?9?9?9?9?9?9?9?9?9?9?9?9?9?9?9?9?9?9?9?9?9?9?9?9?9?9?9?9?9?9?9@ 10056e60     credits.obj
 0002:0000aea8       ??_C@_0GO@PJEJMNIA@This?5mod?5happily?5uses?5and?5possib@ 10056ea8     credits.obj
 0002:0000af18       ??_C@_0FI@EAFGMEHC@You?5can?5find?5the?5complete?5source@ 10056f18     credits.obj
 0002:0000af70       ??_C@_0FD@NPFJNBMJ@Cory?5de?5La?5Torre?5?8MrTwoVideoCard@ 10056f70     credits.obj
 0002:0000afc8       ??_C@_0FD@IAPFPPPA@Kyle?5Martin?5Gospodnetich?5?81?14?5Li@ 10056fc8     credits.obj
 0002:0000b01c       ??_C@_0DK@NPKPAHBD@Adam?5Coltman?5?8Mess?8?5?9?5Mapper?5?$CIad@ 1005701c     credits.obj
 0002:0000b058       ??_C@_0DI@NCJKGKIB@Ian?5?8mm3guy?8?5?9?5Modeler?5and?5Anima@ 10057058     credits.obj
 0002:0000b090       ??_C@_0DI@DKNJOGHE@Kilian?5Gro?$NP?5?8diwako?8?5?9?5Texture?5A@ 10057090     credits.obj
 0002:0000b0c8       ??_C@_0DO@OCIMNLDK@Kyle?5Bloss?5?8PelPix?8?5?9?5Texture?5Ar@ 100570c8     credits.obj
 0002:0000b108       ??_C@_0EC@OBFOAFII@Hugh?5Russell?5?8fps_Breadkiller?8?5?9@ 10057108     credits.obj
 0002:0000b150       ??_C@_0EN@NNIJCBDC@Zacharrias?5Quinten?5?8Da?5Big?5Man?8?9@ 10057150     credits.obj
 0002:0000b1a0       ??_C@_0DD@DADNIFDN@Nathan?5Vess?5?8VESS?8?5?9?5Voice?5Actin@ 100571a0     credits.obj
 0002:0000b1d8       ??_C@_0EF@NKLMIPOI@David?5Michael?5Zander?5?8Edli?8?5?9?5Vo@ 100571d8     credits.obj
 0002:0000b220       ??_C@_0EF@ONGEHMOG@Leonard?5Polous?5?8Leo?5Leonidas?8?5?9?5@ 10057220     credits.obj
 0002:0000b268       ??_C@_01EEMJAFIK@?6?$AA@   10057268     credits.obj
 0002:0000b26c       ??_C@_0BE@FHOCMMFG@Special?5thanks?5to?3?6?$AA@ 1005726c     credits.obj
 0002:0000b280       ??_C@_0EI@OFOELJCE@?8Sortie?8?5?9?5Use?5of?5his?5Maxsi?5Dist@ 10057280     credits.obj
 0002:0000b2c8       ??_C@_0BE@OENCFJE@Past?5Team?5Members?3?6?$AA@ 100572c8     credits.obj
 0002:0000b2dc       ??_C@_0CE@IHGLPJJ@?8Mr?4?5Happy?8?5?9?5Senior?5Mapper?1Test@ 100572dc     credits.obj
 0002:0000b300       ??_C@_0CC@PKCFAMAN@?8No?400?5Dylan?8?5?9?5Particles?1Tester@ 10057300     credits.obj
 0002:0000b328       ??_C@_0EO@LDNHNPKG@Sam?5Pavlovic?5?8Sam?5za?5Nemesis?8?5?9?5@ 10057328     credits.obj
 0002:0000b378       ??_C@_0DM@CGHMMPIP@Team?5Gear?0?5the?5most?5awesome?5peop@ 10057378     credits.obj
 0002:0000b3b4       ??_C@_04EKCLBOON@gear?$AA@ 100573b4     credits.obj
 0002:0000b3bc       ??_C@_0BB@MLNMCIBC@Cubic_Distortion?$AA@ 100573bc     cubic_distortion.obj
 0002:0000b3d0       ??_C@_05JDFLGFCO@?90?415?$AA@ 100573d0     cubic_distortion.obj
 0002:0000b3d8       ??_C@_0M@MMCGGFDJ@$DISTORTION?$AA@ 100573d8     cubic_distortion.obj
 0002:0000b3e4       ??_C@_03LOHCHBBO@0?45?$AA@ 100573e4     cubic_distortion.obj
 0002:0000b3e8       ??_C@_0BB@FPBKHCPH@$CUBICDISTORTION?$AA@ 100573e8     cubic_distortion.obj
 0002:0000b3fc       ??_C@_0BH@CLNOFEKI@cubic_distortion_ps20b?$AA@ 100573fc     cubic_distortion.obj
 0002:0000b414       ??_C@_0BG@MJLCDKMO@cubic_distortion_ps20?$AA@ 10057414     cubic_distortion.obj
 0002:0000b434       ??_7CShader@Cubic_Distortion@@6B@ 10057434     cubic_distortion.obj
 0002:0000b484       ??_C@_0L@BIHKKAJC@Desaturate?$AA@ 10057484     Desaturate.obj
 0002:0000b490       ??_C@_09JJLKBCCA@$STRENGTH?$AA@ 10057490     Desaturate.obj
 0002:0000b49c       ??_C@_0BB@FBNCHKAL@desaturate_ps20b?$AA@ 1005749c     Desaturate.obj
 0002:0000b4b0       ??_C@_0BA@KPMGDBEF@desaturate_ps20?$AA@ 100574b0     Desaturate.obj
 0002:0000b4c4       ??_7CShader@Desaturate@@6B@ 100574c4     Desaturate.obj
 0002:0000b514       ??_C@_0P@PCHPMIEF@SDK_AfterShock?$AA@ 10057514     dx8fallbacks.obj
 0002:0000b524       ??_C@_0N@DFOHMAFL@SDK_EyeGlint?$AA@ 10057524     dx8fallbacks.obj
 0002:0000b534       ??_C@_0BB@DKPIHBDO@SDK_VolumeClouds?$AA@ 10057534     dx8fallbacks.obj
 0002:0000b548       ??_C@_0P@FBKLKPCE@SDK_EyeRefract?$AA@ 10057548     dx8fallbacks.obj
 0002:0000b558       ??_C@_0P@FFAMHGKP@SDK_DepthWrite?$AA@ 10057558     dx8fallbacks.obj
 0002:0000b568       ??_C@_08CJKOIGNC@Eyes_dx8?$AA@ 10057568     dx8fallbacks.obj
 0002:0000b574       ??_C@_0BB@NHPLMNJG@UnlitGeneric_DX8?$AA@ 10057574     dx8fallbacks.obj
 0002:0000b588       ??_C@_08OGMJAGCJ@EyeGlint?$AA@ 10057588     dx8fallbacks.obj
 0002:0000b594       ??_C@_0L@JNHBGHJK@AfterShock?$AA@ 10057594     dx8fallbacks.obj
 0002:0000b5a4       ??_7CShader@SDK_DepthWrite@@6B@ 100575a4     dx8fallbacks.obj
 0002:0000b5fc       ??_7CShader@SDK_EyeRefract@@6B@ 100575fc     dx8fallbacks.obj
 0002:0000b654       ??_7CShader@SDK_VolumeClouds@@6B@ 10057654     dx8fallbacks.obj
 0002:0000b6ac       ??_7CShader@SDK_EyeGlint@@6B@ 100576ac     dx8fallbacks.obj
 0002:0000b704       ??_7CShader@SDK_AfterShock@@6B@ 10057704     dx8fallbacks.obj
 0002:0000b754       ??_C@_0CG@BNEOBOJE@sdk_emissive_scroll_blended_pass@ 10057754     emissive_scroll_blended_pass_helper.obj
 0002:0000b77c       ??_C@_0CH@HGONPDHL@sdk_emissive_scroll_blended_pass@ 1005777c     emissive_scroll_blended_pass_helper.obj
 0002:0000b7a4       ??_C@_0CG@JCAOOLDE@sdk_emissive_scroll_blended_pass@ 100577a4     emissive_scroll_blended_pass_helper.obj
 0002:0000b7cc       ??_C@_0CG@BMIMHEKD@sdk_emissive_scroll_blended_pass@ 100577cc     emissive_scroll_blended_pass_helper.obj
 0002:0000b7f4       ??_C@_0CG@JDMMIBAD@sdk_emissive_scroll_blended_pass@ 100577f4     emissive_scroll_blended_pass_helper.obj
 0002:0000b81c       ??_C@_0BD@PGIKKKGI@SDK_EyeRefract_dx9?$AA@ 1005781c     eye_refract.obj
 0002:0000b830       ??_C@_0N@MCDCENM@iris?5texture?$AA@ 10057830     eye_refract.obj
 0002:0000b840       ??_C@_0BH@JAMKOLPG@shadertest?1BaseTexture?$AA@ 10057840     eye_refract.obj
 0002:0000b858       ??_C@_05IDKFMLF@$IRIS?$AA@ 10057858     eye_refract.obj
 0002:0000b860       ??_C@_0BL@GBJKJHPO@frame?5for?5the?5iris?5texture?$AA@ 10057860     eye_refract.obj
 0002:0000b87c       ??_C@_0L@PFOPDCGB@$IRISFRAME?$AA@ 1005787c     eye_refract.obj
 0002:0000b888       ??_C@_0P@COBDAPOK@cornea?5texture?$AA@ 10057888     eye_refract.obj
 0002:0000b898       ??_C@_0P@JMEAOGPG@$CORNEATEXTURE?$AA@ 10057898     eye_refract.obj
 0002:0000b8a8       ??_C@_0BD@KJOHAFNP@reflection?5texture?$AA@ 100578a8     eye_refract.obj
 0002:0000b8bc       ??_C@_0BE@DGHNKAO@$AMBIENTOCCLTEXTURE?$AA@ 100578bc     eye_refract.obj
 0002:0000b8d0       ??_C@_0BE@FCMHLAI@origin?5for?5the?5eyes?$AA@ 100578d0     eye_refract.obj
 0002:0000b8e4       ??_C@_07BHDDLOFD@?$FL0?50?50?$FN?$AA@ 100578e4     eye_refract.obj
 0002:0000b8ec       ??_C@_0L@NELGGHBC@$EYEORIGIN?$AA@ 100578ec     eye_refract.obj
 0002:0000b8f8       ??_C@_0CB@KLEOFJMG@U?5projection?5vector?5for?5the?5iris@ 100578f8     eye_refract.obj
 0002:0000b91c       ??_C@_0L@KBPHMLGG@?$FL0?51?50?50?5?$FN?$AA@ 1005791c     eye_refract.obj
 0002:0000b928       ??_C@_06HMMPNEEO@$IRISU?$AA@ 10057928     eye_refract.obj
 0002:0000b930       ??_C@_0CB@PAFJOIND@V?5projection?5vector?5for?5the?5iris@ 10057930     eye_refract.obj
 0002:0000b954       ??_C@_09DCAEBAFH@?$FL0?50?51?50?$FN?$AA@ 10057954     eye_refract.obj
 0002:0000b960       ??_C@_06FHOCIHIN@$IRISV?$AA@ 10057960     eye_refract.obj
 0002:0000b968       ??_C@_0CJ@LCBFEMOF@Pupil?5dilation?5?$CI0?5is?5none?0?51?5is?5@ 10057968     eye_refract.obj
 0002:0000b994       ??_C@_09JGHDKPOA@$DILATION?$AA@ 10057994     eye_refract.obj
 0002:0000b9a0       ??_C@_0DJ@MPDJNFBC@Glossiness?5of?5eye?5?$CI1?5is?5default?0@ 100579a0     eye_refract.obj
 0002:0000b9dc       ??_C@_0M@LAGFHCHB@$GLOSSINESS?$AA@ 100579dc     eye_refract.obj
 0002:0000b9e8       ??_C@_0BN@HCJALENF@texkill?5pixels?5not?5on?5sphere?$AA@ 100579e8     eye_refract.obj
 0002:0000ba08       ??_C@_0BE@LFOPHCHG@$SPHERETEXKILLCOMBO?$AA@ 10057a08     eye_refract.obj
 0002:0000ba1c       ??_C@_0BA@CJJCANPK@Raytrace?5sphere?$AA@ 10057a1c     eye_refract.obj
 0002:0000ba2c       ??_C@_0BA@HEIFGGGK@$RAYTRACESPHERE?$AA@ 10057a2c     eye_refract.obj
 0002:0000ba3c       ??_C@_0BC@GNHFHNHC@Parallax?5strength?$AA@ 10057a3c     eye_refract.obj
 0002:0000ba50       ??_C@_0BC@JCIAHDPD@$PARALLAXSTRENGTH?$AA@ 10057a50     eye_refract.obj
 0002:0000ba64       ??_C@_0BA@CPHDJIMO@Cornea?5strength?$AA@ 10057a64     eye_refract.obj
 0002:0000ba74       ??_C@_0BE@KNDCCDJI@$CORNEABUMPSTRENGTH?$AA@ 10057a74     eye_refract.obj
 0002:0000ba88       ??_C@_0BI@IAFCJGNL@Ambient?5occlusion?5color?$AA@ 10057a88     eye_refract.obj
 0002:0000baa0       ??_C@_0BC@NCCKHDCF@$AMBIENTOCCLCOLOR?$AA@ 10057aa0     eye_refract.obj
 0002:0000bab4       ??_C@_0BP@BBKHHNNG@Eyeball?5radius?5for?5ray?5casting?$AA@ 10057ab4     eye_refract.obj
 0002:0000bad4       ??_C@_0P@LAFIACKE@$EYEBALLRADIUS?$AA@ 10057ad4     eye_refract.obj
 0002:0000bae4       ??_C@_0BJ@HLMMMKJE@is?5eyes?5in?5the?5ep1?5intro?$AA@ 10057ae4     eye_refract.obj
 0002:0000bb00       ??_C@_06MKEDLBGD@$INTRO?$AA@ 10057b00     eye_refract.obj
 0002:0000bb08       ??_C@_0CD@DGJJJBPJ@center?5if?5the?5model?5in?5world?5spa@ 10057b08     eye_refract.obj
 0002:0000bb2c       ??_C@_0O@PNPHGPOC@$ENTITYORIGIN?$AA@ 10057b2c     eye_refract.obj
 0002:0000bb3c       ??_C@_0CA@EDBFJMPP@animation?5param?5between?50?5and?51?$AA@ 10057b3c     eye_refract.obj
 0002:0000bb5c       ??_C@_0L@DIFMENKH@$WARPPARAM?$AA@ 10057b5c     eye_refract.obj
 0002:0000bb68       ??_C@_0DA@EGDCNMAA@1D?5ramp?5texture?5for?5tinting?5scal@ 10057b68     eye_refract.obj
 0002:0000bb98       ??_C@_0BC@HLBKPCJA@$LIGHTWARPTEXTURE?$AA@ 10057b98     eye_refract.obj
 0002:0000bbac       ??_C@_0CG@KHOPKLCO@Enables?5cloak?5render?5in?5a?5second@ 10057bac     eye_refract.obj
 0002:0000bbd4       ??_C@_0BC@MDLCCKJA@$CLOAKPASSENABLED?$AA@ 10057bd4     eye_refract.obj
 0002:0000bbe8       ??_C@_0N@IBOEDFCJ@$CLOAKFACTOR?$AA@ 10057be8     eye_refract.obj
 0002:0000bbf8       ??_C@_0BB@DFLLDHFA@Cloak?5color?5tint?$AA@ 10057bf8     eye_refract.obj
 0002:0000bc0c       ??_C@_0BA@NCBPJILP@$CLOAKCOLORTINT?$AA@ 10057c0c     eye_refract.obj
 0002:0000bc1c       ??_C@_0BL@LENDGEHC@Enable?5emissive?5blend?5pass?$AA@ 10057c1c     eye_refract.obj
 0002:0000bc38       ??_C@_0BG@PLMDGJOP@$EMISSIVEBLENDENABLED?$AA@ 10057c38     eye_refract.obj
 0002:0000bc50       ??_C@_0BE@HHEMJOIN@Emissive?5scroll?5vec?$AA@ 10057c50     eye_refract.obj
 0002:0000bc64       ??_C@_0N@OGNHPCOG@?$FL0?411?50?4124?$FN?$AA@ 10057c64     eye_refract.obj
 0002:0000bc74       ??_C@_0BL@NIEAOLCP@$EMISSIVEBLENDSCROLLVECTOR?$AA@ 10057c74     eye_refract.obj
 0002:0000bc90       ??_C@_0BI@LOHPBJHL@Emissive?5blend?5strength?$AA@ 10057c90     eye_refract.obj
 0002:0000bca8       ??_C@_0BH@LNJDGBOF@$EMISSIVEBLENDSTRENGTH?$AA@ 10057ca8     eye_refract.obj
 0002:0000bcc0       ??_C@_0BG@KJNFPNDK@self?9illumination?5map?$AA@ 10057cc0     eye_refract.obj
 0002:0000bcd8       ??_C@_0BG@KPMPKBHA@$EMISSIVEBLENDTEXTURE?$AA@ 10057cd8     eye_refract.obj
 0002:0000bcf0       ??_C@_0BH@DBOPOPED@Self?9illumination?5tint?$AA@ 10057cf0     eye_refract.obj
 0002:0000bd08       ??_C@_0BD@EOGLDIFD@$EMISSIVEBLENDTINT?$AA@ 10057d08     eye_refract.obj
 0002:0000bd1c       ??_C@_08LELFHPMF@flow?5map?$AA@ 10057d1c     eye_refract.obj
 0002:0000bd28       ??_C@_0BK@NMPCGNBP@$EMISSIVEBLENDFLOWTEXTURE?$AA@ 10057d28     eye_refract.obj
 0002:0000bd4c       ??_7CShader@SDK_EyeRefract_dx9@@6B@ 10057d4c     eye_refract.obj
 0002:0000bd9c       ??_C@_0BK@MLNFFBG@effects?1flashlight_border?$AA@ 10057d9c     eye_refract_helper.obj
 0002:0000bdb8       ??_C@_0BG@DCPCIEMH@effects?1flashlight001?$AA@ 10057db8     eye_refract_helper.obj
 0002:0000bdd0       ??_C@_0BF@INCNGIOM@sdk_eye_refract_vs20?$AA@ 10057dd0     eye_refract_helper.obj
 0002:0000bde8       ??_C@_0BG@CIKDGJAD@sdk_eye_refract_ps20b?$AA@ 10057de8     eye_refract_helper.obj
 0002:0000be00       ??_C@_0BF@CGNJNEM@sdk_eye_refract_ps20?$AA@ 10057e00     eye_refract_helper.obj
 0002:0000be18       ??_C@_0BF@IMOPACNL@sdk_eye_refract_vs30?$AA@ 10057e18     eye_refract_helper.obj
 0002:0000be30       ??_C@_0BF@DKPPHHL@sdk_eye_refract_ps30?$AA@ 10057e30     eye_refract_helper.obj
 0002:0000be48       ??_C@_0M@MKLGMMMN@SDK_Eyeball?$AA@ 10057e48     eyeball.obj
 0002:0000be54       ??_C@_0BE@KJCKKNBG@models?1alyx?1pupil_l?$AA@ 10057e54     eyeball.obj
 0002:0000be6c       ??_7CShader@SDK_Eyeball@@6B@ 10057e6c     eyeball.obj
 0002:0000bebc       ??_C@_0BB@JAEODDPH@SDK_EyeGlint_dx9?$AA@ 10057ebc     eyeglint_dx9.obj
 0002:0000bed0       ??_C@_0BC@BCFJLFMF@sdk_eyeglint_vs20?$AA@ 10057ed0     eyeglint_dx9.obj
 0002:0000bee4       ??_C@_0BD@GKIOIFLC@sdk_eyeglint_ps20b?$AA@ 10057ee4     eyeglint_dx9.obj
 0002:0000bef8       ??_C@_0BC@JNBJEAGF@sdk_eyeglint_ps20?$AA@ 10057ef8     eyeglint_dx9.obj
 0002:0000bf14       ??_7CShader@SDK_EyeGlint_dx9@@6B@ 10057f14     eyeglint_dx9.obj
 0002:0000bf64       ??_C@_08EJMBPFIB@SDK_eyes?$AA@ 10057f64     eyes.obj
 0002:0000bf70       ??_C@_0N@PKIAEAKA@SDK_Eyes_dx8?$AA@ 10057f70     eyes.obj
 0002:0000bf80       ??_C@_0BG@FBKHINAL@models?1alyx?1eyeball_l?$AA@ 10057f80     eyes.obj
 0002:0000bf98       ??_C@_0O@JALOMKGL@glint?5texture?$AA@ 10057f98     eyes.obj
 0002:0000bfa8       ??_C@_0BJ@DCDAPOKK@models?1humans?1male?1glint?$AA@ 10057fa8     eyes.obj
 0002:0000bfc4       ??_C@_06JEPAJNLP@$GLINT?$AA@ 10057fc4     eyes.obj
 0002:0000bfcc       ??_C@_0BH@NMILGMFG@up?5vector?5for?5the?5eyes?$AA@ 10057fcc     eyes.obj
 0002:0000bfe4       ??_C@_07BGPBNEGE@?$FL0?50?51?$FN?$AA@ 10057fe4     eyes.obj
 0002:0000bfec       ??_C@_06EPPBBCGL@$EYEUP?$AA@ 10057fec     eyes.obj
 0002:0000bff4       ??_C@_09KJBDDCFD@?$FL0?51?50?50?$FN?$AA@ 10057ff4     eyes.obj
 0002:0000c000       ??_C@_0CC@MINLONJO@U?5projection?5vector?5for?5the?5glin@ 10058000     eyes.obj
 0002:0000c024       ??_C@_07JMIGPHJB@$GLINTU?$AA@ 10058024     eyes.obj
 0002:0000c02c       ??_C@_0CC@KFFNBOME@V?5projection?5vector?5for?5the?5glin@ 1005802c     eyes.obj
 0002:0000c050       ??_C@_07LHKLKEFC@$GLINTV?$AA@ 10058050     eyes.obj
 0002:0000c058       ??_C@_0O@DFHJIDBJ@Iris?5dilation?$AA@ 10058058     eyes.obj
 0002:0000c068       ??_C@_08LHCNKLFM@Eyes_dx6?$AA@ 10058068     eyes.obj
 0002:0000c07c       ??_7CShader@SDK_eyes@@6B@  1005807c     eyes.obj
 0002:0000c0d4       ??_7CShader@SDK_Eyes_dx8@@6B@ 100580d4     eyes.obj
 0002:0000c124       ??_C@_0BG@PPOAPOAB@r_flashlight_version2?$AA@ 10058124     eyes_dx8_dx9_helper.obj
 0002:0000c13c       ??_C@_0BJ@CHELLKBG@sdk_eyes_flashlight_vs20?$AA@ 1005813c     eyes_dx8_dx9_helper.obj
 0002:0000c158       ??_C@_0BK@HFGBBEND@sdk_eyes_flashlight_ps20b?$AA@ 10058158     eyes_dx8_dx9_helper.obj
 0002:0000c174       ??_C@_0BJ@KIALEPLG@sdk_eyes_flashlight_ps20?$AA@ 10058174     eyes_dx8_dx9_helper.obj
 0002:0000c190       ??_C@_0BJ@CGIJNACB@sdk_eyes_flashlight_vs30?$AA@ 10058190     eyes_dx8_dx9_helper.obj
 0002:0000c1ac       ??_C@_0BJ@KJMJCFIB@sdk_eyes_flashlight_ps30?$AA@ 100581ac     eyes_dx8_dx9_helper.obj
 0002:0000c1c8       ??_C@_0BJ@DMBGDFAO@sdk_eyes_flashlight_vs11?$AA@ 100581c8     eyes_dx8_dx9_helper.obj
 0002:0000c1e4       ??_C@_0BJ@LDFGMAKO@sdk_eyes_flashlight_ps11?$AA@ 100581e4     eyes_dx8_dx9_helper.obj
 0002:0000c200       ??_C@_0O@OAKKDIGL@sdk_eyes_vs20?$AA@ 10058200     eyes_dx8_dx9_helper.obj
 0002:0000c210       ??_C@_0P@FLBCPINA@sdk_eyes_ps20b?$AA@ 10058210     eyes_dx8_dx9_helper.obj
 0002:0000c220       ??_C@_0O@GPOKMNML@sdk_eyes_ps20?$AA@ 10058220     eyes_dx8_dx9_helper.obj
 0002:0000c230       ??_C@_0O@OBGIFCFM@sdk_eyes_vs30?$AA@ 10058230     eyes_dx8_dx9_helper.obj
 0002:0000c240       ??_C@_0O@GOCIKHPM@sdk_eyes_ps30?$AA@ 10058240     eyes_dx8_dx9_helper.obj
 0002:0000c250       ??_C@_04PFPHBDDD@Eyes?$AA@ 10058250     eyes_dx8_dx9_helper.obj
 0002:0000c258       ??_C@_0BB@EEJJPJAD@Eyes_Overbright2?$AA@ 10058258     eyes_dx8_dx9_helper.obj
 0002:0000c26c       ??_C@_0N@ODJLHBOB@SDK_Eyes_dx9?$AA@ 1005826c     eyes_dx9.obj
 0002:0000c284       ??_7CShader@SDK_Eyes_dx9@@6B@ 10058284     eyes_dx9.obj
 0002:0000c2d4       ??_C@_0M@DLHJBNEJ@env_cubemap?$AA@ 100582d4     flesh_interior_blended_pass_helper.obj
 0002:0000c2e0       ??_C@_0CF@GBIMMIAE@sdk_flesh_interior_blended_pass_@ 100582e0     flesh_interior_blended_pass_helper.obj
 0002:0000c308       ??_C@_0CG@IGJOKCOJ@sdk_flesh_interior_blended_pass_@ 10058308     flesh_interior_blended_pass_helper.obj
 0002:0000c330       ??_C@_0CF@OOMMDNKE@sdk_flesh_interior_blended_pass_@ 10058330     flesh_interior_blended_pass_helper.obj
 0002:0000c358       ??_C@_04HIONBLPF@FXAA?$AA@ 10058358     fxaa.obj
 0002:0000c360       ??_C@_0N@FLNPINEN@$FRAMEBUFFER?$AA@ 10058360     fxaa.obj
 0002:0000c370       ??_C@_01FAMBOPH@4?$AA@     10058370     fxaa.obj
 0002:0000c374       ??_C@_08JBFNBGPB@$QUALITY?$AA@ 10058374     fxaa.obj
 0002:0000c380       ??_C@_0BI@FOKKKBDL@screenspace_simple_vs30?$AA@ 10058380     fxaa.obj
 0002:0000c398       ??_C@_09DOJMFNKC@fxaa_ps30?$AA@ 10058398     fxaa.obj
 0002:0000c3ac       ??_7CShader@FXAA@@6B@      100583ac     fxaa.obj
 0002:0000c3fc       ??_C@_09LIBOIALG@GaussianX?$AA@ 100583fc     gaussianx.obj
 0002:0000c408       ??_C@_09JBLEBFGG@$BLURSIZE?$AA@ 10058408     gaussianx.obj
 0002:0000c414       ??_C@_0M@FFAAHEKN@$RESDIVISOR?$AA@ 10058414     gaussianx.obj
 0002:0000c420       ??_C@_0BA@KBPIAEMK@gaussianx_ps20b?$AA@ 10058420     gaussianx.obj
 0002:0000c430       ??_C@_0P@IKCLLENF@gaussianx_ps20?$AA@ 10058430     gaussianx.obj
 0002:0000c444       ??_7CShader@GaussianX@@6B@ 10058444     gaussianx.obj
 0002:0000c494       ??_C@_09KBAFLBPH@GaussianY?$AA@ 10058494     gaussiany.obj
 0002:0000c4a0       ??_C@_0BA@GNFCAEFE@gaussiany_ps20b?$AA@ 100584a0     gaussiany.obj
 0002:0000c4b0       ??_C@_0P@CMFMLPGB@gaussiany_ps20?$AA@ 100584b0     gaussiany.obj
 0002:0000c4c4       ??_7CShader@GaussianY@@6B@ 100584c4     gaussiany.obj
 0002:0000c514       ??_C@_0P@JICNCPEF@LightmappedAdv?$AA@ 10058514     lightmappedadv.obj
 0002:0000c524       ??_C@_0BD@IDDLINIJ@LightmappedAdv_DX9?$AA@ 10058524     lightmappedadv.obj
 0002:0000c538       ??_C@_0CN@IPOHFOBA@albedo?5?$CIBase?5texture?5with?5no?5bak@ 10058538     lightmappedadv.obj
 0002:0000c568       ??_C@_07PDIMCNBA@$ALBEDO?$AA@ 10058568     lightmappedadv.obj
 0002:0000c570       ??_C@_0P@LDIFNAJJ@$SELFILLUMTINT?$AA@ 10058570     lightmappedadv.obj
 0002:0000c580       ??_C@_0P@EKLAIDLA@detail?5texture?$AA@ 10058580     lightmappedadv.obj
 0002:0000c590       ??_C@_0BC@BDKMNNCO@shadertest?1detail?$AA@ 10058590     lightmappedadv.obj
 0002:0000c5a4       ??_C@_07MFIMGGJK@$DETAIL?$AA@ 100585a4     lightmappedadv.obj
 0002:0000c5ac       ??_C@_0BJ@DLGINJPH@frame?5number?5for?5$detail?$AA@ 100585ac     lightmappedadv.obj
 0002:0000c5c8       ??_C@_0N@JGGPLJNA@$DETAILFRAME?$AA@ 100585c8     lightmappedadv.obj
 0002:0000c5d8       ??_C@_0BM@FAAMAFEB@scale?5of?5the?5detail?5texture?$AA@ 100585d8     lightmappedadv.obj
 0002:0000c5f4       ??_C@_0N@JJDGPOPN@$DETAILSCALE?$AA@ 100585f4     lightmappedadv.obj
 0002:0000c608       ??_C@_0HA@LHKGPABJ@mode?5for?5combining?5detail?5textur@ 10058608     lightmappedadv.obj
 0002:0000c678       ??_C@_0BB@JNEMIJIL@$DETAILBLENDMODE?$AA@ 10058678     lightmappedadv.obj
 0002:0000c68c       ??_C@_0CB@EFGEJEJG@blend?5amount?5for?5detail?5texture?4@ 1005868c     lightmappedadv.obj
 0002:0000c6b0       ??_C@_0BD@NNNAMLAD@$DETAILBLENDFACTOR?$AA@ 100586b0     lightmappedadv.obj
 0002:0000c6c4       ??_C@_0BE@GECJOJDG@detail?5texture?5tint?$AA@ 100586c4     lightmappedadv.obj
 0002:0000c6d8       ??_C@_0M@GNMDBBAM@$DETAILTINT?$AA@ 100586d8     lightmappedadv.obj
 0002:0000c6e4       ??_C@_0M@KFABDOFN@envmap?5mask?$AA@ 100586e4     lightmappedadv.obj
 0002:0000c6f0       ??_C@_0BO@JLAFIMAN@shadertest?1shadertest_envmask?$AA@ 100586f0     lightmappedadv.obj
 0002:0000c710       ??_C@_0M@BLOPGHNE@$ENVMAPMASK?$AA@ 10058710     lightmappedadv.obj
 0002:0000c71c       ??_C@_0BB@JMDKKFHF@$ENVMAPMASKFRAME?$AA@ 1005871c     lightmappedadv.obj
 0002:0000c730       ??_C@_0BP@MBHBPLHE@$envmapmask?5texcoord?5transform?$AA@ 10058730     lightmappedadv.obj
 0002:0000c750       ??_C@_0BF@KGFFEKOJ@$ENVMAPMASKTRANSFORM?$AA@ 10058750     lightmappedadv.obj
 0002:0000c768       ??_C@_08DHCFFI@bump?5map?$AA@ 10058768     lightmappedadv.obj
 0002:0000c774       ??_C@_0BM@EEHCEKC@1?40?5?$DN?$DN?5mirror?0?50?40?5?$DN?$DN?5water?$AA@ 10058774     lightmappedadv.obj
 0002:0000c790       ??_C@_0BD@DOFMMDCK@$FRESNELREFLECTION?$AA@ 10058790     lightmappedadv.obj
 0002:0000c7a4       ??_C@_0DN@HDBADNAJ@0?5?$DN?$DN?5Use?5diffuse?5bump?5lighting?0?5@ 100587a4     lightmappedadv.obj
 0002:0000c7e4       ??_C@_0BH@CHGMPLOF@$NODIFFUSEBUMPLIGHTING?$AA@ 100587e4     lightmappedadv.obj
 0002:0000c7fc       ??_C@_0CB@DPFEIDLH@models?1shadertest?1shader3_normal@ 100587fc     lightmappedadv.obj
 0002:0000c820       ??_C@_09JMDECHCP@$BUMPMAP2?$AA@ 10058820     lightmappedadv.obj
 0002:0000c82c       ??_C@_0BL@CPPECENM@frame?5number?5for?5$bumpmap2?$AA@ 1005882c     lightmappedadv.obj
 0002:0000c848       ??_C@_0M@MFKOCAFP@$BUMPFRAME2?$AA@ 10058848     lightmappedadv.obj
 0002:0000c854       ??_C@_0BN@HHDBBODD@$bumpmap2?5texcoord?5transform?$AA@ 10058854     lightmappedadv.obj
 0002:0000c874       ??_C@_0BA@LCJECANF@$BUMPTRANSFORM2?$AA@ 10058874     lightmappedadv.obj
 0002:0000c884       ??_C@_09GAIPFLMJ@$BUMPMASK?$AA@ 10058884     lightmappedadv.obj
 0002:0000c890       ??_C@_0BA@BILJLBMD@Blended?5texture?$AA@ 10058890     lightmappedadv.obj
 0002:0000c8a0       ??_C@_0BO@IMIMBEJF@shadertest?1lightmappedtexture?$AA@ 100588a0     lightmappedadv.obj
 0002:0000c8c0       ??_C@_0O@NGGEHEEP@$BASETEXTURE2?$AA@ 100588c0     lightmappedadv.obj
 0002:0000c8d0       ??_C@_0BP@IHHBIFML@frame?5number?5for?5$basetexture2?$AA@ 100588d0     lightmappedadv.obj
 0002:0000c8f0       ??_C@_07BGLAEPMG@$FRAME2?$AA@ 100588f0     lightmappedadv.obj
 0002:0000c8f8       ??_C@_0BF@JNPIKMOF@$BASETEXTURENOENVMAP?$AA@ 100588f8     lightmappedadv.obj
 0002:0000c910       ??_C@_0BG@KNAINKPC@$BASETEXTURE2NOENVMAP?$AA@ 10058910     lightmappedadv.obj
 0002:0000c928       ??_C@_0HJ@KFMNGBFG@If?5this?5is?51?0?5then?5when?5detail?5a@ 10058928     lightmappedadv.obj
 0002:0000c9a4       ??_C@_0CA@MPCIONII@$DETAIL_ALPHA_MASK_BASE_TEXTURE?$AA@ 100589a4     lightmappedadv.obj
 0002:0000c9c4       ??_C@_0BN@GMCAEIGD@light?5munging?5lookup?5texture?$AA@ 100589c4     lightmappedadv.obj
 0002:0000c9e4       ??_C@_0DA@LMGJHLKK@texture?5to?5use?5r?1g?5channels?5for?5@ 100589e4     lightmappedadv.obj
 0002:0000ca14       ??_C@_0BG@IMDJIJHP@$BLENDMODULATETEXTURE?$AA@ 10058a14     lightmappedadv.obj
 0002:0000ca2c       ??_C@_0CJ@COBOOGPN@$blendmodulatetexture?5texcoord?5t@ 10058a2c     lightmappedadv.obj
 0002:0000ca58       ??_C@_0BE@FNNNKFKP@$BLENDMASKTRANSFORM?$AA@ 10058a58     lightmappedadv.obj
 0002:0000ca70       ??_C@_0FK@FOENDJFI@blend?5using?5texture?5with?5no?5vert@ 10058a70     lightmappedadv.obj
 0002:0000cacc       ??_C@_0BA@NMJCJLEH@$MASKEDBLENDING?$AA@ 10058acc     lightmappedadv.obj
 0002:0000cadc       ??_C@_0DL@NGGGJKMA@whether?5or?5not?5to?5use?5alternate?5@ 10058adc     lightmappedadv.obj
 0002:0000cb18       ??_C@_07GDNPHCDH@$SSBUMP?$AA@ 10058b18     lightmappedadv.obj
 0002:0000cb20       ??_C@_0EN@CHBOMIMO@Scale?5factor?5for?5?8seamless?8?5text@ 10058b20     lightmappedadv.obj
 0002:0000cb70       ??_C@_0BA@OHCGJFMP@$SEAMLESS_SCALE?$AA@ 10058b70     lightmappedadv.obj
 0002:0000cb80       ??_C@_0BE@GEDBJHGM@$ALPHATESTREFERENCE?$AA@ 10058b80     lightmappedadv.obj
 0002:0000cb94       ??_C@_0CO@BANPBFKO@Enable?5soft?5edges?5to?5distance?5co@ 10058b94     lightmappedadv.obj
 0002:0000cbc4       ??_C@_0L@NKLPABHL@$SOFTEDGES?$AA@ 10058bc4     lightmappedadv.obj
 0002:0000cbd0       ??_C@_0CO@MENAABGB@Start?5value?5for?5soft?5edges?5for?5d@ 10058bd0     lightmappedadv.obj
 0002:0000cc00       ??_C@_03JFFPCCNN@0?46?$AA@ 10058c00     lightmappedadv.obj
 0002:0000cc04       ??_C@_0BD@GOFLPLBN@$EDGESOFTNESSSTART?$AA@ 10058c04     lightmappedadv.obj
 0002:0000cc18       ??_C@_0CM@PFCIKHPM@End?5value?5for?5soft?5edges?5for?5dis@ 10058c18     lightmappedadv.obj
 0002:0000cc44       ??_C@_0BB@NENEJEMD@$EDGESOFTNESSEND?$AA@ 10058c44     lightmappedadv.obj
 0002:0000cc58       ??_C@_0CM@KLLNNLIC@Enable?5outline?5for?5distance?5code@ 10058c58     lightmappedadv.obj
 0002:0000cc84       ??_C@_08FMLBNNDL@$OUTLINE?$AA@ 10058c84     lightmappedadv.obj
 0002:0000cc90       ??_C@_0CM@IHGPAFBM@color?5of?5outline?5for?5distance?5co@ 10058c90     lightmappedadv.obj
 0002:0000ccbc       ??_C@_0O@KBLLMLFI@$OUTLINECOLOR?$AA@ 10058cbc     lightmappedadv.obj
 0002:0000cccc       ??_C@_0BI@PDCHIFHH@alpha?5value?5for?5outline?$AA@ 10058ccc     lightmappedadv.obj
 0002:0000cce4       ??_C@_0O@NFLMKPLD@$OUTLINEALPHA?$AA@ 10058ce4     lightmappedadv.obj
 0002:0000ccf4       ??_C@_0BO@HNHDKAFI@outer?5start?5value?5for?5outline?$AA@ 10058cf4     lightmappedadv.obj
 0002:0000cd14       ??_C@_0P@OKPGANCJ@$OUTLINESTART0?$AA@ 10058d14     lightmappedadv.obj
 0002:0000cd24       ??_C@_0BO@GMLGAKKB@inner?5start?5value?5for?5outline?$AA@ 10058d24     lightmappedadv.obj
 0002:0000cd44       ??_C@_0P@PDONDMGI@$OUTLINESTART1?$AA@ 10058d44     lightmappedadv.obj
 0002:0000cd54       ??_C@_0BM@IOIDNCNO@inner?5end?5value?5for?5outline?$AA@ 10058d54     lightmappedadv.obj
 0002:0000cd70       ??_C@_0N@HOHFLADN@$OUTLINEEND0?$AA@ 10058d70     lightmappedadv.obj
 0002:0000cd80       ??_C@_0BM@EOGMLBCH@outer?5end?5value?5for?5outline?$AA@ 10058d80     lightmappedadv.obj
 0002:0000cd9c       ??_C@_0N@GHGOIBHM@$OUTLINEEND1?$AA@ 10058d9c     lightmappedadv.obj
 0002:0000cdac       ??_C@_0BH@LDCGEAIF@enables?5phong?5lighting?$AA@ 10058dac     lightmappedadv.obj
 0002:0000cdc4       ??_C@_06DLCHBHBC@$PHONG?$AA@ 10058dc4     lightmappedadv.obj
 0002:0000cdd0       ??_C@_0FM@IGFBGMLA@Phong?5overbrightening?5factor?5?$CIsp@ 10058dd0     lightmappedadv.obj
 0002:0000ce2c       ??_C@_0M@DNDHDALE@$PHONGBOOST?$AA@ 10058e2c     lightmappedadv.obj
 0002:0000ce38       ??_C@_0CI@CENADAPE@Parameters?5for?5remapping?5fresnel@ 10058e38     lightmappedadv.obj
 0002:0000ce60       ??_C@_0M@CJLCKGNL@?$FL0?5?50?45?5?51?$FN?$AA@ 10058e60     lightmappedadv.obj
 0002:0000ce6c       ??_C@_0BE@BGJDPBHP@$PHONGFRESNELRANGES?$AA@ 10058e6c     lightmappedadv.obj
 0002:0000ce80       ??_C@_0CJ@NLGLKFMO@Phong?5exponent?5for?5local?5specula@ 10058e80     lightmappedadv.obj
 0002:0000ceac       ??_C@_03PENLHFGJ@5?40?$AA@ 10058eac     lightmappedadv.obj
 0002:0000ceb0       ??_C@_0P@HAHIKBIH@$PHONGEXPONENT?$AA@ 10058eb0     lightmappedadv.obj
 0002:0000cec0       ??_C@_0BK@GBOMKJDK@WorldVertexTransition_DX8?$AA@ 10058ec0     lightmappedadv.obj
 0002:0000cedc       ??_C@_0BH@KLMMDGLO@LightmappedGeneric_DX8?$AA@ 10058edc     lightmappedadv.obj
 0002:0000cefc       ??_7CShader@LightmappedAdv@@6B@ 10058efc     lightmappedadv.obj
 0002:0000cf54       ??_7CShader@LightmappedAdv_DX9@@6B@ 10058f54     lightmappedadv.obj
 0002:0000cfa4       ??_C@_0BG@KPCPCFNI@mat_disable_lightwarp?$AA@ 10058fa4     lightmappedadv_helper.obj
 0002:0000cfbc       ??_C@_0BL@BEGFLJFL@mat_disable_fancy_blending?$AA@ 10058fbc     lightmappedadv_helper.obj
 0002:0000cfd8       ??_C@_0HC@KNBCDPJF@If?51?0?5allow?5phong?5on?5world?5brush@ 10058fd8     lightmappedadv_helper.obj
 0002:0000d04c       ??_C@_0BN@JLHKBPEJ@mat_enable_lightmapped_phong?$AA@ 1005904c     lightmappedadv_helper.obj
 0002:0000d070       ??_C@_0FG@CINGOAMN@Forces?5the?5use?5of?5phong?5on?5all?5L@ 10059070     lightmappedadv_helper.obj
 0002:0000d0c8       ??_C@_0BM@NGBIFCKA@mat_force_lightmapped_phong?$AA@ 100590c8     lightmappedadv_helper.obj
 0002:0000d0e4       ??_C@_0CC@LCAEOBIK@mat_force_lightmapped_phong_boos@ 100590e4     lightmappedadv_helper.obj
 0002:0000d108       ??_C@_0CA@MJOBDFG@mat_force_lightmapped_phong_exp?$AA@ 10059108     lightmappedadv_helper.obj
 0002:0000d128       ??_C@_0EL@FAIMJBAO@env_cubemap?5used?5on?5world?5geomet@ 10059128     lightmappedadv_helper.obj
 0002:0000d178       ??_C@_0FP@EAEKNBP@Warning?$CB?5material?5?$CFs?3?5$envmapmas@ 10059178     lightmappedadv_helper.obj
 0002:0000d1d8       ??_C@_0BP@CHGKCEGG@lightmappedadv_flashlight_vs30?$AA@ 100591d8     lightmappedadv_helper.obj
 0002:0000d1f8       ??_C@_0BP@CGKIEOFB@lightmappedadv_flashlight_vs20?$AA@ 100591f8     lightmappedadv_helper.obj
 0002:0000d218       ??_C@_0BP@KICKNBMG@lightmappedadv_flashlight_ps30?$AA@ 10059218     lightmappedadv_helper.obj
 0002:0000d238       ??_C@_0CA@JNNICDBE@lightmappedadv_flashlight_ps20b?$AA@ 10059238     lightmappedadv_helper.obj
 0002:0000d258       ??_C@_0BP@KJOILLPB@lightmappedadv_flashlight_ps20?$AA@ 10059258     lightmappedadv_helper.obj
 0002:0000d278       ??_C@_0GJ@JCJHPIMC@LightmappedAdv?3?5Primary?5and?5Seco@ 10059278     lightmappedadv_helper.obj
 0002:0000d2e4       ??_C@_0BM@OMDCEKLE@sdk_lightmappedgeneric_vs20?$AA@ 100592e4     lightmappedadv_helper.obj
 0002:0000d300       ??_C@_0BN@ENHCKPOH@sdk_lightmappedgeneric_ps20b?$AA@ 10059300     lightmappedadv_helper.obj
 0002:0000d320       ??_C@_0BM@GDHCLPBE@sdk_lightmappedgeneric_ps20?$AA@ 10059320     lightmappedadv_helper.obj
 0002:0000d340       ??_7CBasePerMaterialContextData@@6B@ 10059340     lightmappedadv_helper.obj
 0002:0000d348       ??_7CLightmappedGeneric_DX9_Context@@6B@ 10059348     lightmappedadv_helper.obj
 0002:0000d34c       ??_C@_0BN@JMIJFGPF@SDK_LightmappedGeneric_Decal?$AA@ 1005934c     lightmappedgeneric_decal.obj
 0002:0000d374       ??_7CShader@SDK_LightmappedGeneric_Decal@@6B@ 10059374     lightmappedgeneric_decal.obj
 0002:0000d3c8       ??_C@_0GN@HHGOFOGC@LightmappedGeneric?3?5Primary?5and?5@ 100593c8     lightmappedgeneric_dx9_helper.obj
 0002:0000d438       ??_C@_0BK@CKHLOCG@SDK_LightmappedReflective?$AA@ 10059438     lightmappedreflective.obj
 0002:0000d454       ??_C@_0BP@PHMDEBGA@SDK_LightmappedReflective_DX90?$AA@ 10059454     lightmappedreflective.obj
 0002:0000d474       ??_C@_0BE@HKJHBLNC@_rt_WaterRefraction?$AA@ 10059474     lightmappedreflective.obj
 0002:0000d488       ??_C@_0BA@EHGGFFAB@$REFRACTTEXTURE?$AA@ 10059488     lightmappedreflective.obj
 0002:0000d498       ??_C@_0BE@OHOJBMNI@_rt_WaterReflection?$AA@ 10059498     lightmappedreflective.obj
 0002:0000d4ac       ??_C@_0BA@BCJGBIGB@$REFLECTTEXTURE?$AA@ 100594ac     lightmappedreflective.obj
 0002:0000d4bc       ??_C@_03LNMAPFD@0?48?$AA@  100594bc     lightmappedreflective.obj
 0002:0000d4c0       ??_C@_0P@NCKHHCKC@$REFLECTAMOUNT?$AA@ 100594c0     lightmappedreflective.obj
 0002:0000d4d0       ??_C@_0BA@DKEAKDHJ@reflection?5tint?$AA@ 100594d0     lightmappedreflective.obj
 0002:0000d4e0       ??_C@_0N@FDMMMBHO@$REFLECTTINT?$AA@ 100594e0     lightmappedreflective.obj
 0002:0000d4f0       ??_C@_0BB@HNINMBFP@dev?1water_normal?$AA@ 100594f0     lightmappedreflective.obj
 0002:0000d504       ??_C@_01BMBHCPLG@5?$AA@    10059504     lightmappedreflective.obj
 0002:0000d508       ??_C@_0O@EIDFPIGA@$FRESNELPOWER?$AA@ 10059508     lightmappedreflective.obj
 0002:0000d518       ??_C@_0BB@MNOJPEFJ@$MAXREFLECTIVITY?$AA@ 10059518     lightmappedreflective.obj
 0002:0000d52c       ??_C@_0BB@JMBAEPAE@$MINREFLECTIVITY?$AA@ 1005952c     lightmappedreflective.obj
 0002:0000d540       ??_C@_0BP@MMCGDIKB@sdk_lightmappedreflective_vs20?$AA@ 10059540     lightmappedreflective.obj
 0002:0000d560       ??_C@_0CA@CAIPFPHO@sdk_lightmappedreflective_ps20b?$AA@ 10059560     lightmappedreflective.obj
 0002:0000d580       ??_C@_0BP@EDGGMNAB@sdk_lightmappedreflective_ps20?$AA@ 10059580     lightmappedreflective.obj
 0002:0000d5a4       ??_7CShader@SDK_LightmappedReflective@@6B@ 100595a4     lightmappedreflective.obj
 0002:0000d5fc       ??_7CShader@SDK_LightmappedReflective_DX90@@6B@ 100595fc     lightmappedreflective.obj
 0002:0000d64c       ??_C@_0BK@EHBFGJIA@SDK_LightmappedTwoTexture?$AA@ 1005964c     lightmappedtwotexture.obj
 0002:0000d668       ??_C@_06EENFNEPD@detail?$AA@ 10059668     lightmappedtwotexture.obj
 0002:0000d670       ??_C@_0BC@NMBBOELC@shadertest?1Detail?$AA@ 10059670     lightmappedtwotexture.obj
 0002:0000d684       ??_C@_0N@MPCOKIDH@detail?5scale?$AA@ 10059684     lightmappedtwotexture.obj
 0002:0000d694       ??_C@_0BK@BMHIEFC@Frame?5for?5animated?5envmap?$AA@ 10059694     lightmappedtwotexture.obj
 0002:0000d6b0       ??_C@_0BC@IPEKJDIO@envmap?5mask?5scale?$AA@ 100596b0     lightmappedtwotexture.obj
 0002:0000d6c4       ??_C@_0BB@JDGDOCFI@$ENVMAPMASKSCALE?$AA@ 100596c4     lightmappedtwotexture.obj
 0002:0000d6d8       ??_C@_0BK@DHMMFFGM@LightmappedTwoTexture_DX5?$AA@ 100596d8     lightmappedtwotexture.obj
 0002:0000d6fc       ??_7CShader@SDK_LightmappedTwoTexture@@6B@ 100596fc     lightmappedtwotexture.obj
 0002:0000d74c       ??_C@_04MJCNCCON@LUMA?$AA@ 1005974c     luma.obj
 0002:0000d754       ??_C@_09IPFODPHD@luma_ps30?$AA@ 10059754     luma.obj
 0002:0000d764       ??_7CShader@LUMA@@6B@      10059764     luma.obj
 0002:0000d7b4       ??_C@_08BIJOEGAJ@Negative?$AA@ 100597b4     negative.obj
 0002:0000d7c0       ??_C@_0P@HOJMHEPP@negative_ps20b?$AA@ 100597c0     negative.obj
 0002:0000d7d0       ??_C@_0O@IOLEECHJ@negative_ps20?$AA@ 100597d0     negative.obj
 0002:0000d7e4       ??_7CShader@Negative@@6B@  100597e4     negative.obj
 0002:0000d834       ??_C@_0M@GKJBAFDN@Nightvision?$AA@ 10059834     nightvision.obj
 0002:0000d840       ??_C@_0O@NLKINJHN@$FINENOISETEX?$AA@ 10059840     nightvision.obj
 0002:0000d850       ??_C@_0N@PGMBDOHM@$SPECTRUMTEX?$AA@ 10059850     nightvision.obj
 0002:0000d860       ??_C@_0BC@CELBDJBL@nightvision_ps20b?$AA@ 10059860     nightvision.obj
 0002:0000d874       ??_C@_0BB@KGCGLNIH@nightvision_ps20?$AA@ 10059874     nightvision.obj
 0002:0000d88c       ??_7CShader@Nightvision@@6B@ 1005988c     nightvision.obj
 0002:0000d8dc       ??_C@_05GIBOCELO@Noise?$AA@ 100598dc     noise.obj
 0002:0000d8e4       ??_C@_03KHGJEAFP@0?44?$AA@ 100598e4     noise.obj
 0002:0000d8e8       ??_C@_0BB@PMIMODBG@$NOISE_INTENSITY?$AA@ 100598e8     noise.obj
 0002:0000d8fc       ??_C@_0BA@DPOICAMP@$SCAN_INTENSITY?$AA@ 100598fc     noise.obj
 0002:0000d90c       ??_C@_04CGOKOKBC@2048?$AA@ 1005990c     noise.obj
 0002:0000d914       ??_C@_0N@LPDEFFIA@$SCAN_AMOUNT?$AA@ 10059914     noise.obj
 0002:0000d924       ??_C@_04BMKECDBK@3?475?$AA@ 10059924     noise.obj
 0002:0000d92c       ??_C@_0BC@JHPDPLEJ@$NOISE_SATURATION?$AA@ 1005992c     noise.obj
 0002:0000d940       ??_C@_04DGBPBFCM@?90?43?$AA@ 10059940     noise.obj
 0002:0000d948       ??_C@_0BC@ENGABPOC@$NOISE_BRIGHTNESS?$AA@ 10059948     noise.obj
 0002:0000d95c       ??_C@_0BE@ENOJGEEG@$SHOW_GRAIN_CONTROL?$AA@ 1005995c     noise.obj
 0002:0000d970       ??_C@_0M@LDPNEIBC@noise_ps20b?$AA@ 10059970     noise.obj
 0002:0000d97c       ??_C@_0L@DIIODMIM@noise_ps20?$AA@ 1005997c     noise.obj
 0002:0000d98c       ??_7CShader@Noise@@6B@     1005998c     noise.obj
 0002:0000d9dc       ??_C@_0BA@PGDNCEIF@RadialGaussianX?$AA@ 100599dc     radialgaussianx.obj
 0002:0000d9ec       ??_C@_0BG@OGKNHKEG@radialgaussianx_ps20b?$AA@ 100599ec     radialgaussianx.obj
 0002:0000da04       ??_C@_0BF@GNJKEHDL@radialgaussianx_ps20?$AA@ 10059a04     radialgaussianx.obj
 0002:0000da24       ??_7CShader@RadialGaussianX@@6B@ 10059a24     radialgaussianx.obj
 0002:0000da74       ??_C@_0BA@OPCGBFME@RadialGaussianY?$AA@ 10059a74     radialgaussiany.obj
 0002:0000da84       ??_C@_0BG@CKAHHKNI@radialgaussiany_ps20b?$AA@ 10059a84     radialgaussiany.obj
 0002:0000da9c       ??_C@_0BF@MLONEMIP@radialgaussiany_ps20?$AA@ 10059a9c     radialgaussiany.obj
 0002:0000dabc       ??_7CShader@RadialGaussianY@@6B@ 10059abc     radialgaussiany.obj
 0002:0000db0c       ??_C@_0M@FMIDOJMF@Radial_Blur?$AA@ 10059b0c     radial_blur.obj
 0002:0000db18       ??_C@_0L@HMJGNOHA@$BLURSTART?$AA@ 10059b18     radial_blur.obj
 0002:0000db24       ??_C@_0L@KKFDBOII@$BLURWIDTH?$AA@ 10059b24     radial_blur.obj
 0002:0000db30       ??_C@_04KLNDKKFJ@$gCX?$AA@ 10059b30     radial_blur.obj
 0002:0000db38       ??_C@_04LCMIJLBI@$gCY?$AA@ 10059b38     radial_blur.obj
 0002:0000db40       ??_C@_05CBJHHFJ@?$FL0?50?$FN?$AA@ 10059b40     radial_blur.obj
 0002:0000db48       ??_C@_0O@DOAKAAPG@$TEXELOFFSETS?$AA@ 10059b48     radial_blur.obj
 0002:0000db58       ??_C@_0BA@LOMAHNMJ@radialblur_vs30?$AA@ 10059b58     radial_blur.obj
 0002:0000db68       ??_C@_0BA@DBIAIIGJ@radialblur_ps30?$AA@ 10059b68     radial_blur.obj
 0002:0000db7c       ??_7CShader@Radial_Blur@@6B@ 10059b7c     radial_blur.obj
 0002:0000dbcc       ??_C@_0M@HDIFDIAN@SDK_Refract?$AA@ 10059bcc     refract.obj
 0002:0000dbd8       ??_C@_0BB@IEANGMKL@SDK_Refract_DX90?$AA@ 10059bd8     refract.obj
 0002:0000dbec       ??_C@_0M@CEPGEKE@$NORMALMAP2?$AA@ 10059bec     refract.obj
 0002:0000dbf8       ??_C@_0BM@GDOOPOKE@frame?5number?5for?5$normalmap?$AA@ 10059bf8     refract.obj
 0002:0000dc14       ??_C@_0BO@HIOGKNEB@$normalmap?5texcoord?5transform?$AA@ 10059c14     refract.obj
 0002:0000dc34       ??_C@_0CG@HLFNGPPG@0?0?51?0?5or?52?5for?5how?5much?5blur?5you@ 10059c34     refract.obj
 0002:0000dc5c       ??_C@_0DP@CKAJGPEM@0?5for?5no?5fade?5out?5on?5silhouette?0@ 10059c5c     refract.obj
 0002:0000dc9c       ??_C@_0BF@PFFOJLAF@$FADEOUTONSILHOUETTE?$AA@ 10059c9c     refract.obj
 0002:0000dcb4       ??_C@_0BJ@EHMHNDKH@models?1shadertest?1shield?$AA@ 10059cb4     refract.obj
 0002:0000dcd0       ??_C@_0BE@CLJDJENK@$REFRACTTINTTEXTURE?$AA@ 10059cd0     refract.obj
 0002:0000dce4       ??_C@_0BJ@DFHEAFJK@$REFRACTTINTTEXTUREFRAME?$AA@ 10059ce4     refract.obj
 0002:0000dd00       ??_C@_0BN@BBPFOJAA@0?5?$DN?$DN?5write?5z?0?51?5?$DN?5no?5write?5z?$AA@ 10059d00     refract.obj
 0002:0000dd20       ??_C@_09DMJDBKAK@$NOWRITEZ?$AA@ 10059d20     refract.obj
 0002:0000dd2c       ??_C@_0BG@KOFKJFEI@mask?5using?5dest?5alpha?$AA@ 10059d2c     refract.obj
 0002:0000dd44       ??_C@_07NHNLCOEH@$MASKED?$AA@ 10059d44     refract.obj
 0002:0000dd50       ??_C@_0EP@LGIFCOCH@Use?5the?5vertex?5color?5to?5effect?5r@ 10059d50     refract.obj
 0002:0000dda0       ??_C@_0BF@KFONOPBN@$VERTEXCOLORMODULATE?$AA@ 10059da0     refract.obj
 0002:0000ddb8       ??_C@_0BJ@HDGHEHBA@Use?5chromatic?5dispersion?$AA@ 10059db8     refract.obj
 0002:0000ddd4       ??_C@_0L@CBJPAEOG@$CHROMATIC?$AA@ 10059dd4     refract.obj
 0002:0000dde0       ??_C@_0BP@FGLHKEHK@amount?5of?5chromatic?5dispersion?$AA@ 10059de0     refract.obj
 0002:0000de00       ??_C@_0BA@BAEJOHHK@$CHROMATICSCALE?$AA@ 10059e00     refract.obj
 0002:0000de10       ??_C@_0N@MFAGAODL@Refract_DX80?$AA@ 10059e10     refract.obj
 0002:0000de24       ??_7CShader@SDK_Refract@@6B@ 10059e24     refract.obj
 0002:0000de7c       ??_7CShader@SDK_Refract_DX90@@6B@ 10059e7c     refract.obj
 0002:0000ded0       ??_C@_0GC@KMHOMGCM@Refract?3?5Primary?5and?5Secondary?5n@ 10059ed0     refract_dx9_helper.obj
 0002:0000df34       ??_C@_0BB@CGKNHMHP@sdk_refract_vs20?$AA@ 10059f34     refract_dx9_helper.obj
 0002:0000df48       ??_C@_0BC@EBAOCLOJ@sdk_refract_ps20b?$AA@ 10059f48     refract_dx9_helper.obj
 0002:0000df5c       ??_C@_0BB@KJONIJNP@sdk_refract_ps20?$AA@ 10059f5c     refract_dx9_helper.obj
 0002:0000df70       ??_C@_0BI@DIOFAMK@SDK_screenspace_general?$AA@ 10059f70     screenspace_general.obj
 0002:0000df88       ??_C@_0BM@BDCEEILB@SDK_screenspace_general_dx9?$AA@ 10059f88     screenspace_general.obj
 0002:0000dfa4       ??_C@_05CIPKHNJF@$C0_X?$AA@ 10059fa4     screenspace_general.obj
 0002:0000dfac       ??_C@_05DBOBEMNE@$C0_Y?$AA@ 10059fac     screenspace_general.obj
 0002:0000dfb4       ??_C@_05BKMMBPBH@$C0_Z?$AA@ 10059fb4     screenspace_general.obj
 0002:0000dfbc       ??_C@_05KPGCGBFK@$C0_W?$AA@ 10059fbc     screenspace_general.obj
 0002:0000dfc4       ??_C@_05JAEGBKPA@$C1_X?$AA@ 10059fc4     screenspace_general.obj
 0002:0000dfcc       ??_C@_05IJFNCLLB@$C1_Y?$AA@ 10059fcc     screenspace_general.obj
 0002:0000dfd4       ??_C@_05KCHAHIHC@$C1_Z?$AA@ 10059fd4     screenspace_general.obj
 0002:0000dfdc       ??_C@_05BHNOAGDP@$C1_W?$AA@ 10059fdc     screenspace_general.obj
 0002:0000dfe4       ??_C@_05ICPDLFBO@$C2_X?$AA@ 10059fe4     screenspace_general.obj
 0002:0000dfec       ??_C@_05JLOIIEFP@$C2_Y?$AA@ 10059fec     screenspace_general.obj
 0002:0000dff4       ??_C@_05LAMFNHJM@$C2_Z?$AA@ 10059ff4     screenspace_general.obj
 0002:0000dffc       ??_C@_05FGLKJNB@$C2_W?$AA@ 10059ffc     screenspace_general.obj
 0002:0000e004       ??_C@_05DKEPNCHL@$C3_X?$AA@ 1005a004     screenspace_general.obj
 0002:0000e00c       ??_C@_05CDFEODDK@$C3_Y?$AA@ 1005a00c     screenspace_general.obj
 0002:0000e014       ??_C@_05IHJLAPJ@$C3_Z?$AA@ 1005a014     screenspace_general.obj
 0002:0000e01c       ??_C@_05LNNHMOLE@$C3_W?$AA@ 1005a01c     screenspace_general.obj
 0002:0000e024       ??_C@_0CA@IKJIBMEI@Name?5of?5the?5pixel?5shader?5to?5use?$AA@ 1005a024     screenspace_general.obj
 0002:0000e044       ??_C@_0L@JBNENMGE@$PIXSHADER?$AA@ 1005a044     screenspace_general.obj
 0002:0000e050       ??_C@_0BG@PIDMKBCN@$DISABLE_COLOR_WRITES?$AA@ 1005a050     screenspace_general.obj
 0002:0000e068       ??_C@_0N@JMCGLDDC@$ALPHATESTED?$AA@ 1005a068     screenspace_general.obj
 0002:0000e078       ??_C@_09LCNOMKOK@$TEXTURE1?$AA@ 1005a078     screenspace_general.obj
 0002:0000e084       ??_C@_09JJPDJJCJ@$TEXTURE2?$AA@ 1005a084     screenspace_general.obj
 0002:0000e090       ??_C@_09IAOIKIGI@$TEXTURE3?$AA@ 1005a090     screenspace_general.obj
 0002:0000e09c       ??_C@_0BI@KOAHMGBM@$LINEARREAD_BASETEXTURE?$AA@ 1005a09c     screenspace_general.obj
 0002:0000e0b4       ??_C@_0BF@OJJMLBDA@$LINEARREAD_TEXTURE1?$AA@ 1005a0b4     screenspace_general.obj
 0002:0000e0cc       ??_C@_0BF@MCLBOCPD@$LINEARREAD_TEXTURE2?$AA@ 1005a0cc     screenspace_general.obj
 0002:0000e0e4       ??_C@_0BF@NLKKNDLC@$LINEARREAD_TEXTURE3?$AA@ 1005a0e4     screenspace_general.obj
 0002:0000e0fc       ??_C@_0N@NNEIAMM@$LINEARWRITE?$AA@ 1005a0fc     screenspace_general.obj
 0002:0000e10c       ??_C@_0CC@KCFCHONL@Needed?5for?5movies?5in?5360?5launche@ 1005a10c     screenspace_general.obj
 0002:0000e130       ??_C@_0BA@PKOHJGON@$X360APPCHOOSER?$AA@ 1005a130     screenspace_general.obj
 0002:0000e140       ??_C@_0BI@PMFHOBDB@screenspace_general_dx8?$AA@ 1005a140     screenspace_general.obj
 0002:0000e158       ??_C@_05MLBEAMMO@_ps20?$AA@ 1005a158     screenspace_general.obj
 0002:0000e164       ??_7CShader@SDK_screenspace_general@@6B@ 1005a164     screenspace_general.obj
 0002:0000e1bc       ??_7CShader@SDK_screenspace_general_dx9@@6B@ 1005a1bc     screenspace_general.obj
 0002:0000e20c       ??_C@_0M@KDKCAKLK@ScreenWater?$AA@ 1005a20c     screenwater.obj
 0002:0000e218       ??_C@_0P@EKPMLHIB@$NORMALTEXTURE?$AA@ 1005a218     screenwater.obj
 0002:0000e228       ??_C@_0L@KNCBBALA@$VISCOSITY?$AA@ 1005a228     screenwater.obj
 0002:0000e234       ??_C@_0BB@MIEKIMOK@screenwater_vs20?$AA@ 1005a234     screenwater.obj
 0002:0000e248       ??_C@_0BC@MBIFKLNC@screenwater_ps20b?$AA@ 1005a248     screenwater.obj
 0002:0000e25c       ??_C@_0BB@EHAKHJEK@screenwater_ps20?$AA@ 1005a25c     screenwater.obj
 0002:0000e274       ??_7CShader@ScreenWater@@6B@ 1005a274     screenwater.obj
 0002:0000e2c4       ??_C@_05MFCKNGON@Sepia?$AA@ 1005a2c4     sepia.obj
 0002:0000e2cc       ??_C@_0M@KFPKJALD@sepia_ps20b?$AA@ 1005a2cc     sepia.obj
 0002:0000e2d8       ??_C@_0L@FDJJNIFD@sepia_ps20?$AA@ 1005a2d8     sepia.obj
 0002:0000e2ec       ??_7CShader@Sepia@@6B@     1005a2ec     sepia.obj
 0002:0000e33c       ??_C@_0L@MBMLDGMP@r_rimlight?$AA@ 1005a33c     skin_dx9_helper.obj
 0002:0000e348       ??_C@_0O@BJIKELHC@sdk_skin_vs20?$AA@ 1005a348     skin_dx9_helper.obj
 0002:0000e358       ??_C@_0P@DPIAHAGD@sdk_skin_ps20b?$AA@ 1005a358     skin_dx9_helper.obj
 0002:0000e368       ??_C@_0O@BIEICBEF@sdk_skin_vs30?$AA@ 1005a368     skin_dx9_helper.obj
 0002:0000e378       ??_C@_0O@JHAINEOF@sdk_skin_ps30?$AA@ 1005a378     skin_dx9_helper.obj
 0002:0000e38c       ??_7CSkin_DX9_Context@@6B@ 1005a38c     skin_dx9_helper.obj
 0002:0000e390       ??_C@_0P@LGGAGKAF@SDK_Spritecard?$AA@ 1005a390     spritecard.obj
 0002:0000e3a0       ??_C@_0BJ@JMOFDIIK@?9softparticlesdefaultoff?$AA@ 1005a3a0     spritecard.obj
 0002:0000e3bc       ??_C@_0CA@OPBPIPDL@fade?5at?5intersection?5boundaries?$AA@ 1005a3bc     spritecard.obj
 0002:0000e3dc       ??_C@_0M@MIINGECB@$DEPTHBLEND?$AA@ 1005a3dc     spritecard.obj
 0002:0000e3e8       ??_C@_0EF@FKEFBLKD@Amplify?5or?5reduce?5DEPTHBLEND?5fad@ 1005a3e8     spritecard.obj
 0002:0000e430       ??_C@_04ENKCJKKM@50?40?$AA@ 1005a430     spritecard.obj
 0002:0000e438       ??_C@_0BB@OAEEBLAJ@$DEPTHBLENDSCALE?$AA@ 1005a438     spritecard.obj
 0002:0000e450       ??_C@_0ED@HJIEGBPB@0?5?$DN?5always?5face?5camera?0?51?5?$DN?5rota@ 1005a450     spritecard.obj
 0002:0000e494       ??_C@_0N@GPJKMCA@$ORIENTATION?$AA@ 1005a494     spritecard.obj
 0002:0000e4a4       ??_C@_0CN@EBJMOFIK@amount?5to?5blend?5second?5texture?5i@ 1005a4a4     spritecard.obj
 0002:0000e4d4       ??_C@_0BB@NPNHBPFM@$ADDBASETEXTURE2?$AA@ 1005a4d4     spritecard.obj
 0002:0000e4e8       ??_C@_0DA@IIFLGAOG@overbright?5factor?5for?5texture?4?5F@ 1005a4e8     spritecard.obj
 0002:0000e518       ??_C@_0BC@NCGDDDMN@$OVERBRIGHTFACTOR?$AA@ 1005a518     spritecard.obj
 0002:0000e52c       ??_C@_0CH@BBGFLONM@blend?5two?5separate?5animated?5sequ@ 1005a52c     spritecard.obj
 0002:0000e554       ??_C@_0O@FHGJDMEI@$DUALSEQUENCE?$AA@ 1005a554     spritecard.obj
 0002:0000e568       ??_C@_0IG@DMJDNDFJ@defines?5the?5blend?5mode?5between?5t@ 1005a568     spritecard.obj
 0002:0000e5f0       ??_C@_0BF@CBIFLLPL@$SEQUENCE_BLEND_MODE?$AA@ 1005a5f0     spritecard.obj
 0002:0000e608       ??_C@_0GM@OPLDKKAM@instead?5of?5blending?5between?5anim@ 1005a608     spritecard.obj
 0002:0000e674       ??_C@_0BD@CFNMMLKB@$MAXLUMFRAMEBLEND1?$AA@ 1005a674     spritecard.obj
 0002:0000e688       ??_C@_0GK@LNABAAMP@instead?5of?5blending?5between?5anim@ 1005a688     spritecard.obj
 0002:0000e6f4       ??_C@_0BD@OPBJIGC@$MAXLUMFRAMEBLEND2?$AA@ 1005a6f4     spritecard.obj
 0002:0000e708       ??_C@_0GF@CJIANGCP@if?5specified?0?5then?5the?5red?5value@ 1005a708     spritecard.obj
 0002:0000e770       ??_C@_0N@KJCIKNLJ@$RAMPTEXTURE?$AA@ 1005a770     spritecard.obj
 0002:0000e780       ??_C@_0HH@CJEBEAGM@amount?5to?5gradually?5zoom?5between@ 1005a780     spritecard.obj
 0002:0000e7f8       ??_C@_0BB@HIGLPLKL@$ZOOMANIMATESEQ2?$AA@ 1005a7f8     spritecard.obj
 0002:0000e80c       ??_C@_0CP@GKIGPOMJ@grayscale?5data?5sitting?5in?5green?1@ 1005a80c     spritecard.obj
 0002:0000e83c       ??_C@_0BD@GHKPKLME@$EXTRACTGREENALPHA?$AA@ 1005a83c     spritecard.obj
 0002:0000e850       ??_C@_0BN@GKNMJNFM@use?5ONE?3INVSRCALPHA?5blending?$AA@ 1005a850     spritecard.obj
 0002:0000e870       ??_C@_0O@OJOFBDBK@$ADDOVERBLEND?$AA@ 1005a870     spritecard.obj
 0002:0000e880       ??_C@_0CO@PKONBILC@amount?5of?5base?5texture?5to?5additi@ 1005a880     spritecard.obj
 0002:0000e8b0       ??_C@_08LILGCKO@$ADDSELF?$AA@ 1005a8b0     spritecard.obj
 0002:0000e8bc       ??_C@_0DJ@FGNDAKOB@whether?5or?5not?5to?5smoothly?5blend@ 1005a8bc     spritecard.obj
 0002:0000e8f8       ??_C@_0N@MNOFLLCF@$BLENDFRAMES?$AA@ 1005a8f8     spritecard.obj
 0002:0000e908       ??_C@_0CL@LOGEDLOD@minimum?5screen?5fractional?5size?5o@ 1005a908     spritecard.obj
 0002:0000e934       ??_C@_08OFDIAGPO@$MINSIZE?$AA@ 1005a934     spritecard.obj
 0002:0000e940       ??_C@_0DE@NCGCODPM@screen?5fractional?5size?5to?5start?5@ 1005a940     spritecard.obj
 0002:0000e974       ??_C@_04LICCDMGM@10?40?$AA@ 1005a974     spritecard.obj
 0002:0000e97c       ??_C@_0P@FBMDGNMN@$STARTFADESIZE?$AA@ 1005a97c     spritecard.obj
 0002:0000e98c       ??_C@_0DF@GBMDFAJP@screen?5fractional?5size?5to?5finish@ 1005a98c     spritecard.obj
 0002:0000e9c4       ??_C@_04PPICEGLM@20?40?$AA@ 1005a9c4     spritecard.obj
 0002:0000e9cc       ??_C@_0N@OKAHANAM@$ENDFADESIZE?$AA@ 1005a9cc     spritecard.obj
 0002:0000e9dc       ??_C@_0CL@PAOMFOEJ@maximum?5screen?5fractional?5size?5o@ 1005a9dc     spritecard.obj
 0002:0000ea08       ??_C@_08DFIKJBP@$MAXSIZE?$AA@ 1005aa08     spritecard.obj
 0002:0000ea18       ??_C@_0EH@IDGDKGB@whether?5to?5use?5GPU?5vertex?5instan@ 1005aa18     spritecard.obj
 0002:0000ea60       ??_C@_0P@MJCFFAEL@$USEINSTANCING?$AA@ 1005aa60     spritecard.obj
 0002:0000ea70       ??_C@_0CF@OLKJKCIH@spline?5type?50?5?$DN?5none?0?5?51?$DNctamull@ 1005aa70     spritecard.obj
 0002:0000ea98       ??_C@_0M@BIKEOEIH@$SPLINETYPE?$AA@ 1005aa98     spritecard.obj
 0002:0000eaa4       ??_C@_0CG@LNBGHACF@maximum?5distance?5to?5draw?5particl@ 1005aaa4     spritecard.obj
 0002:0000eacc       ??_C@_08LFPHNDHM@100000?40?$AA@ 1005aacc     spritecard.obj
 0002:0000ead8       ??_C@_0N@EBIBMKLL@$MAXDISTANCE?$AA@ 1005aad8     spritecard.obj
 0002:0000eae8       ??_C@_0DD@GDHCABME@interval?5over?5which?5to?5fade?5out?5@ 1005aae8     spritecard.obj
 0002:0000eb1c       ??_C@_05GNEJAGNJ@400?40?$AA@ 1005ab1c     spritecard.obj
 0002:0000eb24       ??_C@_0BB@EMJFCAHP@$FARFADEINTERVAL?$AA@ 1005ab24     spritecard.obj
 0002:0000eb38       ??_C@_0BD@GMJFBFPK@SDK_SpriteCard_DX8?$AA@ 1005ab38     spritecard.obj
 0002:0000eb4c       ??_C@_0BE@FBFNHEBI@sdk_splinecard_vs20?$AA@ 1005ab4c     spritecard.obj
 0002:0000eb60       ??_C@_0BE@BKFLBIGJ@sdk_spritecard_vs20?$AA@ 1005ab60     spritecard.obj
 0002:0000eb74       ??_C@_0BF@LFOGGINM@sdk_spritecard_ps20b?$AA@ 1005ab74     spritecard.obj
 0002:0000eb8c       ??_C@_0BE@JFBLONMJ@sdk_spritecard_ps20?$AA@ 1005ab8c     spritecard.obj
 0002:0000eba4       ??_7CShader@SDK_Spritecard@@6B@ 1005aba4     spritecard.obj
 0002:0000ebf4       ??_C@_09FIKLCLOC@SDK_Teeth?$AA@ 1005abf4     teeth.obj
 0002:0000ec00       ??_C@_0O@KCDDPJJE@SDK_Teeth_DX9?$AA@ 1005ac00     teeth.obj
 0002:0000ec10       ??_C@_0CH@EMBLPCJG@Amount?5to?5darken?5or?5brighten?5the@ 1005ac10     teeth.obj
 0002:0000ec38       ??_C@_0N@LHKHHMLB@$ILLUMFACTOR?$AA@ 1005ac38     teeth.obj
 0002:0000ec48       ??_C@_0CM@OLHJKHPD@Forward?5direction?5vector?5for?5tee@ 1005ac48     teeth.obj
 0002:0000ec74       ??_C@_07LBEELFOH@?$FL1?50?50?$FN?$AA@ 1005ac74     teeth.obj
 0002:0000ec7c       ??_C@_08IIKKADKE@$FORWARD?$AA@ 1005ac7c     teeth.obj
 0002:0000ec88       ??_C@_0P@BAMNDABC@phong?5exponent?$AA@ 1005ac88     teeth.obj
 0002:0000ec98       ??_C@_03GNABGMEE@100?$AA@  1005ac98     teeth.obj
 0002:0000ec9c       ??_C@_0BK@GFBIIJDP@is?5teeth?5in?5the?5ep1?5intro?$AA@ 1005ac9c     teeth.obj
 0002:0000ecb8       ??_C@_09JNIPBPNN@Teeth_dx8?$AA@ 1005acb8     teeth.obj
 0002:0000ecc4       ??_C@_0BE@ILCAMBCM@sdk_teeth_bump_vs20?$AA@ 1005acc4     teeth.obj
 0002:0000ecd8       ??_C@_0BF@LDMBKGBK@sdk_teeth_bump_ps20b?$AA@ 1005acd8     teeth.obj
 0002:0000ecf0       ??_C@_0BE@EGADEIM@sdk_teeth_bump_ps20?$AA@ 1005acf0     teeth.obj
 0002:0000ed04       ??_C@_0BE@IKOCKLBL@sdk_teeth_bump_vs30?$AA@ 1005ad04     teeth.obj
 0002:0000ed18       ??_C@_0BE@FKCFOLL@sdk_teeth_bump_ps30?$AA@ 1005ad18     teeth.obj
 0002:0000ed2c       ??_C@_0P@PIECPMAL@sdk_teeth_vs20?$AA@ 1005ad2c     teeth.obj
 0002:0000ed3c       ??_C@_0BA@BGLIHBEM@sdk_teeth_ps20b?$AA@ 1005ad3c     teeth.obj
 0002:0000ed4c       ??_C@_0P@HHACAJKL@sdk_teeth_ps20?$AA@ 1005ad4c     teeth.obj
 0002:0000ed5c       ??_C@_0P@PJIAJGDM@sdk_teeth_vs30?$AA@ 1005ad5c     teeth.obj
 0002:0000ed6c       ??_C@_0P@HGMAGDJM@sdk_teeth_ps30?$AA@ 1005ad6c     teeth.obj
 0002:0000ed7c       ??_C@_0BK@CIHLILJI@sdk_teeth_flashlight_vs20?$AA@ 1005ad7c     teeth.obj
 0002:0000ed98       ??_C@_0BL@HPGOIKMF@sdk_teeth_flashlight_ps20b?$AA@ 1005ad98     teeth.obj
 0002:0000edb4       ??_C@_0BK@KHDLHODI@sdk_teeth_flashlight_ps20?$AA@ 1005adb4     teeth.obj
 0002:0000edd0       ??_C@_0BK@CJLJOBKP@sdk_teeth_flashlight_vs30?$AA@ 1005add0     teeth.obj
 0002:0000edec       ??_C@_0BK@KGPJBEAP@sdk_teeth_flashlight_ps30?$AA@ 1005adec     teeth.obj
 0002:0000ee0c       ??_7CShader@SDK_Teeth@@6B@ 1005ae0c     teeth.obj
 0002:0000ee64       ??_7CShader@SDK_Teeth_DX9@@6B@ 1005ae64     teeth.obj
 0002:0000eeb4       ??_C@_0BB@OOONKNEP@SDK_UnlitGeneric?$AA@ 1005aeb4     unlitgeneric_dx9.obj
 0002:0000eec8       ??_C@_03IMEEBDJM@0?47?$AA@ 1005aec8     unlitgeneric_dx9.obj
 0002:0000eecc       ??_C@_0BB@BCIIJFHG@$VERTEXALPHATEST?$AA@ 1005aecc     unlitgeneric_dx9.obj
 0002:0000eee0       ??_C@_0BA@FFPLCMDB@hdr?5color?5scale?$AA@ 1005aee0     unlitgeneric_dx9.obj
 0002:0000eef0       ??_C@_0P@OLCECCPP@$HDRCOLORSCALE?$AA@ 1005aef0     unlitgeneric_dx9.obj
 0002:0000ef00       ??_C@_0CF@GIJFHAEG@Phong?5tint?5for?5local?5specular?5li@ 1005af00     unlitgeneric_dx9.obj
 0002:0000ef28       ??_C@_0L@HOLDHIG@$PHONGTINT?$AA@ 1005af28     unlitgeneric_dx9.obj
 0002:0000ef34       ??_C@_0DK@BPOOLEG@Apply?5tint?5by?5albedo?5?$CIcontrolled@ 1005af34     unlitgeneric_dx9.obj
 0002:0000ef70       ??_C@_0BB@HBGCINHG@$PHONGALBEDOTINT?$AA@ 1005af70     unlitgeneric_dx9.obj
 0002:0000ef84       ??_C@_0BM@OLBAAKPN@2D?5map?5for?5warping?5specular?$AA@ 1005af84     unlitgeneric_dx9.obj
 0002:0000efa0       ??_C@_0BC@GJLNNPAI@$PHONGWARPTEXTURE?$AA@ 1005afa0     unlitgeneric_dx9.obj
 0002:0000efb4       ??_C@_0BD@EGMFCGDJ@Phong?5Exponent?5map?$AA@ 1005afb4     unlitgeneric_dx9.obj
 0002:0000efc8       ??_C@_0BG@MJJIOHNI@$PHONGEXPONENTTEXTURE?$AA@ 1005afc8     unlitgeneric_dx9.obj
 0002:0000efe0       ??_C@_0BL@NOGBPJNP@$detail?5texcoord?5transform?$AA@ 1005afe0     unlitgeneric_dx9.obj
 0002:0000effc       ??_C@_0BI@FPPPDPCK@$DETAILTEXTURETRANSFORM?$AA@ 1005affc     unlitgeneric_dx9.obj
 0002:0000f018       ??_C@_0EL@ILCJJFMK@If?5we?5bind?5a?5texture?5here?0?5it?5ov@ 1005b018     unlitgeneric_dx9.obj
 0002:0000f064       ??_C@_0P@MCGFDDDI@$SELFILLUMMASK?$AA@ 1005b064     unlitgeneric_dx9.obj
 0002:0000f078       ??_C@_0EA@LANEMFAI@Use?5distance?9coded?5alpha?5generat@ 1005b078     unlitgeneric_dx9.obj
 0002:0000f0b8       ??_C@_0P@BIPCIINC@$DISTANCEALPHA?$AA@ 1005b0b8     unlitgeneric_dx9.obj
 0002:0000f0c8       ??_C@_0DM@CEJFJGKL@Take?5the?5distance?9coded?5alpha?5ma@ 1005b0c8     unlitgeneric_dx9.obj
 0002:0000f104       ??_C@_0BJ@HNNEIICO@$DISTANCEALPHAFROMDETAIL?$AA@ 1005b104     unlitgeneric_dx9.obj
 0002:0000f120       ??_C@_0EM@LEANHGAG@Scale?5the?5size?5of?5the?5soft?5edges@ 1005b120     unlitgeneric_dx9.obj
 0002:0000f16c       ??_C@_0CD@OLDAPCKB@$SCALEEDGESOFTNESSBASEDONSCREENR@ 1005b16c     unlitgeneric_dx9.obj
 0002:0000f190       ??_C@_0DA@OHBOJCAJ@Enable?5glow?1shadow?5for?5distance?5@ 1005b190     unlitgeneric_dx9.obj
 0002:0000f1c0       ??_C@_05GHCNHLMO@$GLOW?$AA@ 1005b1c0     unlitgeneric_dx9.obj
 0002:0000f1c8       ??_C@_0DC@HICKDICE@color?5of?5outter?5glow?5for?5distanc@ 1005b1c8     unlitgeneric_dx9.obj
 0002:0000f1fc       ??_C@_0L@IBNEPMAA@$GLOWCOLOR?$AA@ 1005b1fc     unlitgeneric_dx9.obj
 0002:0000f208       ??_C@_0DO@DFNKPKOB@Base?5glow?5alpha?5amount?5for?5glows@ 1005b208     unlitgeneric_dx9.obj
 0002:0000f248       ??_C@_0L@PFNDJIOL@$GLOWALPHA?$AA@ 1005b248     unlitgeneric_dx9.obj
 0002:0000f254       ??_C@_0BM@BBDCLPKK@start?5value?5for?5glow?1shadow?$AA@ 1005b254     unlitgeneric_dx9.obj
 0002:0000f270       ??_C@_0L@CFPMBHHA@$GLOWSTART?$AA@ 1005b270     unlitgeneric_dx9.obj
 0002:0000f27c       ??_C@_0BK@IHMOGOAI@end?5value?5for?5glow?1shadow?$AA@ 1005b27c     unlitgeneric_dx9.obj
 0002:0000f298       ??_C@_08FAPOMFKB@$GLOWEND?$AA@ 1005b298     unlitgeneric_dx9.obj
 0002:0000f2a4       ??_C@_0CA@DNADKGNL@texture?5offset?5x?5for?5glow?5mask?4?$AA@ 1005b2a4     unlitgeneric_dx9.obj
 0002:0000f2c4       ??_C@_06ONJBFJA@$GLOWX?$AA@ 1005b2c4     unlitgeneric_dx9.obj
 0002:0000f2cc       ??_C@_0CA@LKKFGNJI@texture?5offset?5y?5for?5glow?5mask?4?$AA@ 1005b2cc     unlitgeneric_dx9.obj
 0002:0000f2ec       ??_C@_06BHMCCENB@$GLOWY?$AA@ 1005b2ec     unlitgeneric_dx9.obj
 0002:0000f2f8       ??_C@_0FK@IGFMDJBM@Scale?5the?5size?5of?5the?5soft?5part?5@ 1005b2f8     unlitgeneric_dx9.obj
 0002:0000f354       ??_C@_0CG@BIDLLNBO@$SCALEOUTLINESOFTNESSBASEDONSCRE@ 1005b354     unlitgeneric_dx9.obj
 0002:0000f37c       ??_C@_0CB@GNJDAOIO@Use?5texcoord1?5for?5detail?5texture@ 1005b37c     unlitgeneric_dx9.obj
 0002:0000f3a0       ??_C@_0BD@DIHKOBLP@$SEPARATEDETAILUVS?$AA@ 1005b3a0     unlitgeneric_dx9.obj
 0002:0000f3b4       ??_C@_0DA@LCICOOCL@Disables?5SRGB?5conversion?5of?5colo@ 1005b3b4     unlitgeneric_dx9.obj
 0002:0000f3e4       ??_C@_0BA@OMGIDCLN@$GAMMACOLORREAD?$AA@ 1005b3e4     unlitgeneric_dx9.obj
 0002:0000f3f4       ??_C@_0CM@EIONJHAK@Disables?5SRGB?5conversion?5of?5shad@ 1005b3f4     unlitgeneric_dx9.obj
 0002:0000f420       ??_C@_0CN@MAHHDOFP@Forces?5this?5material?5to?5receive?5@ 1005b420     unlitgeneric_dx9.obj
 0002:0000f450       ??_C@_0BD@JGLIBMJI@$RECEIVEFLASHLIGHT?$AA@ 1005b450     unlitgeneric_dx9.obj
 0002:0000f46c       ??_7CShader@SDK_UnlitGeneric@@6B@ 1005b46c     unlitgeneric_dx9.obj
 0002:0000f4bc       ??_C@_0BE@FPKKGJFD@SDK_UnlitTwoTexture?$AA@ 1005b4bc     unlittwotexture_dx9.obj
 0002:0000f4d0       ??_C@_0BI@PDJMCNCH@SDK_UnlitTwoTexture_DX9?$AA@ 1005b4d0     unlittwotexture_dx9.obj
 0002:0000f4e8       ??_C@_0P@IPHKDFAO@second?5texture?$AA@ 1005b4e8     unlittwotexture_dx9.obj
 0002:0000f4f8       ??_C@_0BL@CKDDJKNK@frame?5number?5for?5$texture2?$AA@ 1005b4f8     unlittwotexture_dx9.obj
 0002:0000f514       ??_C@_0BN@JDEPAKEB@$texture2?5texcoord?5transform?$AA@ 1005b514     unlittwotexture_dx9.obj
 0002:0000f534       ??_C@_0BD@NIALCLDF@$TEXTURE2TRANSFORM?$AA@ 1005b534     unlittwotexture_dx9.obj
 0002:0000f548       ??_C@_0BE@PLMJKBHM@UnlitTwoTexture_DX8?$AA@ 1005b548     unlittwotexture_dx9.obj
 0002:0000f55c       ??_C@_0BJ@KFKMJKOD@sdk_unlittwotexture_vs20?$AA@ 1005b55c     unlittwotexture_dx9.obj
 0002:0000f578       ??_C@_0BK@LIDEPFGA@sdk_unlittwotexture_ps20b?$AA@ 1005b578     unlittwotexture_dx9.obj
 0002:0000f594       ??_C@_0BJ@CKOMGPED@sdk_unlittwotexture_ps20?$AA@ 1005b594     unlittwotexture_dx9.obj
 0002:0000f5b4       ??_7CShader@SDK_UnlitTwoTexture@@6B@ 1005b5b4     unlittwotexture_dx9.obj
 0002:0000f60c       ??_7CShader@SDK_UnlitTwoTexture_DX9@@6B@ 1005b60c     unlittwotexture_dx9.obj
 0002:0000f65c       ??_C@_07IDLGPMMB@Unsharp?$AA@ 1005b65c     unsharp.obj
 0002:0000f664       ??_C@_0BA@KMPLNGN@_rt_UnsharpBlur?$AA@ 1005b664     unsharp.obj
 0002:0000f674       ??_C@_0P@LJFIEDIE@$FBBLURTEXTURE?$AA@ 1005b674     unsharp.obj
 0002:0000f684       ??_C@_0BB@LDKOPOLM@$UNSHARPSTRENGTH?$AA@ 1005b684     unsharp.obj
 0002:0000f698       ??_C@_0N@HAKPMNJJ@unsharp_vs20?$AA@ 1005b698     unsharp.obj
 0002:0000f6a8       ??_C@_0O@IDBGOBF@unsharp_ps20b?$AA@ 1005b6a8     unsharp.obj
 0002:0000f6b8       ??_C@_0N@PPOPDIDJ@unsharp_ps20?$AA@ 1005b6b8     unsharp.obj
 0002:0000f6cc       ??_7CShader@Unsharp@@6B@   1005b6cc     unsharp.obj
 0002:0000f71c       ??_C@_0N@CIJAGJCB@Unsharp_Blur?$AA@ 1005b71c     unsharp_blur.obj
 0002:0000f72c       ??_C@_0BC@CLDLELF@unsharp_blur_vs20?$AA@ 1005b72c     unsharp_blur.obj
 0002:0000f740       ??_C@_0BD@DKJLBOIP@unsharp_blur_ps20b?$AA@ 1005b740     unsharp_blur.obj
 0002:0000f754       ??_C@_0BC@INPDEBBF@unsharp_blur_ps20?$AA@ 1005b754     unsharp_blur.obj
 0002:0000f76c       ??_7CShader@Unsharp_Blur@@6B@ 1005b76c     unsharp_blur.obj
 0002:0000f7bc       ??_C@_0BF@ELBGCJND@SDK_VertexLitGeneric?$AA@ 1005b7bc     vertexlitgeneric_dx9.obj
 0002:0000f7d4       ??_C@_0BH@LCDJFEJO@compression?5wrinklemap?$AA@ 1005b7d4     vertexlitgeneric_dx9.obj
 0002:0000f7ec       ??_C@_09HFEGGNDE@$COMPRESS?$AA@ 1005b7ec     vertexlitgeneric_dx9.obj
 0002:0000f7f8       ??_C@_0BF@KMMGAENM@expansion?5wrinklemap?$AA@ 1005b7f8     vertexlitgeneric_dx9.obj
 0002:0000f810       ??_C@_08BFJOBBNL@$STRETCH?$AA@ 1005b810     vertexlitgeneric_dx9.obj
 0002:0000f81c       ??_C@_0BF@JFLJLFIP@compression?5bump?5map?$AA@ 1005b81c     vertexlitgeneric_dx9.obj
 0002:0000f834       ??_C@_0O@IMIPDLA@$BUMPCOMPRESS?$AA@ 1005b834     vertexlitgeneric_dx9.obj
 0002:0000f844       ??_C@_0BD@ODIIFBBH@expansion?5bump?5map?$AA@ 1005b844     vertexlitgeneric_dx9.obj
 0002:0000f858       ??_C@_0N@JMJOCEFE@$BUMPSTRETCH?$AA@ 1005b858     vertexlitgeneric_dx9.obj
 0002:0000f868       ??_C@_0DM@OEILIDHN@defines?5that?5self?5illum?5value?5co@ 1005b868     vertexlitgeneric_dx9.obj
 0002:0000f8a4       ??_C@_0BM@EFKJOJDH@$SELFILLUM_ENVMAPMASK_ALPHA?$AA@ 1005b8a4     vertexlitgeneric_dx9.obj
 0002:0000f8c0       ??_C@_0BD@LKKACLAB@Self?5illum?5fresnel?$AA@ 1005b8c0     vertexlitgeneric_dx9.obj
 0002:0000f8d4       ??_C@_0BC@DMNOIDOB@$SELFILLUMFRESNEL?$AA@ 1005b8d4     vertexlitgeneric_dx9.obj
 0002:0000f8e8       ??_C@_0CB@JCDGMCEP@Self?5illum?5fresnel?5min?0?5max?0?5exp@ 1005b8e8     vertexlitgeneric_dx9.obj
 0002:0000f90c       ??_C@_0BL@MALKICOF@$SELFILLUMFRESNELMINMAXEXP?$AA@ 1005b90c     vertexlitgeneric_dx9.obj
 0002:0000f928       ??_C@_0BN@GOFMGIJE@Flashlight?5pass?5sets?5N?4L?$DN1?40?$AA@ 1005b928     vertexlitgeneric_dx9.obj
 0002:0000f948       ??_C@_0BF@PJDOHKGB@$FLASHLIGHTNOLAMBERT?$AA@ 1005b948     vertexlitgeneric_dx9.obj
 0002:0000f960       ??_C@_0CI@MCIJJHHH@Control?5drawing?5of?5non?9ambient?5l@ 1005b960     vertexlitgeneric_dx9.obj
 0002:0000f988       ??_C@_0N@IMOPKPML@$AMBIENTONLY?$AA@ 1005b988     vertexlitgeneric_dx9.obj
 0002:0000f998       ??_C@_0BH@JHJNHNM@warp?5the?5specular?5term?$AA@ 1005b998     vertexlitgeneric_dx9.obj
 0002:0000f9b0       ??_C@_0EP@BNPEEDNN@indicates?5that?5there?5is?5no?5norma@ 1005b9b0     vertexlitgeneric_dx9.obj
 0002:0000fa00       ??_C@_0BH@LGBADMND@$BASEMAPALPHAPHONGMASK?$AA@ 1005ba00     vertexlitgeneric_dx9.obj
 0002:0000fa18       ??_C@_0DB@JICDIPDB@invert?5the?5phong?5mask?5?$CI0?$DNfull?5ph@ 1005ba18     vertexlitgeneric_dx9.obj
 0002:0000fa4c       ??_C@_0BB@MEMCOJM@$INVERTPHONGMASK?$AA@ 1005ba4c     vertexlitgeneric_dx9.obj
 0002:0000fa60       ??_C@_0DF@HJGGAHMN@Degree?5to?5which?5Fresnel?5should?5b@ 1005ba60     vertexlitgeneric_dx9.obj
 0002:0000fa98       ??_C@_0P@EPJMFIJC@$ENVMAPFRESNEL?$AA@ 1005ba98     vertexlitgeneric_dx9.obj
 0002:0000faa8       ??_C@_0BF@BFOOEHP@enables?5rim?5lighting?$AA@ 1005baa8     vertexlitgeneric_dx9.obj
 0002:0000fac0       ??_C@_09JOINEECP@$RIMLIGHT?$AA@ 1005bac0     vertexlitgeneric_dx9.obj
 0002:0000facc       ??_C@_0BI@ILNFICKJ@Exponent?5for?5rim?5lights?$AA@ 1005bacc     vertexlitgeneric_dx9.obj
 0002:0000fae4       ??_C@_03EMGHBCAM@4?40?$AA@ 1005bae4     vertexlitgeneric_dx9.obj
 0002:0000fae8       ??_C@_0BC@HMMNDGGP@$RIMLIGHTEXPONENT?$AA@ 1005bae8     vertexlitgeneric_dx9.obj
 0002:0000fafc       ??_C@_0BF@LAEOLPAC@Boost?5for?5rim?5lights?$AA@ 1005bafc     vertexlitgeneric_dx9.obj
 0002:0000fb14       ??_C@_0P@LKKBHMNF@$RIMLIGHTBOOST?$AA@ 1005bb14     vertexlitgeneric_dx9.obj
 0002:0000fb28       ??_C@_0FH@MBFAOGLH@Indicates?5whether?5or?5not?5to?5use?5@ 1005bb28     vertexlitgeneric_dx9.obj
 0002:0000fb80       ??_C@_08ENABEANK@$RIMMASK?$AA@ 1005bb80     vertexlitgeneric_dx9.obj
 0002:0000fb90       ??_C@_0FA@GNKEKCDD@whether?5to?5apply?5seamless?5mappin@ 1005bb90     vertexlitgeneric_dx9.obj
 0002:0000fbe0       ??_C@_0P@KBOHMHPP@$SEAMLESS_BASE?$AA@ 1005bbe0     vertexlitgeneric_dx9.obj
 0002:0000fbf0       ??_C@_0DH@CGJNCNAH@where?5to?5apply?5seamless?5mapping?5@ 1005bbf0     vertexlitgeneric_dx9.obj
 0002:0000fc28       ??_C@_0BB@HAKAIBKL@$SEAMLESS_DETAIL?$AA@ 1005bc28     vertexlitgeneric_dx9.obj
 0002:0000fc40       ??_C@_0EI@IPGAIBPN@the?5scale?5for?5the?5seamless?5mappi@ 1005bc40     vertexlitgeneric_dx9.obj
 0002:0000fc88       ??_C@_0BK@KLMEBAPG@$EMISSIVEBLENDBASETEXTURE?$AA@ 1005bc88     vertexlitgeneric_dx9.obj
 0002:0000fca4       ??_C@_0CB@DAFGGCBB@Enable?5Flesh?5interior?5blend?5pass@ 1005bca4     vertexlitgeneric_dx9.obj
 0002:0000fcc8       ??_C@_0BG@HFKGDJCA@$FLESHINTERIORENABLED?$AA@ 1005bcc8     vertexlitgeneric_dx9.obj
 0002:0000fce0       ??_C@_0BE@HCJDLEON@Flesh?5color?5texture?$AA@ 1005bce0     vertexlitgeneric_dx9.obj
 0002:0000fcf4       ??_C@_0BG@CBKKPBLP@$FLESHINTERIORTEXTURE?$AA@ 1005bcf4     vertexlitgeneric_dx9.obj
 0002:0000fd0c       ??_C@_0BE@DMFEHPDL@Flesh?5noise?5texture?$AA@ 1005bd0c     vertexlitgeneric_dx9.obj
 0002:0000fd20       ??_C@_0BL@EEPCBNNE@$FLESHINTERIORNOISETEXTURE?$AA@ 1005bd20     vertexlitgeneric_dx9.obj
 0002:0000fd3c       ??_C@_0BI@PLDDPBKD@Flesh?5border?51D?5texture?$AA@ 1005bd3c     vertexlitgeneric_dx9.obj
 0002:0000fd54       ??_C@_0BG@KDCNPGGO@$FLESHBORDERTEXTURE1D?$AA@ 1005bd54     vertexlitgeneric_dx9.obj
 0002:0000fd6c       ??_C@_0BF@HMLPCJMI@Flesh?5normal?5texture?$AA@ 1005bd6c     vertexlitgeneric_dx9.obj
 0002:0000fd84       ??_C@_0BE@PPPJGDAB@$FLESHNORMALTEXTURE?$AA@ 1005bd84     vertexlitgeneric_dx9.obj
 0002:0000fd98       ??_C@_0BJ@EGFIEGNB@Flesh?5subsurface?5texture?$AA@ 1005bd98     vertexlitgeneric_dx9.obj
 0002:0000fdb4       ??_C@_0BI@KKAPJKFJ@$FLESHSUBSURFACETEXTURE?$AA@ 1005bdb4     vertexlitgeneric_dx9.obj
 0002:0000fdcc       ??_C@_0BG@LLOPBLMA@Flesh?5cubemap?5texture?$AA@ 1005bdcc     vertexlitgeneric_dx9.obj
 0002:0000fde4       ??_C@_0BC@EMBGLOPC@$FLESHCUBETEXTURE?$AA@ 1005bde4     vertexlitgeneric_dx9.obj
 0002:0000fdf8       ??_C@_0CB@LPLOGCEI@Flesh?5Noise?5UV?5scalar?5for?5border@ 1005bdf8     vertexlitgeneric_dx9.obj
 0002:0000fe1c       ??_C@_03GMOBGHL@1?45?$AA@  1005be1c     vertexlitgeneric_dx9.obj
 0002:0000fe20       ??_C@_0BH@ILEMMCKL@$FLESHBORDERNOISESCALE?$AA@ 1005be20     vertexlitgeneric_dx9.obj
 0002:0000fe38       ??_C@_0BH@NOFOOEGP@Flesh?5Debug?5full?5flesh?$AA@ 1005be38     vertexlitgeneric_dx9.obj
 0002:0000fe50       ??_C@_0BI@PKOBPFAG@$FLESHDEBUGFORCEFLESHON?$AA@ 1005be50     vertexlitgeneric_dx9.obj
 0002:0000fe68       ??_C@_0BP@NMHBMDIJ@Flesh?5effect?5center?5and?5radius?$AA@ 1005be68     vertexlitgeneric_dx9.obj
 0002:0000fe88       ??_C@_0O@HDMIHFK@?$FL0?50?50?50?4001?$FN?$AA@ 1005be88     vertexlitgeneric_dx9.obj
 0002:0000fe98       ??_C@_0BK@LFPBAEFI@$FLESHEFFECTCENTERRADIUS1?$AA@ 1005be98     vertexlitgeneric_dx9.obj
 0002:0000feb4       ??_C@_0BK@JONMFHJL@$FLESHEFFECTCENTERRADIUS2?$AA@ 1005beb4     vertexlitgeneric_dx9.obj
 0002:0000fed0       ??_C@_0BK@IHMHGGNK@$FLESHEFFECTCENTERRADIUS3?$AA@ 1005bed0     vertexlitgeneric_dx9.obj
 0002:0000feec       ??_C@_0BK@MIIGPABN@$FLESHEFFECTCENTERRADIUS4?$AA@ 1005beec     vertexlitgeneric_dx9.obj
 0002:0000ff08       ??_C@_0BB@JAHOCLML@Subsurface?5Color?$AA@ 1005bf08     vertexlitgeneric_dx9.obj
 0002:0000ff1c       ??_C@_0BF@MOKCKPPD@$FLESHSUBSURFACETINT?$AA@ 1005bf1c     vertexlitgeneric_dx9.obj
 0002:0000ff34       ??_C@_0N@GDEDLCIO@Flesh?5border?$AA@ 1005bf34     vertexlitgeneric_dx9.obj
 0002:0000ff44       ??_C@_0BC@IJPHLLGP@$FLESHBORDERWIDTH?$AA@ 1005bf44     vertexlitgeneric_dx9.obj
 0002:0000ff58       ??_C@_0CI@BCGDKDLG@Flesh?5border?5softness?5?$CI?$DO?50?40?5?$CG?$CG?5@ 1005bf58     vertexlitgeneric_dx9.obj
 0002:0000ff80       ??_C@_04BGADHBFE@0?442?$AA@ 1005bf80     vertexlitgeneric_dx9.obj
 0002:0000ff88       ??_C@_0BF@LHJJBGCL@$FLESHBORDERSOFTNESS?$AA@ 1005bf88     vertexlitgeneric_dx9.obj
 0002:0000ffa0       ??_C@_0BD@PPOMNCGG@Flesh?5border?5Color?$AA@ 1005bfa0     vertexlitgeneric_dx9.obj
 0002:0000ffb4       ??_C@_0BB@BGKALJDN@$FLESHBORDERTINT?$AA@ 1005bfb4     vertexlitgeneric_dx9.obj
 0002:0000ffc8       ??_C@_0BF@ONAIANLE@Flesh?5global?5opacity?$AA@ 1005bfc8     vertexlitgeneric_dx9.obj
 0002:0000ffe0       ??_C@_0BE@PHDBKHEG@$FLESHGLOBALOPACITY?$AA@ 1005bfe0     vertexlitgeneric_dx9.obj
 0002:0000fff4       ??_C@_0BH@KBJKEHKP@Flesh?5gloss?5brightness?$AA@ 1005bff4     vertexlitgeneric_dx9.obj
 0002:0001000c       ??_C@_04HBOLGADO@0?466?$AA@ 1005c00c     vertexlitgeneric_dx9.obj
 0002:00010014       ??_C@_0BG@FDLFEFPD@$FLESHGLOSSBRIGHTNESS?$AA@ 1005c014     vertexlitgeneric_dx9.obj
 0002:0001002c       ??_C@_0BD@CEMIPGHI@Flesh?5scroll?5speed?$AA@ 1005c02c     vertexlitgeneric_dx9.obj
 0002:00010040       ??_C@_0BC@EBCHLMJF@$FLESHSCROLLSPEED?$AA@ 1005c040     vertexlitgeneric_dx9.obj
 0002:00010058       ??_C@_0EB@OCMEENNA@fade?5at?5intersection?5boundaries?4@ 1005c058     vertexlitgeneric_dx9.obj
 0002:0001009c       ??_C@_0BF@EGBOIIBN@VertexLitGeneric_DX6?$AA@ 1005c09c     vertexlitgeneric_dx9.obj
 0002:000100b4       ??_C@_0BF@FPAFLJFM@VertexLitGeneric_DX7?$AA@ 1005c0b4     vertexlitgeneric_dx9.obj
 0002:000100cc       ??_C@_0BF@NIJNKFJD@VertexLitGeneric_DX8?$AA@ 1005c0cc     vertexlitgeneric_dx9.obj
 0002:000100ec       ??_7CShader@SDK_VertexLitGeneric@@6B@ 1005c0ec     vertexlitgeneric_dx9.obj
 0002:00010140       ??_C@_0GO@IGEEMBM@material?5?$CFs?5has?5a?5normal?5map?5and@ 1005c140     vertexlitgeneric_dx9_helper.obj
 0002:000101b0       ??_C@_0FH@PFJFGGEB@material?5?$CFs?5has?5a?5normal?5map?5and@ 1005c1b0     vertexlitgeneric_dx9_helper.obj
 0002:00010208       ??_C@_0LA@NLANDKAF@DEPTHBLEND?5not?5supported?5by?5bump@ 1005c208     vertexlitgeneric_dx9_helper.obj
 0002:000102b8       ??_C@_0CK@FNLINGJA@sdk_vertexlit_and_unlit_generic_@ 1005c2b8     vertexlitgeneric_dx9_helper.obj
 0002:000102e4       ??_C@_0CL@HBMAMBKK@sdk_vertexlit_and_unlit_generic_@ 1005c2e4     vertexlitgeneric_dx9_helper.obj
 0002:00010310       ??_C@_0CK@NCPICDDA@sdk_vertexlit_and_unlit_generic_@ 1005c310     vertexlitgeneric_dx9_helper.obj
 0002:0001033c       ??_C@_0CK@FMHKLMKH@sdk_vertexlit_and_unlit_generic_@ 1005c33c     vertexlitgeneric_dx9_helper.obj
 0002:00010368       ??_C@_0CK@NDDKEJAH@sdk_vertexlit_and_unlit_generic_@ 1005c368     vertexlitgeneric_dx9_helper.obj
 0002:00010394       ??_C@_0CF@CHFAPOEK@sdk_vertexlit_and_unlit_generic_@ 1005c394     vertexlitgeneric_dx9_helper.obj
 0002:000103bc       ??_C@_0CG@BHLMBCEI@sdk_vertexlit_and_unlit_generic_@ 1005c3bc     vertexlitgeneric_dx9_helper.obj
 0002:000103e4       ??_C@_0CF@KIBAALOK@sdk_vertexlit_and_unlit_generic_@ 1005c3e4     vertexlitgeneric_dx9_helper.obj
 0002:0001040c       ??_C@_0CF@CGJCJEHN@sdk_vertexlit_and_unlit_generic_@ 1005c40c     vertexlitgeneric_dx9_helper.obj
 0002:00010434       ??_C@_0CF@KJNCGBNN@sdk_vertexlit_and_unlit_generic_@ 1005c434     vertexlitgeneric_dx9_helper.obj
 0002:00010460       ??_7CVertexLitGeneric_DX9_Context@@6B@ 1005c460     vertexlitgeneric_dx9_helper.obj
 0002:00010464       ??_C@_0L@LPFGOBHD@Vignetting?$AA@ 1005c464     vignetting.obj
 0002:00010470       ??_C@_04GAKPLCJB@1?425?$AA@ 1005c470     vignetting.obj
 0002:00010478       ??_C@_0BA@JOHDJJLD@$VIGNETDARKNESS?$AA@ 1005c478     vignetting.obj
 0002:00010488       ??_C@_0BB@NPIKJILG@vignetting_ps20b?$AA@ 1005c488     vignetting.obj
 0002:0001049c       ??_C@_0BA@EJMLHFNI@vignetting_ps20?$AA@ 1005c49c     vignetting.obj
 0002:000104b4       ??_7CShader@Vignetting@@6B@ 1005c4b4     vignetting.obj
 0002:00010504       ??_C@_0BB@KCLOEBEE@SDK_VortWarp_DX9?$AA@ 1005c504     vortwarp_dx9.obj
 0002:00010518       ??_C@_0N@FIPMGPGI@SDK_VortWarp?$AA@ 1005c518     vortwarp_dx9.obj
 0002:00010528       ??_C@_0BB@DKMBKIJK@SDK_VortWarp_dx9?$AA@ 1005c528     vortwarp_dx9.obj
 0002:0001053c       ??_C@_0BC@OIDBKLLM@sdk_vortwarp_vs20?$AA@ 1005c53c     vortwarp_dx9.obj
 0002:00010550       ??_C@_0BD@EDKNCEDE@sdk_vortwarp_ps20b?$AA@ 1005c550     vortwarp_dx9.obj
 0002:00010564       ??_C@_0BC@GHHBFOBM@sdk_vortwarp_ps20?$AA@ 1005c564     vortwarp_dx9.obj
 0002:00010578       ??_C@_0BC@OJPDMBIL@sdk_vortwarp_vs30?$AA@ 1005c578     vortwarp_dx9.obj
 0002:0001058c       ??_C@_0BC@GGLDDECL@sdk_vortwarp_ps30?$AA@ 1005c58c     vortwarp_dx9.obj
 0002:000105a0       ??_C@_0O@HIOPFEGH@$SELFILLUMMAP?$AA@ 1005c5a0     vortwarp_dx9.obj
 0002:000105b0       ??_C@_06JCLPILPI@$UNLIT?$AA@ 1005c5b0     vortwarp_dx9.obj
 0002:000105b8       ??_C@_0BD@OACJAAMD@warp?5specular?5term?$AA@ 1005c5b8     vortwarp_dx9.obj
 0002:000105cc       ??_C@_0BA@GDMLKKOB@dev?1flat_normal?$AA@ 1005c5cc     vortwarp_dx9.obj
 0002:000105dc       ??_C@_0N@MKODLBPE@vortwarp_DX8?$AA@ 1005c5dc     vortwarp_dx9.obj
 0002:000105f4       ??_7CShader@SDK_VortWarp@@6B@ 1005c5f4     vortwarp_dx9.obj
 0002:0001064c       ??_7CShader@SDK_VortWarp_DX9@@6B@ 1005c64c     vortwarp_dx9.obj
 0002:0001069c       ??_C@_0P@HAILDACL@SDK_Water_DX90?$AA@ 1005c69c     water.obj
 0002:000106ac       ??_C@_09GONDPMOK@SDK_Water?$AA@ 1005c6ac     water.obj
 0002:000106b8       ??_C@_0BG@HLEAFJIE@r_waterforceexpensive?$AA@ 1005c6b8     water.obj
 0002:000106d0       ??_C@_0BC@CLOIEPKO@SDK_Water_DX9_HDR?$AA@ 1005c6d0     water.obj
 0002:000106e4       ??_C@_0N@HBNEBBOD@normal?5map?52?$AA@ 1005c6e4     water.obj
 0002:000106f4       ??_C@_0P@IGIEBMGO@dev?1water_flow?$AA@ 1005c6f4     water.obj
 0002:00010704       ??_C@_05FKENFCHO@$FLOW?$AA@ 1005c704     water.obj
 0002:0001070c       ??_C@_09HEDLNKML@noise?5map?$AA@ 1005c70c     water.obj
 0002:00010718       ??_C@_0BA@DLJHFIBM@dev?1water_noise?$AA@ 1005c718     water.obj
 0002:00010728       ??_C@_09NFCJJLHO@$NOISEMAP?$AA@ 1005c728     water.obj
 0002:00010734       ??_C@_05DOLLDENO@?$FL1?51?$FN?$AA@ 1005c734     water.obj
 0002:0001073c       ??_C@_06BLAOJFHC@$SCALE?$AA@ 1005c73c     water.obj
 0002:00010744       ??_C@_0M@NJKLIKMD@$WATERDEPTH?$AA@ 1005c744     water.obj
 0002:00010750       ??_C@_0HC@DBLEDHLM@This?5is?5the?5distance?5from?5the?5ey@ 1005c750     water.obj
 0002:000107c4       ??_C@_0BJ@GLOKDMKH@$CHEAPWATERSTARTDISTANCE?$AA@ 1005c7c4     water.obj
 0002:000107e0       ??_C@_0HD@IAELHHFM@This?5is?5the?5distance?5from?5the?5ey@ 1005c7e0     water.obj
 0002:00010854       ??_C@_0BH@JFGEEABE@$CHEAPWATERENDDISTANCE?$AA@ 1005c854     water.obj
 0002:0001086c       ??_C@_09PHLMHAOM@$FOGCOLOR?$AA@ 1005c86c     water.obj
 0002:00010878       ??_C@_0M@KFLCNJFA@$FORCECHEAP?$AA@ 1005c878     water.obj
 0002:00010884       ??_C@_0BA@BNJMJLCP@$FORCEEXPENSIVE?$AA@ 1005c884     water.obj
 0002:00010894       ??_C@_0BB@IPHAABDK@$REFLECTENTITIES?$AA@ 1005c894     water.obj
 0002:000108a8       ??_C@_09FDJEJLJM@$FOGSTART?$AA@ 1005c8a8     water.obj
 0002:000108b4       ??_C@_07JGDMLCFN@$FOGEND?$AA@ 1005c8b4     water.obj
 0002:000108bc       ??_C@_0M@FIGOAFFC@$ABOVEWATER?$AA@ 1005c8bc     water.obj
 0002:000108c8       ??_C@_0BE@CGLNAOGN@$REFLECTBLENDFACTOR?$AA@ 1005c8c8     water.obj
 0002:000108dc       ??_C@_0L@JKNDEJP@$NOFRESNEL?$AA@ 1005c8dc     water.obj
 0002:000108e8       ??_C@_0BC@CGFEBPCJ@$NOLOWENDLIGHTMAP?$AA@ 1005c8e8     water.obj
 0002:000108fc       ??_C@_08JNFLFBMI@$SCROLL1?$AA@ 1005c8fc     water.obj
 0002:00010908       ??_C@_08LGHGACAL@$SCROLL2?$AA@ 1005c908     water.obj
 0002:00010914       ??_C@_0DD@CGMJLFHC@Cause?5the?5refraction?5to?5be?5blurr@ 1005c914     water.obj
 0002:00010948       ??_C@_0N@JFJOFBIL@$BLURREFRACT?$AA@ 1005c948     water.obj
 0002:00010958       ??_C@_0CH@OBKHPLMK@Enable?5or?5disable?5chromatic?5disp@ 1005c958     water.obj
 0002:00010980       ??_C@_0CB@BPMGGDPE@Strength?5of?5chromatic?5dispersion@ 1005c980     water.obj
 0002:000109a4       ??_C@_0CM@OOBNOFAC@?$CK?$CK?$CKneed?5to?5set?5$abovewater?5for?5m@ 1005c9a4     water.obj
 0002:000109d0       ??_C@_0CI@OBHHNGPH@material?5?$CFs?5needs?5to?5have?5a?5$fog@ 1005c9d0     water.obj
 0002:000109f8       ??_C@_0L@HFMMEIC@Water_DX81?$AA@ 1005c9f8     water.obj
 0002:00010a04       ??_C@_0P@KAEPJOHH@sdk_water_vs20?$AA@ 1005ca04     water.obj
 0002:00010a14       ??_C@_0BA@EPFDEBDJ@sdk_water_ps20b?$AA@ 1005ca14     water.obj
 0002:00010a24       ??_C@_0P@CPAPGLNH@sdk_water_ps20?$AA@ 1005ca24     water.obj
 0002:00010a34       ??_C@_0BE@JCKKKJEJ@sdk_watercheap_vs20?$AA@ 1005ca34     water.obj
 0002:00010a48       ??_C@_0BF@IOAALJKF@sdk_watercheap_ps20b?$AA@ 1005ca48     water.obj
 0002:00010a60       ??_C@_0BE@BNOKFMOJ@sdk_watercheap_ps20?$AA@ 1005ca60     water.obj
 0002:00010a74       ??_C@_0P@ILOMOKJC@SDK_WATER_DX90?$AA@ 1005ca74     water.obj
 0002:00010a8c       ??_7CShader@SDK_Water@@6B@ 1005ca8c     water.obj
 0002:00010ae4       ??_7CShader@SDK_Water_DX90@@6B@ 1005cae4     water.obj
 0002:00010b3c       ??_7CShader@SDK_Water_DX9_HDR@SDK_Water_DX90@@6B@ 1005cb3c     water.obj
 0002:00010b8c       ??_C@_0BJ@HEBEAFBB@SDK_WorldTwoTextureBlend?$AA@ 1005cb8c     worldtwotextureblend.obj
 0002:00010ba8       ??_C@_0CA@PFBGJPNI@shadertest?1WorldTwoTextureBlend?$AA@ 1005cba8     worldtwotextureblend.obj
 0002:00010bc8       ??_C@_0CH@IAEEHIBL@shadertest?1WorldTwoTextureBlend_@ 1005cbc8     worldtwotextureblend.obj
 0002:00010bf0       ??_C@_0BJ@DOLLHDNC@WorldTwoTextureBlend_DX6?$AA@ 1005cbf0     worldtwotextureblend.obj
 0002:00010c0c       ??_C@_0BJ@KADIFOFM@WorldTwoTextureBlend_DX8?$AA@ 1005cc0c     worldtwotextureblend.obj
 0002:00010c28       ??_C@_0BP@PPNBJNLO@sdk_worldtwotextureblend_ps20b?$AA@ 1005cc28     worldtwotextureblend.obj
 0002:00010c48       ??_C@_0BO@HNELMOKN@sdk_worldtwotextureblend_ps20?$AA@ 1005cc48     worldtwotextureblend.obj
 0002:00010c6c       ??_7CShader@SDK_WorldTwoTextureBlend@@6B@ 1005cc6c     worldtwotextureblend.obj
 0002:00010cbc       ??_C@_0BF@LMKMONEB@SDK_WorldVertexAlpha?$AA@ 1005ccbc     worldvertexalpha.obj
 0002:00010cd4       ??_C@_0BB@OOHLANC@WorldVertexAlpha?$AA@ 1005ccd4     worldvertexalpha.obj
 0002:00010ce8       ??_C@_0BL@FCHGGOOG@sdk_worldvertexalpha_ps20b?$AA@ 1005cce8     worldvertexalpha.obj
 0002:00010d04       ??_C@_0BK@LNDANAMH@sdk_worldvertexalpha_ps20?$AA@ 1005cd04     worldvertexalpha.obj
 0002:00010d24       ??_7CShader@SDK_WorldVertexAlpha@@6B@ 1005cd24     worldvertexalpha.obj
 0002:00010d74       ??_C@_0BK@GPLFMMAM@SDK_WorldVertexTransition?$AA@ 1005cd74     worldvertextransition.obj
 0002:00010d90       ??_C@_0BO@FEMCJDGK@SDK_WorldVertexTransition_DX9?$AA@ 1005cd90     worldvertextransition.obj
 0002:00010db4       ??_7CShader@SDK_WorldVertexTransition@@6B@ 1005cdb4     worldvertextransition.obj
 0002:00010e0c       ??_7CShader@SDK_WorldVertexTransition_DX9@@6B@ 1005ce0c     worldvertextransition.obj
 0002:00010e5c       ??_C@_0CB@DNEFJHOM@SDK_WorldVertexTransition_Editor@ 1005ce5c     worldvertextransition_dx8_helper.obj
 0002:00010e84       ??_7CShaderDLLVerification@@6B@ 1005ce84     shader_dll_verify.obj
 0002:00010e98       ??_C@_0DO@JEGLGEMI@tint?5value?5to?5be?5applied?5when?5ru@ 1005ce98     shaderlib:BaseShader.obj
 0002:00010ed8       ??_C@_09DFNDCFLK@$srgbtint?$AA@ 1005ced8     shaderlib:BaseShader.obj
 0002:00010ee4       ??_C@_06KEONFOCA@color2?$AA@ 1005cee4     shaderlib:BaseShader.obj
 0002:00010eec       ??_C@_07CBJPDCJL@$color2?$AA@ 1005ceec     shaderlib:BaseShader.obj
 0002:00010ef4       ??_C@_0CA@FNHEODEF@Animation?5Frame?5for?5$flashlight?$AA@ 1005cef4     shaderlib:BaseShader.obj
 0002:00010f14       ??_C@_0BI@FBLAAOOF@$flashlighttextureframe?$AA@ 1005cf14     shaderlib:BaseShader.obj
 0002:00010f2c       ??_C@_0CD@IJMMJMM@flashlight?5spotlight?5shape?5textu@ 1005cf2c     shaderlib:BaseShader.obj
 0002:00010f50       ??_C@_0BD@OEFGBNBD@$flashlighttexture?$AA@ 1005cf50     shaderlib:BaseShader.obj
 0002:00010f64       ??_C@_0CA@IPALKODP@Base?5Texture?5Texcoord?5Transform?$AA@ 1005cf64     shaderlib:BaseShader.obj
 0002:00010f84       ??_C@_0BG@CPMMPAAK@$basetexturetransform?$AA@ 1005cf84     shaderlib:BaseShader.obj
 0002:00010f9c       ??_C@_0BA@IPLPKCPL@Animation?5Frame?$AA@ 1005cf9c     shaderlib:BaseShader.obj
 0002:00010fac       ??_C@_06NPMBDFBB@$frame?$AA@ 1005cfac     shaderlib:BaseShader.obj
 0002:00010fb4       ??_C@_0CE@NAOMCFML@Base?5Texture?5with?5lighting?5built@ 1005cfb4     shaderlib:BaseShader.obj
 0002:00010fd8       ??_C@_0N@NEFMJPPI@$basetexture?$AA@ 1005cfd8     shaderlib:BaseShader.obj
 0002:00010fe8       ??_C@_05IAEKHIAN@alpha?$AA@ 1005cfe8     shaderlib:BaseShader.obj
 0002:00010ff0       ??_C@_06JHBGBLFP@$alpha?$AA@ 1005cff0     shaderlib:BaseShader.obj
 0002:00010ff8       ??_C@_05PEENBMOG@color?$AA@ 1005cff8     shaderlib:BaseShader.obj
 0002:00011000       ??_C@_06ODBBHPLE@$color?$AA@ 1005d000     shaderlib:BaseShader.obj
 0002:00011008       ??_C@_0P@JEJGAOCB@flags2_defined?$AA@ 1005d008     shaderlib:BaseShader.obj
 0002:00011018       ??_C@_0BA@GAJLMDIE@$flags_defined2?$AA@ 1005d018     shaderlib:BaseShader.obj
 0002:00011028       ??_C@_06EMKHIFEA@flags2?$AA@ 1005d028     shaderlib:BaseShader.obj
 0002:00011030       ??_C@_07MJNFOJPL@$flags2?$AA@ 1005d030     shaderlib:BaseShader.obj
 0002:00011038       ??_C@_0O@OHELCBMC@flags_defined?$AA@ 1005d038     shaderlib:BaseShader.obj
 0002:00011048       ??_C@_0P@ODJKAABP@$flags_defined?$AA@ 1005d048     shaderlib:BaseShader.obj
 0002:00011058       ??_C@_05GECEPKB@flags?$AA@ 1005d058     shaderlib:BaseShader.obj
 0002:00011060       ??_C@_06BBBOCMPD@$flags?$AA@ 1005d060     shaderlib:BaseShader.obj
 0002:0001106c       ??_7CBaseShader@@6B@       1005d06c     shaderlib:BaseShader.obj
 0002:000110bc       ??_C@_0N@OBPFIHDD@ShaderDLL004?$AA@ 1005d0bc     shaderlib:ShaderDLL.obj
 0002:000110cc       ??_C@_0CA@CMOGODCE@MaterialSystemHardwareConfig012?$AA@ 1005d0cc     shaderlib:ShaderDLL.obj
 0002:000110ec       ??_C@_0BJ@KJJBHLEN@VMaterialSystemConfig002?$AA@ 1005d0ec     shaderlib:ShaderDLL.obj
 0002:00011108       ??_C@_0BA@ICDFCBDO@ShaderSystem002?$AA@ 1005d108     shaderlib:ShaderDLL.obj
 0002:0001111c       ??_7IShaderDLL@@6B@        1005d11c     shaderlib:ShaderDLL.obj
 0002:00011124       ??_7CShaderDLL@@6BIShaderDLLInternal@@@ 1005d124     shaderlib:ShaderDLL.obj
 0002:00011140       ??_7CShaderDLL@@6BIShaderDLL@@@ 1005d140     shaderlib:ShaderDLL.obj
 0002:00011148       ??_7CShaderLibConVarAccessor@@6B@ 1005d148     shaderlib:shaderlib_cvar.obj
 0002:0001114c       __real@40400000            1005d14c      CIL library: CIL module
 0002:00011150       __real@40000000            1005d150      CIL library: CIL module
 0002:00011154       __real@3a800000            1005d154      CIL library: CIL module
 0002:00011158       __real@40200000            1005d158      CIL library: CIL module
 0002:0001115c       __real@42c80000            1005d15c      CIL library: CIL module
 0002:00011160       __real@3727c5ac            1005d160      CIL library: CIL module
 0002:00011164       __real@40600000            1005d164      CIL library: CIL module
 0002:00011168       __real@44000000            1005d168      CIL library: CIL module
 0002:00011170       __real@3ff0000000000000    1005d170      CIL library: CIL module
 0002:00011178       __real@400ccccd            1005d178      CIL library: CIL module
 0002:0001117c       __real@3d000000            1005d17c      CIL library: CIL module
 0002:00011180       __real@42000000            1005d180      CIL library: CIL module
 0002:00011184       __real@40800000            1005d184      CIL library: CIL module
 0002:00011188       __real@447a0000            1005d188      CIL library: CIL module
 0002:0001118c       __real@43fa0000            1005d18c      CIL library: CIL module
 0002:00011190       __real@42480000            1005d190      CIL library: CIL module
 0002:00011194       __real@41200000            1005d194      CIL library: CIL module
 0002:00011198       __real@41a00000            1005d198      CIL library: CIL module
 0002:0001119c       __real@43c80000            1005d19c      CIL library: CIL module
 0002:000111a0       __real@47c35000            1005d1a0      CIL library: CIL module
 0002:000111a4       __real@40a00000            1005d1a4      CIL library: CIL module
 0002:000111a8       __real@3a83126f            1005d1a8      CIL library: CIL module
 0002:000111ac       __real@41b40000            1005d1ac      CIL library: CIL module
 0002:000111b0       __real@42200000            1005d1b0      CIL library: CIL module
 0002:000111b4       __real@3ecccccd            1005d1b4      CIL library: CIL module
 0002:000111b8       __real@3faccccd            1005d1b8      CIL library: CIL module
 0002:000111bc       __real@437f0000            1005d1bc      CIL library: CIL module
 0002:000111c0       __real@41000000            1005d1c0      CIL library: CIL module
 0002:000111c4       __real@3eaaaaab            1005d1c4      CIL library: CIL module
 0002:000111c8       __real@3f19999a            1005d1c8      CIL library: CIL module
 0002:000111d0       __real@3fa999999999999a    1005d1d0      CIL library: CIL module
 0002:000111d8       __real@3fefae147ae147ae    1005d1d8      CIL library: CIL module
 0002:000111e0       __real@3fe0000000000000    1005d1e0      CIL library: CIL module
 0002:000111e8       __real@4090000000000000    1005d1e8      CIL library: CIL module
 0002:000111f0       __real@bf800000            1005d1f0      CIL library: CIL module
 0002:000111f4       __real@3eaaaaaa            1005d1f4      CIL library: CIL module
 0002:000111f8       __load_config_used         1005d1f8     LIBCMT:loadcfg.obj
 0002:000112bc       ??_R4ConCommandBase@@6B@   1005d2bc     tier1:convar.obj
 0002:000112d0       ??_R3ConCommandBase@@8     1005d2d0     tier1:convar.obj
 0002:000112e0       ??_R2ConCommandBase@@8     1005d2e0     tier1:convar.obj
 0002:000112e8       ??_R1A@?0A@EA@ConCommandBase@@8 1005d2e8     tier1:convar.obj
 0002:00011304       ??_R4ConCommand@@6B@       1005d304     tier1:convar.obj
 0002:00011318       ??_R3ConCommand@@8         1005d318     tier1:convar.obj
 0002:00011328       ??_R2ConCommand@@8         1005d328     tier1:convar.obj
 0002:00011334       ??_R1A@?0A@EA@ConCommand@@8 1005d334     tier1:convar.obj
 0002:00011350       ??_R4IConVar@@6B@          1005d350     tier1:convar.obj
 0002:00011364       ??_R3IConVar@@8            1005d364     tier1:convar.obj
 0002:00011374       ??_R2IConVar@@8            1005d374     tier1:convar.obj
 0002:0001137c       ??_R1A@?0A@EA@IConVar@@8   1005d37c     tier1:convar.obj
 0002:00011398       ??_R4ConVar@@6BConCommandBase@@@ 1005d398     tier1:convar.obj
 0002:000113ac       ??_R3ConVar@@8             1005d3ac     tier1:convar.obj
 0002:000113bc       ??_R2ConVar@@8             1005d3bc     tier1:convar.obj
 0002:000113cc       ??_R1A@?0A@EA@ConVar@@8    1005d3cc     tier1:convar.obj
 0002:000113e8       ??_R1BI@?0A@EA@IConVar@@8  1005d3e8     tier1:convar.obj
 0002:00011404       ??_R4ConVar@@6BIConVar@@@  1005d404     tier1:convar.obj
 0002:00011418       ??_R4CDefaultAccessor@@6B@ 1005d418     tier1:convar.obj
 0002:0001142c       ??_R3CDefaultAccessor@@8   1005d42c     tier1:convar.obj
 0002:0001143c       ??_R2CDefaultAccessor@@8   1005d43c     tier1:convar.obj
 0002:00011448       ??_R1A@?0A@EA@CDefaultAccessor@@8 1005d448     tier1:convar.obj
 0002:00011464       ??_R4CEmptyConVar@@6BConCommandBase@@@ 1005d464     tier1:convar.obj
 0002:00011478       ??_R3CEmptyConVar@@8       1005d478     tier1:convar.obj
 0002:00011488       ??_R2CEmptyConVar@@8       1005d488     tier1:convar.obj
 0002:0001149c       ??_R1A@?0A@EA@CEmptyConVar@@8 1005d49c     tier1:convar.obj
 0002:000114b8       ??_R4CEmptyConVar@@6BIConVar@@@ 1005d4b8     tier1:convar.obj
 0002:000114cc       ??_R4CUtlCharConversion@@6B@ 1005d4cc     tier1:utlbuffer.obj
 0002:000114e0       ??_R3CUtlCharConversion@@8 1005d4e0     tier1:utlbuffer.obj
 0002:000114f0       ??_R2CUtlCharConversion@@8 1005d4f0     tier1:utlbuffer.obj
 0002:000114f8       ??_R1A@?0A@EA@CUtlCharConversion@@8 1005d4f8     tier1:utlbuffer.obj
 0002:00011514       ??_R4CUtlNoEscConversion@@6B@ 1005d514     tier1:utlbuffer.obj
 0002:00011528       ??_R3CUtlNoEscConversion@@8 1005d528     tier1:utlbuffer.obj
 0002:00011538       ??_R2CUtlNoEscConversion@@8 1005d538     tier1:utlbuffer.obj
 0002:00011544       ??_R1A@?0A@EA@CUtlNoEscConversion@@8 1005d544     tier1:utlbuffer.obj
 0002:00011560       ??_R4CUtlCStringConversion@@6B@ 1005d560     tier1:utlbuffer.obj
 0002:00011574       ??_R3CUtlCStringConversion@@8 1005d574     tier1:utlbuffer.obj
 0002:00011584       ??_R2CUtlCStringConversion@@8 1005d584     tier1:utlbuffer.obj
 0002:00011590       ??_R1A@?0A@EA@CUtlCStringConversion@@8 1005d590     tier1:utlbuffer.obj
 0002:000115ac       ??_R4type_info@@6B@        1005d5ac     LIBCMT:typinfo.obj
 0002:000115c0       ??_R3type_info@@8          1005d5c0     LIBCMT:typinfo.obj
 0002:000115d0       ??_R2type_info@@8          1005d5d0     LIBCMT:typinfo.obj
 0002:000115d8       ??_R1A@?0A@EA@type_info@@8 1005d5d8     LIBCMT:typinfo.obj
 0002:000115f4       ??_R4bad_alloc@std@@6B@    1005d5f4     LIBCMT:new.obj
 0002:00011608       ??_R3bad_alloc@std@@8      1005d608     LIBCMT:new.obj
 0002:00011618       ??_R2bad_alloc@std@@8      1005d618     LIBCMT:new.obj
 0002:00011624       ??_R1A@?0A@EA@bad_alloc@std@@8 1005d624     LIBCMT:new.obj
 0002:00011640       ??_R1A@?0A@EA@exception@std@@8 1005d640     LIBCMT:new.obj
 0002:0001165c       ??_R3exception@std@@8      1005d65c     LIBCMT:new.obj
 0002:0001166c       ??_R2exception@std@@8      1005d66c     LIBCMT:new.obj
 0002:00011674       ??_R4exception@std@@6B@    1005d674     LIBCMT:stdexcpt.obj
 0002:00011688       ??_R4CShader@SDK_Aftershock_dx9@@6B@ 1005d688     aftershock.obj
 0002:0001169c       ??_R3CShader@SDK_Aftershock_dx9@@8 1005d69c     aftershock.obj
 0002:000116ac       ??_R2CShader@SDK_Aftershock_dx9@@8 1005d6ac     aftershock.obj
 0002:000116c0       ??_R1A@?0A@EA@CShader@SDK_Aftershock_dx9@@8 1005d6c0     aftershock.obj
 0002:000116dc       ??_R4CShader@SDK_Aftershock@@6B@ 1005d6dc     aftershock.obj
 0002:000116f0       ??_R3CShader@SDK_Aftershock@@8 1005d6f0     aftershock.obj
 0002:00011700       ??_R2CShader@SDK_Aftershock@@8 1005d700     aftershock.obj
 0002:00011710       ??_R1A@?0A@EA@CShader@SDK_Aftershock@@8 1005d710     aftershock.obj
 0002:0001172c       ??_R3CBaseVSShader@@8      1005d72c     aftershock.obj
 0002:0001173c       ??_R2CBaseVSShader@@8      1005d73c     aftershock.obj
 0002:0001174c       ??_R1A@?0A@EA@CBaseShader@@8 1005d74c     aftershock.obj
 0002:00011768       ??_R3CBaseShader@@8        1005d768     aftershock.obj
 0002:00011778       ??_R2CBaseShader@@8        1005d778     aftershock.obj
 0002:00011784       ??_R1A@?0A@EA@IShader@@8   1005d784     aftershock.obj
 0002:000117a0       ??_R3IShader@@8            1005d7a0     aftershock.obj
 0002:000117b0       ??_R2IShader@@8            1005d7b0     aftershock.obj
 0002:000117b8       ??_R1A@?0A@EA@CBaseVSShader@@8 1005d7b8     aftershock.obj
 0002:000117d4       ??_R4CShader@Bleach_Bypass@@6B@ 1005d7d4     bleach_bypass.obj
 0002:000117e8       ??_R3CShader@Bleach_Bypass@@8 1005d7e8     bleach_bypass.obj
 0002:000117f8       ??_R2CShader@Bleach_Bypass@@8 1005d7f8     bleach_bypass.obj
 0002:0001180c       ??_R1A@?0A@EA@CShader@Bleach_Bypass@@8 1005d80c     bleach_bypass.obj
 0002:00011828       ??_R4CShader@SDK_Bloom@@6B@ 1005d828     Bloom.obj
 0002:0001183c       ??_R3CShader@SDK_Bloom@@8  1005d83c     Bloom.obj
 0002:0001184c       ??_R2CShader@SDK_Bloom@@8  1005d84c     Bloom.obj
 0002:00011860       ??_R1A@?0A@EA@CShader@SDK_Bloom@@8 1005d860     Bloom.obj
 0002:0001187c       ??_R4CShader@SDK_Cable_DX9@@6B@ 1005d87c     cable_dx9.obj
 0002:00011890       ??_R3CShader@SDK_Cable_DX9@@8 1005d890     cable_dx9.obj
 0002:000118a0       ??_R2CShader@SDK_Cable_DX9@@8 1005d8a0     cable_dx9.obj
 0002:000118b4       ??_R1A@?0A@EA@CShader@SDK_Cable_DX9@@8 1005d8b4     cable_dx9.obj
 0002:000118d0       ??_R4CShader@SDK_Cable@@6B@ 1005d8d0     cable_dx9.obj
 0002:000118e4       ??_R3CShader@SDK_Cable@@8  1005d8e4     cable_dx9.obj
 0002:000118f4       ??_R2CShader@SDK_Cable@@8  1005d8f4     cable_dx9.obj
 0002:00011904       ??_R1A@?0A@EA@CShader@SDK_Cable@@8 1005d904     cable_dx9.obj
 0002:00011920       ??_R4CShader@Chromatic_Dispersion@@6B@ 1005d920     chromatic.obj
 0002:00011934       ??_R3CShader@Chromatic_Dispersion@@8 1005d934     chromatic.obj
 0002:00011944       ??_R2CShader@Chromatic_Dispersion@@8 1005d944     chromatic.obj
 0002:00011958       ??_R1A@?0A@EA@CShader@Chromatic_Dispersion@@8 1005d958     chromatic.obj
 0002:00011974       ??_R4CShader@Color_Clipping@@6B@ 1005d974     color_clipping.obj
 0002:00011988       ??_R3CShader@Color_Clipping@@8 1005d988     color_clipping.obj
 0002:00011998       ??_R2CShader@Color_Clipping@@8 1005d998     color_clipping.obj
 0002:000119ac       ??_R1A@?0A@EA@CShader@Color_Clipping@@8 1005d9ac     color_clipping.obj
 0002:000119c8       ??_R4CShader@Complements@@6B@ 1005d9c8     complements.obj
 0002:000119dc       ??_R3CShader@Complements@@8 1005d9dc     complements.obj
 0002:000119ec       ??_R2CShader@Complements@@8 1005d9ec     complements.obj
 0002:00011a00       ??_R1A@?0A@EA@CShader@Complements@@8 1005da00     complements.obj
 0002:00011a1c       ??_R4CShader@SDK_Core_DX90@@6B@ 1005da1c     core_dx9.obj
 0002:00011a30       ??_R3CShader@SDK_Core_DX90@@8 1005da30     core_dx9.obj
 0002:00011a40       ??_R2CShader@SDK_Core_DX90@@8 1005da40     core_dx9.obj
 0002:00011a54       ??_R1A@?0A@EA@CShader@SDK_Core_DX90@@8 1005da54     core_dx9.obj
 0002:00011a70       ??_R4CShader@SDK_Core@@6B@ 1005da70     core_dx9.obj
 0002:00011a84       ??_R3CShader@SDK_Core@@8   1005da84     core_dx9.obj
 0002:00011a94       ??_R2CShader@SDK_Core@@8   1005da94     core_dx9.obj
 0002:00011aa4       ??_R1A@?0A@EA@CShader@SDK_Core@@8 1005daa4     core_dx9.obj
 0002:00011ac0       ??_R4CShader@Cubic_Distortion@@6B@ 1005dac0     cubic_distortion.obj
 0002:00011ad4       ??_R3CShader@Cubic_Distortion@@8 1005dad4     cubic_distortion.obj
 0002:00011ae4       ??_R2CShader@Cubic_Distortion@@8 1005dae4     cubic_distortion.obj
 0002:00011af8       ??_R1A@?0A@EA@CShader@Cubic_Distortion@@8 1005daf8     cubic_distortion.obj
 0002:00011b14       ??_R4CShader@Desaturate@@6B@ 1005db14     Desaturate.obj
 0002:00011b28       ??_R3CShader@Desaturate@@8 1005db28     Desaturate.obj
 0002:00011b38       ??_R2CShader@Desaturate@@8 1005db38     Desaturate.obj
 0002:00011b4c       ??_R1A@?0A@EA@CShader@Desaturate@@8 1005db4c     Desaturate.obj
 0002:00011b68       ??_R4CShader@SDK_AfterShock@@6B@ 1005db68     dx8fallbacks.obj
 0002:00011b7c       ??_R3CShader@SDK_AfterShock@@8 1005db7c     dx8fallbacks.obj
 0002:00011b8c       ??_R2CShader@SDK_AfterShock@@8 1005db8c     dx8fallbacks.obj
 0002:00011b9c       ??_R1A@?0A@EA@CShader@SDK_AfterShock@@8 1005db9c     dx8fallbacks.obj
 0002:00011bb8       ??_R4CShader@SDK_EyeGlint@@6B@ 1005dbb8     dx8fallbacks.obj
 0002:00011bcc       ??_R3CShader@SDK_EyeGlint@@8 1005dbcc     dx8fallbacks.obj
 0002:00011bdc       ??_R2CShader@SDK_EyeGlint@@8 1005dbdc     dx8fallbacks.obj
 0002:00011bec       ??_R1A@?0A@EA@CShader@SDK_EyeGlint@@8 1005dbec     dx8fallbacks.obj
 0002:00011c08       ??_R4CShader@SDK_VolumeClouds@@6B@ 1005dc08     dx8fallbacks.obj
 0002:00011c1c       ??_R3CShader@SDK_VolumeClouds@@8 1005dc1c     dx8fallbacks.obj
 0002:00011c2c       ??_R2CShader@SDK_VolumeClouds@@8 1005dc2c     dx8fallbacks.obj
 0002:00011c3c       ??_R1A@?0A@EA@CShader@SDK_VolumeClouds@@8 1005dc3c     dx8fallbacks.obj
 0002:00011c58       ??_R4CShader@SDK_EyeRefract@@6B@ 1005dc58     dx8fallbacks.obj
 0002:00011c6c       ??_R3CShader@SDK_EyeRefract@@8 1005dc6c     dx8fallbacks.obj
 0002:00011c7c       ??_R2CShader@SDK_EyeRefract@@8 1005dc7c     dx8fallbacks.obj
 0002:00011c8c       ??_R1A@?0A@EA@CShader@SDK_EyeRefract@@8 1005dc8c     dx8fallbacks.obj
 0002:00011ca8       ??_R4CShader@SDK_DepthWrite@@6B@ 1005dca8     dx8fallbacks.obj
 0002:00011cbc       ??_R3CShader@SDK_DepthWrite@@8 1005dcbc     dx8fallbacks.obj
 0002:00011ccc       ??_R2CShader@SDK_DepthWrite@@8 1005dccc     dx8fallbacks.obj
 0002:00011cdc       ??_R1A@?0A@EA@CShader@SDK_DepthWrite@@8 1005dcdc     dx8fallbacks.obj
 0002:00011cf8       ??_R4CShader@SDK_EyeRefract_dx9@@6B@ 1005dcf8     eye_refract.obj
 0002:00011d0c       ??_R3CShader@SDK_EyeRefract_dx9@@8 1005dd0c     eye_refract.obj
 0002:00011d1c       ??_R2CShader@SDK_EyeRefract_dx9@@8 1005dd1c     eye_refract.obj
 0002:00011d30       ??_R1A@?0A@EA@CShader@SDK_EyeRefract_dx9@@8 1005dd30     eye_refract.obj
 0002:00011d4c       ??_R4CShader@SDK_Eyeball@@6B@ 1005dd4c     eyeball.obj
 0002:00011d60       ??_R3CShader@SDK_Eyeball@@8 1005dd60     eyeball.obj
 0002:00011d70       ??_R2CShader@SDK_Eyeball@@8 1005dd70     eyeball.obj
 0002:00011d84       ??_R1A@?0A@EA@CShader@SDK_Eyeball@@8 1005dd84     eyeball.obj
 0002:00011da0       ??_R4CShader@SDK_EyeGlint_dx9@@6B@ 1005dda0     eyeglint_dx9.obj
 0002:00011db4       ??_R3CShader@SDK_EyeGlint_dx9@@8 1005ddb4     eyeglint_dx9.obj
 0002:00011dc4       ??_R2CShader@SDK_EyeGlint_dx9@@8 1005ddc4     eyeglint_dx9.obj
 0002:00011dd8       ??_R1A@?0A@EA@CShader@SDK_EyeGlint_dx9@@8 1005ddd8     eyeglint_dx9.obj
 0002:00011df4       ??_R4CShader@SDK_Eyes_dx8@@6B@ 1005ddf4     eyes.obj
 0002:00011e08       ??_R3CShader@SDK_Eyes_dx8@@8 1005de08     eyes.obj
 0002:00011e18       ??_R2CShader@SDK_Eyes_dx8@@8 1005de18     eyes.obj
 0002:00011e2c       ??_R1A@?0A@EA@CShader@SDK_Eyes_dx8@@8 1005de2c     eyes.obj
 0002:00011e48       ??_R4CShader@SDK_eyes@@6B@ 1005de48     eyes.obj
 0002:00011e5c       ??_R3CShader@SDK_eyes@@8   1005de5c     eyes.obj
 0002:00011e6c       ??_R2CShader@SDK_eyes@@8   1005de6c     eyes.obj
 0002:00011e7c       ??_R1A@?0A@EA@CShader@SDK_eyes@@8 1005de7c     eyes.obj
 0002:00011e98       ??_R4CShader@SDK_Eyes_dx9@@6B@ 1005de98     eyes_dx9.obj
 0002:00011eac       ??_R3CShader@SDK_Eyes_dx9@@8 1005deac     eyes_dx9.obj
 0002:00011ebc       ??_R2CShader@SDK_Eyes_dx9@@8 1005debc     eyes_dx9.obj
 0002:00011ed0       ??_R1A@?0A@EA@CShader@SDK_Eyes_dx9@@8 1005ded0     eyes_dx9.obj
 0002:00011eec       ??_R4CShader@FXAA@@6B@     1005deec     fxaa.obj
 0002:00011f00       ??_R3CShader@FXAA@@8       1005df00     fxaa.obj
 0002:00011f10       ??_R2CShader@FXAA@@8       1005df10     fxaa.obj
 0002:00011f24       ??_R1A@?0A@EA@CShader@FXAA@@8 1005df24     fxaa.obj
 0002:00011f40       ??_R4CShader@GaussianX@@6B@ 1005df40     gaussianx.obj
 0002:00011f54       ??_R3CShader@GaussianX@@8  1005df54     gaussianx.obj
 0002:00011f64       ??_R2CShader@GaussianX@@8  1005df64     gaussianx.obj
 0002:00011f78       ??_R1A@?0A@EA@CShader@GaussianX@@8 1005df78     gaussianx.obj
 0002:00011f94       ??_R4CShader@GaussianY@@6B@ 1005df94     gaussiany.obj
 0002:00011fa8       ??_R3CShader@GaussianY@@8  1005dfa8     gaussiany.obj
 0002:00011fb8       ??_R2CShader@GaussianY@@8  1005dfb8     gaussiany.obj
 0002:00011fcc       ??_R1A@?0A@EA@CShader@GaussianY@@8 1005dfcc     gaussiany.obj
 0002:00011fe8       ??_R4CShader@LightmappedAdv_DX9@@6B@ 1005dfe8     lightmappedadv.obj
 0002:00011ffc       ??_R3CShader@LightmappedAdv_DX9@@8 1005dffc     lightmappedadv.obj
 0002:0001200c       ??_R2CShader@LightmappedAdv_DX9@@8 1005e00c     lightmappedadv.obj
 0002:00012020       ??_R1A@?0A@EA@CShader@LightmappedAdv_DX9@@8 1005e020     lightmappedadv.obj
 0002:0001203c       ??_R4CShader@LightmappedAdv@@6B@ 1005e03c     lightmappedadv.obj
 0002:00012050       ??_R3CShader@LightmappedAdv@@8 1005e050     lightmappedadv.obj
 0002:00012060       ??_R2CShader@LightmappedAdv@@8 1005e060     lightmappedadv.obj
 0002:00012070       ??_R1A@?0A@EA@CShader@LightmappedAdv@@8 1005e070     lightmappedadv.obj
 0002:0001208c       ??_R4CLightmappedGeneric_DX9_Context@@6B@ 1005e08c     lightmappedadv_helper.obj
 0002:000120a0       ??_R3CLightmappedGeneric_DX9_Context@@8 1005e0a0     lightmappedadv_helper.obj
 0002:000120b0       ??_R2CLightmappedGeneric_DX9_Context@@8 1005e0b0     lightmappedadv_helper.obj
 0002:000120bc       ??_R1A@?0A@EA@CLightmappedGeneric_DX9_Context@@8 1005e0bc     lightmappedadv_helper.obj
 0002:000120d8       ??_R4CBasePerMaterialContextData@@6B@ 1005e0d8     lightmappedadv_helper.obj
 0002:000120ec       ??_R3CBasePerMaterialContextData@@8 1005e0ec     lightmappedadv_helper.obj
 0002:000120fc       ??_R2CBasePerMaterialContextData@@8 1005e0fc     lightmappedadv_helper.obj
 0002:00012104       ??_R1A@?0A@EA@CBasePerMaterialContextData@@8 1005e104     lightmappedadv_helper.obj
 0002:00012120       ??_R4CShader@SDK_LightmappedGeneric_Decal@@6B@ 1005e120     lightmappedgeneric_decal.obj
 0002:00012134       ??_R3CShader@SDK_LightmappedGeneric_Decal@@8 1005e134     lightmappedgeneric_decal.obj
 0002:00012144       ??_R2CShader@SDK_LightmappedGeneric_Decal@@8 1005e144     lightmappedgeneric_decal.obj
 0002:00012158       ??_R1A@?0A@EA@CShader@SDK_LightmappedGeneric_Decal@@8 1005e158     lightmappedgeneric_decal.obj
 0002:00012174       ??_R4CShader@SDK_LightmappedReflective_DX90@@6B@ 1005e174     lightmappedreflective.obj
 0002:00012188       ??_R3CShader@SDK_LightmappedReflective_DX90@@8 1005e188     lightmappedreflective.obj
 0002:00012198       ??_R2CShader@SDK_LightmappedReflective_DX90@@8 1005e198     lightmappedreflective.obj
 0002:000121ac       ??_R1A@?0A@EA@CShader@SDK_LightmappedReflective_DX90@@8 1005e1ac     lightmappedreflective.obj
 0002:000121c8       ??_R4CShader@SDK_LightmappedReflective@@6B@ 1005e1c8     lightmappedreflective.obj
 0002:000121dc       ??_R3CShader@SDK_LightmappedReflective@@8 1005e1dc     lightmappedreflective.obj
 0002:000121ec       ??_R2CShader@SDK_LightmappedReflective@@8 1005e1ec     lightmappedreflective.obj
 0002:000121fc       ??_R1A@?0A@EA@CShader@SDK_LightmappedReflective@@8 1005e1fc     lightmappedreflective.obj
 0002:00012218       ??_R4CShader@SDK_LightmappedTwoTexture@@6B@ 1005e218     lightmappedtwotexture.obj
 0002:0001222c       ??_R3CShader@SDK_LightmappedTwoTexture@@8 1005e22c     lightmappedtwotexture.obj
 0002:0001223c       ??_R2CShader@SDK_LightmappedTwoTexture@@8 1005e23c     lightmappedtwotexture.obj
 0002:0001224c       ??_R1A@?0A@EA@CShader@SDK_LightmappedTwoTexture@@8 1005e24c     lightmappedtwotexture.obj
 0002:00012268       ??_R4CShader@LUMA@@6B@     1005e268     luma.obj
 0002:0001227c       ??_R3CShader@LUMA@@8       1005e27c     luma.obj
 0002:0001228c       ??_R2CShader@LUMA@@8       1005e28c     luma.obj
 0002:000122a0       ??_R1A@?0A@EA@CShader@LUMA@@8 1005e2a0     luma.obj
 0002:000122bc       ??_R4CShader@Negative@@6B@ 1005e2bc     negative.obj
 0002:000122d0       ??_R3CShader@Negative@@8   1005e2d0     negative.obj
 0002:000122e0       ??_R2CShader@Negative@@8   1005e2e0     negative.obj
 0002:000122f4       ??_R1A@?0A@EA@CShader@Negative@@8 1005e2f4     negative.obj
 0002:00012310       ??_R4CShader@Nightvision@@6B@ 1005e310     nightvision.obj
 0002:00012324       ??_R3CShader@Nightvision@@8 1005e324     nightvision.obj
 0002:00012334       ??_R2CShader@Nightvision@@8 1005e334     nightvision.obj
 0002:00012348       ??_R1A@?0A@EA@CShader@Nightvision@@8 1005e348     nightvision.obj
 0002:00012364       ??_R4CShader@Noise@@6B@    1005e364     noise.obj
 0002:00012378       ??_R3CShader@Noise@@8      1005e378     noise.obj
 0002:00012388       ??_R2CShader@Noise@@8      1005e388     noise.obj
 0002:0001239c       ??_R1A@?0A@EA@CShader@Noise@@8 1005e39c     noise.obj
 0002:000123b8       ??_R4CShader@RadialGaussianX@@6B@ 1005e3b8     radialgaussianx.obj
 0002:000123cc       ??_R3CShader@RadialGaussianX@@8 1005e3cc     radialgaussianx.obj
 0002:000123dc       ??_R2CShader@RadialGaussianX@@8 1005e3dc     radialgaussianx.obj
 0002:000123f0       ??_R1A@?0A@EA@CShader@RadialGaussianX@@8 1005e3f0     radialgaussianx.obj
 0002:0001240c       ??_R4CShader@RadialGaussianY@@6B@ 1005e40c     radialgaussiany.obj
 0002:00012420       ??_R3CShader@RadialGaussianY@@8 1005e420     radialgaussiany.obj
 0002:00012430       ??_R2CShader@RadialGaussianY@@8 1005e430     radialgaussiany.obj
 0002:00012444       ??_R1A@?0A@EA@CShader@RadialGaussianY@@8 1005e444     radialgaussiany.obj
 0002:00012460       ??_R4CShader@Radial_Blur@@6B@ 1005e460     radial_blur.obj
 0002:00012474       ??_R3CShader@Radial_Blur@@8 1005e474     radial_blur.obj
 0002:00012484       ??_R2CShader@Radial_Blur@@8 1005e484     radial_blur.obj
 0002:00012498       ??_R1A@?0A@EA@CShader@Radial_Blur@@8 1005e498     radial_blur.obj
 0002:000124b4       ??_R4CShader@SDK_Refract_DX90@@6B@ 1005e4b4     refract.obj
 0002:000124c8       ??_R3CShader@SDK_Refract_DX90@@8 1005e4c8     refract.obj
 0002:000124d8       ??_R2CShader@SDK_Refract_DX90@@8 1005e4d8     refract.obj
 0002:000124ec       ??_R1A@?0A@EA@CShader@SDK_Refract_DX90@@8 1005e4ec     refract.obj
 0002:00012508       ??_R4CShader@SDK_Refract@@6B@ 1005e508     refract.obj
 0002:0001251c       ??_R3CShader@SDK_Refract@@8 1005e51c     refract.obj
 0002:0001252c       ??_R2CShader@SDK_Refract@@8 1005e52c     refract.obj
 0002:0001253c       ??_R1A@?0A@EA@CShader@SDK_Refract@@8 1005e53c     refract.obj
 0002:00012558       ??_R4CShader@SDK_screenspace_general_dx9@@6B@ 1005e558     screenspace_general.obj
 0002:0001256c       ??_R3CShader@SDK_screenspace_general_dx9@@8 1005e56c     screenspace_general.obj
 0002:0001257c       ??_R2CShader@SDK_screenspace_general_dx9@@8 1005e57c     screenspace_general.obj
 0002:00012590       ??_R1A@?0A@EA@CShader@SDK_screenspace_general_dx9@@8 1005e590     screenspace_general.obj
 0002:000125ac       ??_R4CShader@SDK_screenspace_general@@6B@ 1005e5ac     screenspace_general.obj
 0002:000125c0       ??_R3CShader@SDK_screenspace_general@@8 1005e5c0     screenspace_general.obj
 0002:000125d0       ??_R2CShader@SDK_screenspace_general@@8 1005e5d0     screenspace_general.obj
 0002:000125e0       ??_R1A@?0A@EA@CShader@SDK_screenspace_general@@8 1005e5e0     screenspace_general.obj
 0002:000125fc       ??_R4CShader@ScreenWater@@6B@ 1005e5fc     screenwater.obj
 0002:00012610       ??_R3CShader@ScreenWater@@8 1005e610     screenwater.obj
 0002:00012620       ??_R2CShader@ScreenWater@@8 1005e620     screenwater.obj
 0002:00012634       ??_R1A@?0A@EA@CShader@ScreenWater@@8 1005e634     screenwater.obj
 0002:00012650       ??_R4CShader@Sepia@@6B@    1005e650     sepia.obj
 0002:00012664       ??_R3CShader@Sepia@@8      1005e664     sepia.obj
 0002:00012674       ??_R2CShader@Sepia@@8      1005e674     sepia.obj
 0002:00012688       ??_R1A@?0A@EA@CShader@Sepia@@8 1005e688     sepia.obj
 0002:000126a4       ??_R4CSkin_DX9_Context@@6B@ 1005e6a4     skin_dx9_helper.obj
 0002:000126b8       ??_R3CSkin_DX9_Context@@8  1005e6b8     skin_dx9_helper.obj
 0002:000126c8       ??_R2CSkin_DX9_Context@@8  1005e6c8     skin_dx9_helper.obj
 0002:000126d4       ??_R1A@?0A@EA@CSkin_DX9_Context@@8 1005e6d4     skin_dx9_helper.obj
 0002:000126f0       ??_R4CShader@SDK_Spritecard@@6B@ 1005e6f0     spritecard.obj
 0002:00012704       ??_R3CShader@SDK_Spritecard@@8 1005e704     spritecard.obj
 0002:00012714       ??_R2CShader@SDK_Spritecard@@8 1005e714     spritecard.obj
 0002:00012728       ??_R1A@?0A@EA@CShader@SDK_Spritecard@@8 1005e728     spritecard.obj
 0002:00012744       ??_R4CShader@SDK_Teeth_DX9@@6B@ 1005e744     teeth.obj
 0002:00012758       ??_R3CShader@SDK_Teeth_DX9@@8 1005e758     teeth.obj
 0002:00012768       ??_R2CShader@SDK_Teeth_DX9@@8 1005e768     teeth.obj
 0002:0001277c       ??_R1A@?0A@EA@CShader@SDK_Teeth_DX9@@8 1005e77c     teeth.obj
 0002:00012798       ??_R4CShader@SDK_Teeth@@6B@ 1005e798     teeth.obj
 0002:000127ac       ??_R3CShader@SDK_Teeth@@8  1005e7ac     teeth.obj
 0002:000127bc       ??_R2CShader@SDK_Teeth@@8  1005e7bc     teeth.obj
 0002:000127cc       ??_R1A@?0A@EA@CShader@SDK_Teeth@@8 1005e7cc     teeth.obj
 0002:000127e8       ??_R4CShader@SDK_UnlitGeneric@@6B@ 1005e7e8     unlitgeneric_dx9.obj
 0002:000127fc       ??_R3CShader@SDK_UnlitGeneric@@8 1005e7fc     unlitgeneric_dx9.obj
 0002:0001280c       ??_R2CShader@SDK_UnlitGeneric@@8 1005e80c     unlitgeneric_dx9.obj
 0002:00012820       ??_R1A@?0A@EA@CShader@SDK_UnlitGeneric@@8 1005e820     unlitgeneric_dx9.obj
 0002:0001283c       ??_R4CShader@SDK_UnlitTwoTexture_DX9@@6B@ 1005e83c     unlittwotexture_dx9.obj
 0002:00012850       ??_R3CShader@SDK_UnlitTwoTexture_DX9@@8 1005e850     unlittwotexture_dx9.obj
 0002:00012860       ??_R2CShader@SDK_UnlitTwoTexture_DX9@@8 1005e860     unlittwotexture_dx9.obj
 0002:00012874       ??_R1A@?0A@EA@CShader@SDK_UnlitTwoTexture_DX9@@8 1005e874     unlittwotexture_dx9.obj
 0002:00012890       ??_R4CShader@SDK_UnlitTwoTexture@@6B@ 1005e890     unlittwotexture_dx9.obj
 0002:000128a4       ??_R3CShader@SDK_UnlitTwoTexture@@8 1005e8a4     unlittwotexture_dx9.obj
 0002:000128b4       ??_R2CShader@SDK_UnlitTwoTexture@@8 1005e8b4     unlittwotexture_dx9.obj
 0002:000128c4       ??_R1A@?0A@EA@CShader@SDK_UnlitTwoTexture@@8 1005e8c4     unlittwotexture_dx9.obj
 0002:000128e0       ??_R4CShader@Unsharp@@6B@  1005e8e0     unsharp.obj
 0002:000128f4       ??_R3CShader@Unsharp@@8    1005e8f4     unsharp.obj
 0002:00012904       ??_R2CShader@Unsharp@@8    1005e904     unsharp.obj
 0002:00012918       ??_R1A@?0A@EA@CShader@Unsharp@@8 1005e918     unsharp.obj
 0002:00012934       ??_R4CShader@Unsharp_Blur@@6B@ 1005e934     unsharp_blur.obj
 0002:00012948       ??_R3CShader@Unsharp_Blur@@8 1005e948     unsharp_blur.obj
 0002:00012958       ??_R2CShader@Unsharp_Blur@@8 1005e958     unsharp_blur.obj
 0002:0001296c       ??_R1A@?0A@EA@CShader@Unsharp_Blur@@8 1005e96c     unsharp_blur.obj
 0002:00012988       ??_R4CShader@SDK_VertexLitGeneric@@6B@ 1005e988     vertexlitgeneric_dx9.obj
 0002:0001299c       ??_R3CShader@SDK_VertexLitGeneric@@8 1005e99c     vertexlitgeneric_dx9.obj
 0002:000129ac       ??_R2CShader@SDK_VertexLitGeneric@@8 1005e9ac     vertexlitgeneric_dx9.obj
 0002:000129c0       ??_R1A@?0A@EA@CShader@SDK_VertexLitGeneric@@8 1005e9c0     vertexlitgeneric_dx9.obj
 0002:000129dc       ??_R4CVertexLitGeneric_DX9_Context@@6B@ 1005e9dc     vertexlitgeneric_dx9_helper.obj
 0002:000129f0       ??_R3CVertexLitGeneric_DX9_Context@@8 1005e9f0     vertexlitgeneric_dx9_helper.obj
 0002:00012a00       ??_R2CVertexLitGeneric_DX9_Context@@8 1005ea00     vertexlitgeneric_dx9_helper.obj
 0002:00012a0c       ??_R1A@?0A@EA@CVertexLitGeneric_DX9_Context@@8 1005ea0c     vertexlitgeneric_dx9_helper.obj
 0002:00012a28       ??_R4CShader@Vignetting@@6B@ 1005ea28     vignetting.obj
 0002:00012a3c       ??_R3CShader@Vignetting@@8 1005ea3c     vignetting.obj
 0002:00012a4c       ??_R2CShader@Vignetting@@8 1005ea4c     vignetting.obj
 0002:00012a60       ??_R1A@?0A@EA@CShader@Vignetting@@8 1005ea60     vignetting.obj
 0002:00012a7c       ??_R4CShader@SDK_VortWarp_DX9@@6B@ 1005ea7c     vortwarp_dx9.obj
 0002:00012a90       ??_R3CShader@SDK_VortWarp_DX9@@8 1005ea90     vortwarp_dx9.obj
 0002:00012aa0       ??_R2CShader@SDK_VortWarp_DX9@@8 1005eaa0     vortwarp_dx9.obj
 0002:00012ab4       ??_R1A@?0A@EA@CShader@SDK_VortWarp_DX9@@8 1005eab4     vortwarp_dx9.obj
 0002:00012ad0       ??_R4CShader@SDK_VortWarp@@6B@ 1005ead0     vortwarp_dx9.obj
 0002:00012ae4       ??_R3CShader@SDK_VortWarp@@8 1005eae4     vortwarp_dx9.obj
 0002:00012af4       ??_R2CShader@SDK_VortWarp@@8 1005eaf4     vortwarp_dx9.obj
 0002:00012b04       ??_R1A@?0A@EA@CShader@SDK_VortWarp@@8 1005eb04     vortwarp_dx9.obj
 0002:00012b20       ??_R4CShader@SDK_Water_DX9_HDR@SDK_Water_DX90@@6B@ 1005eb20     water.obj
 0002:00012b34       ??_R3CShader@SDK_Water_DX9_HDR@SDK_Water_DX90@@8 1005eb34     water.obj
 0002:00012b44       ??_R2CShader@SDK_Water_DX9_HDR@SDK_Water_DX90@@8 1005eb44     water.obj
 0002:00012b5c       ??_R1A@?0A@EA@CShader@SDK_Water_DX9_HDR@SDK_Water_DX90@@8 1005eb5c     water.obj
 0002:00012b78       ??_R4CShader@SDK_Water_DX90@@6B@ 1005eb78     water.obj
 0002:00012b8c       ??_R3CShader@SDK_Water_DX90@@8 1005eb8c     water.obj
 0002:00012b9c       ??_R2CShader@SDK_Water_DX90@@8 1005eb9c     water.obj
 0002:00012bb0       ??_R1A@?0A@EA@CShader@SDK_Water_DX90@@8 1005ebb0     water.obj
 0002:00012bcc       ??_R4CShader@SDK_Water@@6B@ 1005ebcc     water.obj
 0002:00012be0       ??_R3CShader@SDK_Water@@8  1005ebe0     water.obj
 0002:00012bf0       ??_R2CShader@SDK_Water@@8  1005ebf0     water.obj
 0002:00012c00       ??_R1A@?0A@EA@CShader@SDK_Water@@8 1005ec00     water.obj
 0002:00012c1c       ??_R4CShader@SDK_WorldTwoTextureBlend@@6B@ 1005ec1c     worldtwotextureblend.obj
 0002:00012c30       ??_R3CShader@SDK_WorldTwoTextureBlend@@8 1005ec30     worldtwotextureblend.obj
 0002:00012c40       ??_R2CShader@SDK_WorldTwoTextureBlend@@8 1005ec40     worldtwotextureblend.obj
 0002:00012c54       ??_R1A@?0A@EA@CShader@SDK_WorldTwoTextureBlend@@8 1005ec54     worldtwotextureblend.obj
 0002:00012c70       ??_R4CShader@SDK_WorldVertexAlpha@@6B@ 1005ec70     worldvertexalpha.obj
 0002:00012c84       ??_R3CShader@SDK_WorldVertexAlpha@@8 1005ec84     worldvertexalpha.obj
 0002:00012c94       ??_R2CShader@SDK_WorldVertexAlpha@@8 1005ec94     worldvertexalpha.obj
 0002:00012ca8       ??_R1A@?0A@EA@CShader@SDK_WorldVertexAlpha@@8 1005eca8     worldvertexalpha.obj
 0002:00012cc4       ??_R4CShader@SDK_WorldVertexTransition_DX9@@6B@ 1005ecc4     worldvertextransition.obj
 0002:00012cd8       ??_R3CShader@SDK_WorldVertexTransition_DX9@@8 1005ecd8     worldvertextransition.obj
 0002:00012ce8       ??_R2CShader@SDK_WorldVertexTransition_DX9@@8 1005ece8     worldvertextransition.obj
 0002:00012cfc       ??_R1A@?0A@EA@CShader@SDK_WorldVertexTransition_DX9@@8 1005ecfc     worldvertextransition.obj
 0002:00012d18       ??_R4CShader@SDK_WorldVertexTransition@@6B@ 1005ed18     worldvertextransition.obj
 0002:00012d2c       ??_R3CShader@SDK_WorldVertexTransition@@8 1005ed2c     worldvertextransition.obj
 0002:00012d3c       ??_R2CShader@SDK_WorldVertexTransition@@8 1005ed3c     worldvertextransition.obj
 0002:00012d4c       ??_R1A@?0A@EA@CShader@SDK_WorldVertexTransition@@8 1005ed4c     worldvertextransition.obj
 0002:00012d68       ??_R4CShaderDLLVerification@@6B@ 1005ed68     shader_dll_verify.obj
 0002:00012d7c       ??_R3CShaderDLLVerification@@8 1005ed7c     shader_dll_verify.obj
 0002:00012d8c       ??_R2CShaderDLLVerification@@8 1005ed8c     shader_dll_verify.obj
 0002:00012d98       ??_R1A@?0A@EA@CShaderDLLVerification@@8 1005ed98     shader_dll_verify.obj
 0002:00012db4       ??_R3IShaderDLLVerification@@8 1005edb4     shader_dll_verify.obj
 0002:00012dc4       ??_R2IShaderDLLVerification@@8 1005edc4     shader_dll_verify.obj
 0002:00012dcc       ??_R1A@?0A@EA@IShaderDLLVerification@@8 1005edcc     shader_dll_verify.obj
 0002:00012de8       ??_R4CBaseShader@@6B@      1005ede8     shaderlib:BaseShader.obj
 0002:00012dfc       ??_R4CShaderDLL@@6BIShaderDLL@@@ 1005edfc     shaderlib:ShaderDLL.obj
 0002:00012e10       ??_R4CShaderDLL@@6BIShaderDLLInternal@@@ 1005ee10     shaderlib:ShaderDLL.obj
 0002:00012e24       ??_R3CShaderDLL@@8         1005ee24     shaderlib:ShaderDLL.obj
 0002:00012e34       ??_R2CShaderDLL@@8         1005ee34     shaderlib:ShaderDLL.obj
 0002:00012e44       ??_R13?0A@EA@IShaderDLL@@8 1005ee44     shaderlib:ShaderDLL.obj
 0002:00012e60       ??_R1A@?0A@EA@CShaderDLL@@8 1005ee60     shaderlib:ShaderDLL.obj
 0002:00012e7c       ??_R3IShaderDLLInternal@@8 1005ee7c     shaderlib:ShaderDLL.obj
 0002:00012e8c       ??_R2IShaderDLLInternal@@8 1005ee8c     shaderlib:ShaderDLL.obj
 0002:00012e94       ??_R1A@?0A@EA@IShaderDLLInternal@@8 1005ee94     shaderlib:ShaderDLL.obj
 0002:00012eb0       ??_R4IShaderDLL@@6B@       1005eeb0     shaderlib:ShaderDLL.obj
 0002:00012ec4       ??_R3IShaderDLL@@8         1005eec4     shaderlib:ShaderDLL.obj
 0002:00012ed4       ??_R2IShaderDLL@@8         1005eed4     shaderlib:ShaderDLL.obj
 0002:00012edc       ??_R1A@?0A@EA@IShaderDLL@@8 1005eedc     shaderlib:ShaderDLL.obj
 0002:00012ef8       ??_R4CShaderLibConVarAccessor@@6B@ 1005eef8     shaderlib:shaderlib_cvar.obj
 0002:00012f0c       ??_R3CShaderLibConVarAccessor@@8 1005ef0c     shaderlib:shaderlib_cvar.obj
 0002:00012f1c       ??_R2CShaderLibConVarAccessor@@8 1005ef1c     shaderlib:shaderlib_cvar.obj
 0002:00012f28       ??_R1A@?0A@EA@CShaderLibConVarAccessor@@8 1005ef28     shaderlib:shaderlib_cvar.obj
 0002:00012f44       ??_R3IConCommandBaseAccessor@@8 1005ef44     shaderlib:shaderlib_cvar.obj
 0002:00012f54       ??_R2IConCommandBaseAccessor@@8 1005ef54     shaderlib:shaderlib_cvar.obj
 0002:00012f5c       ??_R1A@?0A@EA@IConCommandBaseAccessor@@8 1005ef5c     shaderlib:shaderlib_cvar.obj
 0002:00012f80       ___safe_se_handler_table   1005ef80     <linker-defined>
 0002:00012f8c       ___rtc_iaa                 1005ef8c     LIBCMT:_initsect_.obj
 0002:00012f90       ___rtc_izz                 1005ef90     LIBCMT:_initsect_.obj
 0002:00012f94       ___rtc_taa                 1005ef94     LIBCMT:_initsect_.obj
 0002:00012f98       ___rtc_tzz                 1005ef98     LIBCMT:_initsect_.obj
 0002:00012fbc       __TI2?AVbad_alloc@std@@    1005efbc     LIBCMT:new.obj
 0002:00012fcc       __CTA2?AVbad_alloc@std@@   1005efcc     LIBCMT:new.obj
 0002:00012fd8       __CT??_R0?AVbad_alloc@std@@@8??0bad_alloc@std@@QAE@ABV01@@Z12 1005efd8     LIBCMT:new.obj
 0002:00012ff4       __CT??_R0?AVexception@std@@@8??0exception@std@@QAE@ABV01@@Z12 1005eff4     LIBCMT:new.obj
 0002:000132e4       __IMPORT_DESCRIPTOR_tier0  1005f2e4     tier0:tier0.dll
 0002:000132f8       __IMPORT_DESCRIPTOR_vstdlib 1005f2f8     vstdlib:vstdlib.dll
 0002:0001330c       __IMPORT_DESCRIPTOR_KERNEL32 1005f30c     kernel32:KERNEL32.dll
 0002:00013320       __NULL_IMPORT_DESCRIPTOR   1005f320     tier0:tier0.dll
 0003:00000080       ?power2_n@@3PAMA           10060080     mathlib:color_conversion.obj
 0003:00000488       ?pfSqrt@@3P6AMM@ZA         10060488     mathlib:mathlib_base.obj
 0003:0000048c       ?pfRSqrt@@3P6AMM@ZA        1006048c     mathlib:mathlib_base.obj
 0003:00000490       ?pfRSqrtFast@@3P6AMM@ZA    10060490     mathlib:mathlib_base.obj
 0003:00000494       ?pfVectorNormalize@@3P6IMAAVVector@@@ZA 10060494     mathlib:mathlib_base.obj
 0003:00000498       ?pfVectorNormalizeFast@@3P6IXAAVVector@@@ZA 10060498     mathlib:mathlib_base.obj
 0003:0000049c       ?pfInvRSquared@@3P6AMPBM@ZA 1006049c     mathlib:mathlib_base.obj
 0003:000004a0       ?pfFastSinCos@@3P6AXMPAM0@ZA 100604a0     mathlib:mathlib_base.obj
 0003:000004a4       ?pfFastCos@@3P6AMM@ZA      100604a4     mathlib:mathlib_base.obj
 0003:000004b0       ?vec3_invalid@@3VVector@@B 100604b0     mathlib:mathlib_base.obj
 0003:000004dc       ??_R0?AVConCommandBase@@@8 100604dc     tier1:convar.obj
 0003:00000500       ??_R0?AVConCommand@@@8     10060500     tier1:convar.obj
 0003:0000051c       ??_R0?AVIConVar@@@8        1006051c     tier1:convar.obj
 0003:00000534       ??_R0?AVConVar@@@8         10060534     tier1:convar.obj
 0003:00000550       ??_R0?AVCDefaultAccessor@@@8 10060550     tier1:convar.obj
 0003:00000570       ??_R0?AVCEmptyConVar@@@8   10060570     tier1:convar.obj
 0003:00000610       ??_R0?AVCUtlCharConversion@@@8 10060610     tier1:utlbuffer.obj
 0003:00000634       ??_R0?AVCUtlNoEscConversion@@@8 10060634     tier1:utlbuffer.obj
 0003:00000658       ??_R0?AVCUtlCStringConversion@@@8 10060658     tier1:utlbuffer.obj
 0003:00000680       ??_R0?AVtype_info@@@8      10060680     LIBCMT:typinfo.obj
 0003:00000698       ??_R0?AVbad_alloc@std@@@8  10060698     LIBCMT:new.obj
 0003:000006b4       ??_R0?AVexception@std@@@8  100606b4     LIBCMT:new.obj
 0003:000006d0       __fltused                  100606d0     LIBCMT:_fpinit_.obj
 0003:000006d4       __ldused                   100606d4     LIBCMT:_fpinit_.obj
 0003:000006f0       __half                     100606f0     LIBCMT:_pow_.obj
 0003:00000710       ___abort_behavior          10060710     LIBCMT:abort.obj
 0003:00000720       ___flsindex                10060720     LIBCMT:tidtable.obj
 0003:00000724       ___getvalueindex           10060724     LIBCMT:tidtable.obj
 0003:00000728       ___badioinfo               10060728     LIBCMT:ioinit.obj
 0003:00000768       __cfltcvt_tab              10060768     LIBCMT:cmiscdat.obj
 0003:000007a0       ___initialmbcinfo          100607a0     LIBCMT:mbctype.obj
 0003:000009c0       __mbctype                  100609c0     LIBCMT:mbctype.obj
 0003:00000ac8       __mbcasemap                10060ac8     LIBCMT:mbctype.obj
 0003:00000bc8       ___ptmbcinfo               10060bc8     LIBCMT:mbctype.obj
 0003:00000cc0       ___globallocalestatus      10060cc0     LIBCMT:glstatus.obj
 0003:00000cc4       ___clocalestr              10060cc4     LIBCMT:nlsdata2.obj
 0003:00000cc8       ___lc_time_c               10060cc8     LIBCMT:nlsdata2.obj
 0003:00000e30       ___initiallocinfo          10060e30     LIBCMT:nlsdata2.obj
 0003:00000f08       ___ptlocinfo               10060f08     LIBCMT:nlsdata2.obj
 0003:00001080       ___security_cookie         10061080     LIBCMT:gs_cookie.obj
 0003:00001084       ___security_cookie_complement 10061084     LIBCMT:gs_cookie.obj
 0003:000011b0       ___nullstring              100611b0     LIBCMT:output.obj
 0003:000011b4       ___wnullstring             100611b4     LIBCMT:output.obj
 0003:000011c0       __HUGE                     100611c0     LIBCMT:_huge_.obj
 0003:000011d0       __matherr_flag             100611d0     LIBCMT:_matherr_.obj
 0003:000012c0       __d_inf                    100612c0     LIBCMT:_util_.obj
 0003:000012c8       __d_ind                    100612c8     LIBCMT:_util_.obj
 0003:000012d0       __d_max                    100612d0     LIBCMT:_util_.obj
 0003:000012d8       __d_min                    100612d8     LIBCMT:_util_.obj
 0003:000012e0       __d_mzero                  100612e0     LIBCMT:_util_.obj
 0003:00001310       ___lconv_static_decimal    10061310     LIBCMT:lconv.obj
 0003:00001314       ___lconv_static_W_decimal  10061314     LIBCMT:lconv.obj
 0003:00001318       ___lconv_c                 10061318     LIBCMT:lconv.obj
 0003:00001368       ___lconv                   10061368     LIBCMT:lconv.obj
 0003:0000136c       __pctype                   1006136c     LIBCMT:ctype.obj
 0003:00001370       __pwctype                  10061370     LIBCMT:ctype.obj
 0003:000013a8       __pow10pos                 100613a8     LIBCMT:_constpow_.obj
 0003:00001508       __pow10neg                 10061508     LIBCMT:_constpow_.obj
 0003:00001664       ___mb_cur_max              10061664     LIBCMT:nlsdata1.obj
 0003:00001668       ___decimal_point           10061668     LIBCMT:nlsdata1.obj
 0003:0000166c       ___decimal_point_length    1006166c     LIBCMT:nlsdata1.obj
 0003:00001670       __iob                      10061670     LIBCMT:_file.obj
 0003:000018f0       __NLG_Destination          100618f0     LIBCMT:exsup.obj
 0003:00001900       __confh                    10061900     LIBCMT:initcon.obj
 0003:00001904       ??_R0?AVCShader@SDK_Aftershock_dx9@@@8 10061904     aftershock.obj
 0003:00001930       ??_R0?AVCShader@SDK_Aftershock@@@8 10061930     aftershock.obj
 0003:00001958       ??_R0?AVIShader@@@8        10061958     aftershock.obj
 0003:00001970       ??_R0?AVCBaseShader@@@8    10061970     aftershock.obj
 0003:0000198c       ??_R0?AVCBaseVSShader@@@8  1006198c     aftershock.obj
 0003:00005cc0       ?g_ConVarAccessor@@3VCShaderLibConVarAccessor@@A 10065cc0     shaderlib:shaderlib_cvar.obj
 0003:00005cc4       ??_R0?AVCShader@Bleach_Bypass@@@8 10065cc4     bleach_bypass.obj
 0003:00005ce8       ??_R0?AVCShader@SDK_Bloom@@@8 10065ce8     Bloom.obj
 0003:00005d08       ??_R0?AVCShader@SDK_Cable_DX9@@@8 10065d08     cable_dx9.obj
 0003:00005d2c       ??_R0?AVCShader@SDK_Cable@@@8 10065d2c     cable_dx9.obj
 0003:00005d4c       ??_R0?AVCShader@Chromatic_Dispersion@@@8 10065d4c     chromatic.obj
 0003:00005d78       ??_R0?AVCShader@Color_Clipping@@@8 10065d78     color_clipping.obj
 0003:00005da0       ??_R0?AVCShader@Complements@@@8 10065da0     complements.obj
 0003:00005dc4       ??_R0?AVCShader@SDK_Core_DX90@@@8 10065dc4     core_dx9.obj
 0003:00005de8       ??_R0?AVCShader@SDK_Core@@@8 10065de8     core_dx9.obj
 0003:00005e08       ??_R0?AVCShader@Cubic_Distortion@@@8 10065e08     cubic_distortion.obj
 0003:00005e30       ??_R0?AVCShader@Desaturate@@@8 10065e30     Desaturate.obj
 0003:00005e54       ??_R0?AVCShader@SDK_AfterShock@@@8 10065e54     dx8fallbacks.obj
 0003:00005e7c       ??_R0?AVCShader@SDK_EyeGlint@@@8 10065e7c     dx8fallbacks.obj
 0003:00005ea0       ??_R0?AVCShader@SDK_VolumeClouds@@@8 10065ea0     dx8fallbacks.obj
 0003:00005ec8       ??_R0?AVCShader@SDK_EyeRefract@@@8 10065ec8     dx8fallbacks.obj
 0003:00005ef0       ??_R0?AVCShader@SDK_DepthWrite@@@8 10065ef0     dx8fallbacks.obj
 0003:00005f18       ??_R0?AVCShader@SDK_EyeRefract_dx9@@@8 10065f18     eye_refract.obj
 0003:00005f44       ??_R0?AVCShader@SDK_Eyeball@@@8 10065f44     eyeball.obj
 0003:00005f68       ??_R0?AVCShader@SDK_EyeGlint_dx9@@@8 10065f68     eyeglint_dx9.obj
 0003:00005f90       ??_R0?AVCShader@SDK_Eyes_dx8@@@8 10065f90     eyes.obj
 0003:00005fb4       ??_R0?AVCShader@SDK_eyes@@@8 10065fb4     eyes.obj
 0003:00005fd4       ??_R0?AVCShader@SDK_Eyes_dx9@@@8 10065fd4     eyes_dx9.obj
 0003:00005ff8       ??_R0?AVCShader@FXAA@@@8   10065ff8     fxaa.obj
 0003:00006014       ??_R0?AVCShader@GaussianX@@@8 10066014     gaussianx.obj
 0003:00006034       ??_R0?AVCShader@GaussianY@@@8 10066034     gaussiany.obj
 0003:00006054       ??_R0?AVCShader@LightmappedAdv_DX9@@@8 10066054     lightmappedadv.obj
 0003:00006080       ??_R0?AVCShader@LightmappedAdv@@@8 10066080     lightmappedadv.obj
 0003:000060a8       ??_R0?AVCLightmappedGeneric_DX9_Context@@@8 100660a8     lightmappedadv_helper.obj
 0003:000060d8       ??_R0?AVCBasePerMaterialContextData@@@8 100660d8     lightmappedadv_helper.obj
 0003:00006104       ??_R0?AVCShader@SDK_LightmappedGeneric_Decal@@@8 10066104     lightmappedgeneric_decal.obj
 0003:00006138       ??_R0?AVCShader@SDK_LightmappedReflective_DX90@@@8 10066138     lightmappedreflective.obj
 0003:00006170       ??_R0?AVCShader@SDK_LightmappedReflective@@@8 10066170     lightmappedreflective.obj
 0003:000061a0       ??_R0?AVCShader@SDK_LightmappedTwoTexture@@@8 100661a0     lightmappedtwotexture.obj
 0003:000061d0       ??_R0?AVCShader@LUMA@@@8   100661d0     luma.obj
 0003:000061ec       ??_R0?AVCShader@Negative@@@8 100661ec     negative.obj
 0003:0000620c       ??_R0?AVCShader@Nightvision@@@8 1006620c     nightvision.obj
 0003:00006230       ??_R0?AVCShader@Noise@@@8  10066230     noise.obj
 0003:0000624c       ??_R0?AVCShader@RadialGaussianX@@@8 1006624c     radialgaussianx.obj
 0003:00006274       ??_R0?AVCShader@RadialGaussianY@@@8 10066274     radialgaussiany.obj
 0003:0000629c       ??_R0?AVCShader@Radial_Blur@@@8 1006629c     radial_blur.obj
 0003:000062c0       ??_R0?AVCShader@SDK_Refract_DX90@@@8 100662c0     refract.obj
 0003:000062e8       ??_R0?AVCShader@SDK_Refract@@@8 100662e8     refract.obj
 0003:0000630c       ??_R0?AVCShader@SDK_screenspace_general_dx9@@@8 1006630c     screenspace_general.obj
 0003:00006340       ??_R0?AVCShader@SDK_screenspace_general@@@8 10066340     screenspace_general.obj
 0003:00006370       ??_R0?AVCShader@ScreenWater@@@8 10066370     screenwater.obj
 0003:00006394       ??_R0?AVCShader@Sepia@@@8  10066394     sepia.obj
 0003:000063b0       ??_R0?AVCSkin_DX9_Context@@@8 100663b0     skin_dx9_helper.obj
 0003:000063d0       ??_R0?AVCShader@SDK_Spritecard@@@8 100663d0     spritecard.obj
 0003:000063fc       ?s_TexCoordSize@?CB@??OnDrawElements@CShader@SDK_Spritecard@@UAEXPAPAVIMaterialVar@@PAVIShaderShadow@@PAVIShaderDynamicAPI@@W4VertexCompressionType_t@@PAPAVCBasePerMaterialContextData@@@Z@4PAHA 100663fc     spritecard.obj
 0003:0000641c       ?s_TexCoordSizeSpline@?CB@??OnDrawElements@CShader@SDK_Spritecard@@UAEXPAPAVIMaterialVar@@PAVIShaderShadow@@PAVIShaderDynamicAPI@@W4VertexCompressionType_t@@PAPAVCBasePerMaterialContextData@@@Z@4PAHA 1006641c     spritecard.obj
 0003:0000643c       ??_R0?AVCShader@SDK_Teeth_DX9@@@8 1006643c     teeth.obj
 0003:00006460       ??_R0?AVCShader@SDK_Teeth@@@8 10066460     teeth.obj
 0003:00006480       ??_R0?AVCShader@SDK_UnlitGeneric@@@8 10066480     unlitgeneric_dx9.obj
 0003:000064a8       ??_R0?AVCShader@SDK_UnlitTwoTexture_DX9@@@8 100664a8     unlittwotexture_dx9.obj
 0003:000064d8       ??_R0?AVCShader@SDK_UnlitTwoTexture@@@8 100664d8     unlittwotexture_dx9.obj
 0003:00006504       ??_R0?AVCShader@Unsharp@@@8 10066504     unsharp.obj
 0003:00006524       ??_R0?AVCShader@Unsharp_Blur@@@8 10066524     unsharp_blur.obj
 0003:00006548       ??_R0?AVCShader@SDK_VertexLitGeneric@@@8 10066548     vertexlitgeneric_dx9.obj
 0003:00006574       ??_R0?AVCVertexLitGeneric_DX9_Context@@@8 10066574     vertexlitgeneric_dx9_helper.obj
 0003:000065a0       ??_R0?AVCShader@Vignetting@@@8 100665a0     vignetting.obj
 0003:000065c4       ??_R0?AVCShader@SDK_VortWarp_DX9@@@8 100665c4     vortwarp_dx9.obj
 0003:000065ec       ??_R0?AVCShader@SDK_VortWarp@@@8 100665ec     vortwarp_dx9.obj
 0003:00006610       ??_R0?AVCShader@SDK_Water_DX9_HDR@SDK_Water_DX90@@@8 10066610     water.obj
 0003:00006648       ??_R0?AVCShader@SDK_Water_DX90@@@8 10066648     water.obj
 0003:00006670       ??_R0?AVCShader@SDK_Water@@@8 10066670     water.obj
 0003:00006690       ??_R0?AVCShader@SDK_WorldTwoTextureBlend@@@8 10066690     worldtwotextureblend.obj
 0003:000066c0       ??_R0?AVCShader@SDK_WorldVertexAlpha@@@8 100666c0     worldvertexalpha.obj
 0003:000066ec       ??_R0?AVCShader@SDK_WorldVertexTransition_DX9@@@8 100666ec     worldvertextransition.obj
 0003:00006720       ??_R0?AVCShader@SDK_WorldVertexTransition@@@8 10066720     worldvertextransition.obj
 0003:00006750       ??_R0?AVCShaderDLLVerification@@@8 10066750     shader_dll_verify.obj
 0003:00006778       ??_R0?AVIShaderDLLVerification@@@8 10066778     shader_dll_verify.obj
 0003:000067e0       ??_R0?AVCShaderDLL@@@8     100667e0     shaderlib:ShaderDLL.obj
 0003:000067fc       ??_R0?AVIShaderDLLInternal@@@8 100667fc     shaderlib:ShaderDLL.obj
 0003:00006820       ??_R0?AVIShaderDLL@@@8     10066820     shaderlib:ShaderDLL.obj
 0003:0000683c       ??_R0?AVCShaderLibConVarAccessor@@@8 1006683c     shaderlib:shaderlib_cvar.obj
 0003:00006864       ??_R0?AVIConCommandBaseAccessor@@@8 10066864     shaderlib:shaderlib_cvar.obj
 0003:00006cb8       ?lineartolightmap@@3PAEA   10066cb8     mathlib:color_conversion.obj
 0003:0000a4b8       ?lineartovertex@@3PAMA     1006a4b8     mathlib:color_conversion.obj
 0003:0000e5c0       ?SinCosTable@@3PAMA        1006e5c0     mathlib:mathlib_base.obj
 0003:0000e9c0       ?s_bMathlibInitialized@@3_NA 1006e9c0     mathlib:mathlib_base.obj
 0003:0000e9d0       ?vec3_origin@@3VVector@@B  1006e9d0     mathlib:mathlib_base.obj
 0003:0000e9dc       ?vec3_angle@@3VQAngle@@B   1006e9dc     mathlib:mathlib_base.obj
 0003:0000eaf8       ?s_pConCommandBases@ConCommandBase@@1PAV1@A 1006eaf8     tier1:convar.obj
 0003:0000eafc       ?s_pAccessor@ConCommandBase@@1PAVIConCommandBaseAccessor@@A 1006eafc     tier1:convar.obj
 0003:0000eb60       _cvar                      1006eb60     tier1:tier1.obj
 0003:0000eb64       _g_pCVar                   1006eb64     tier1:tier1.obj
 0003:0000eb68       ?g_pProcessUtils@@3PAVIProcessUtils@@A 1006eb68     tier1:tier1.obj
 0003:0000eb78       ?s_pInterfaceRegs@InterfaceReg@@2PAV1@A 1006eb78     tier1:interface.obj
 0003:0000eb88       ?s_StringCharConversion@@3VCUtlCStringConversion@@A 1006eb88     tier1:utlbuffer.obj
 0003:0000f598       ?s_NoEscConversion@@3VCUtlNoEscConversion@@A 1006f598     tier1:utlbuffer.obj
 0003:0000febc       __aenvptr                  1006febc     LIBCMT:dllcrt0.obj
 0003:0000fec0       __wenvptr                  1006fec0     LIBCMT:dllcrt0.obj
 0003:0000fec4       ___error_mode              1006fec4     LIBCMT:dllcrt0.obj
 0003:0000fec8       ___app_type                1006fec8     LIBCMT:dllcrt0.obj
 0003:0000fecc       ___fastflag                1006fecc     LIBCMT:_fpinit_.obj
 0003:0000fed0       __maxwait                  1006fed0     LIBCMT:crtheap.obj
 0003:0000fed4       __umaskval                 1006fed4     LIBCMT:crt0dat.obj
 0003:0000fed8       ___argc                    1006fed8     LIBCMT:crt0dat.obj
 0003:0000fedc       ___argv                    1006fedc     LIBCMT:crt0dat.obj
 0003:0000fee0       ___wargv                   1006fee0     LIBCMT:crt0dat.obj
 0003:0000fee4       __environ                  1006fee4     LIBCMT:crt0dat.obj
 0003:0000fee8       ___initenv                 1006fee8     LIBCMT:crt0dat.obj
 0003:0000feec       __wenviron                 1006feec     LIBCMT:crt0dat.obj
 0003:0000fef0       ___winitenv                1006fef0     LIBCMT:crt0dat.obj
 0003:0000fef4       __pgmptr                   1006fef4     LIBCMT:crt0dat.obj
 0003:0000fef8       __wpgmptr                  1006fef8     LIBCMT:crt0dat.obj
 0003:0000fefc       __exitflag                 1006fefc     LIBCMT:crt0dat.obj
 0003:0000ff00       __C_Termination_Done       1006ff00     LIBCMT:crt0dat.obj
 0003:0000ff04       __C_Exit_Done              1006ff04     LIBCMT:crt0dat.obj
 0003:00010530       ___pPurecall               10070530     LIBCMT:inithelp.obj
 0003:0001053c       ?_pnhHeap@@3P6AHI@ZA       1007053c     LIBCMT:handler.obj
 0003:00010540       _gpFlsAlloc                10070540     LIBCMT:tidtable.obj
 0003:00010544       _gpFlsGetValue             10070544     LIBCMT:tidtable.obj
 0003:00010548       _gpFlsSetValue             10070548     LIBCMT:tidtable.obj
 0003:0001054c       _gpFlsFree                 1007054c     LIBCMT:tidtable.obj
 0003:00010658       __crtheap                  10070658     LIBCMT:heapinit.obj
 0003:00010664       ___mbulinfo                10070664     LIBCMT:mbctype.obj
 0003:00010670       ___mbcodepage              10070670     LIBCMT:mbctype.obj
 0003:00010674       ___ismbcodepage            10070674     LIBCMT:mbctype.obj
 0003:00010678       ___mblcid                  10070678     LIBCMT:mbctype.obj
 0003:0001067c       ___pInvalidArgHandler      1007067c     LIBCMT:invarg.obj
 0003:00010680       ___locale_changed          10070680     LIBCMT:setlocal.obj
 0003:000107d8       ?__pInconsistency@@3P6AXXZA 100707d8     LIBCMT:hooks.obj
 0003:0001081c       ?pArgList@UnDecorator@@0PAVReplicator@@A 1007081c     LIBCMT:undname.obj
 0003:00010820       ?pZNameList@UnDecorator@@0PAVReplicator@@A 10070820     LIBCMT:undname.obj
 0003:00010824       ?pTemplateArgList@UnDecorator@@0PAVReplicator@@A 10070824     LIBCMT:undname.obj
 0003:00010828       ?gName@UnDecorator@@0PBDB  10070828     LIBCMT:undname.obj
 0003:0001082c       ?name@UnDecorator@@0PBDB   1007082c     LIBCMT:undname.obj
 0003:00010830       ?outputString@UnDecorator@@0PADA 10070830     LIBCMT:undname.obj
 0003:00010834       ?maxStringLength@UnDecorator@@0HA 10070834     LIBCMT:undname.obj
 0003:00010838       ?disableFlags@UnDecorator@@0KA 10070838     LIBCMT:undname.obj
 0003:0001083c       ?m_pGetParameter@UnDecorator@@0P6APADJ@ZA 1007083c     LIBCMT:undname.obj
 0003:00010840       ?fExplicitTemplateParams@UnDecorator@@0_NA 10070840     LIBCMT:undname.obj
 0003:00010841       ?fGetTemplateArgumentList@UnDecorator@@0_NA 10070841     LIBCMT:undname.obj
 0003:00010844       __newmode                  10070844     LIBCMT:_newmode.obj
 0003:00010848       __outputformat             10070848     LIBCMT:outputformat.obj
 0003:0001084c       ___lconv_static_null       1007084c     LIBCMT:lconv.obj
 0003:00010850       ___lconv_static_W_null     10070850     LIBCMT:lconv.obj
 0003:00010b7c       __cflush                   10070b7c     LIBCMT:_file.obj
 0003:00010b84       __stdbuf                   10070b84     LIBCMT:_sftbuf.obj
 0003:00011758       ?g_nSnapShots@@3HA         10071758     vertexlitgeneric_dx9_helper.obj
 0003:00011930       ?s_pShaderShadow@CBaseShader@@1PAVIShaderShadow@@A 10071930     shaderlib:BaseShader.obj
 0003:00011934       ?s_pMeshBuilder@CBaseShader@@0PAVCMeshBuilder@@A 10071934     shaderlib:BaseShader.obj
 0003:00011938       ?s_pShaderAPI@CBaseShader@@1PAVIShaderDynamicAPI@@A 10071938     shaderlib:BaseShader.obj
 0003:0001193c       ?s_nModulationFlags@CBaseShader@@0HA 1007193c     shaderlib:BaseShader.obj
 0003:00011940       ?s_pShaderInit@CBaseShader@@1PAVIShaderInit@@A 10071940     shaderlib:BaseShader.obj
 0003:00011944       ?s_ppParams@CBaseShader@@2PAPAVIMaterialVar@@A 10071944     shaderlib:BaseShader.obj
 0003:00011948       ?g_pHardwareConfig@@3PAVIMaterialSystemHardwareConfig@@A 10071948     shaderlib:ShaderDLL.obj
 0003:0001194c       ?g_pConfig@@3PBUMaterialSystem_Config_t@@B 1007194c     shaderlib:ShaderDLL.obj
 0003:00011950       ?g_pSLShaderSystem@@3PAVIShaderSystem@@A 10071950     shaderlib:ShaderDLL.obj
 0003:00011a40       ?s_pTextureGroupName@CBaseShader@@1PBDB 10071a40     shaderlib:BaseShader.obj
 0003:00012368       ?r_flashlight_version2@@3VConVar@@A 10072368     eyes_dx8_dx9_helper.obj
 0003:00012448       ?mat_force_lightmapped_phong_exp@@3VConVar@@A 10072448     lightmappedadv_helper.obj
 0003:00012490       ?mat_force_lightmapped_phong_boost@@3VConVar@@A 10072490     lightmappedadv_helper.obj
 0003:000124d8       ?mat_force_lightmapped_phong@@3VConVar@@A 100724d8     lightmappedadv_helper.obj
 0003:000125f8       ?mat_enable_lightmapped_phong@@3VConVar@@A 100725f8     lightmappedadv_helper.obj
 0003:00012658       ?mat_disable_lightwarp@@3VConVar@@A 10072658     lightmappedgeneric_dx9_helper.obj
 0003:000126a0       ?mat_fullbright@@3VConVar@@A 100726a0     lightmappedgeneric_dx9_helper.obj
 0003:000126e8       ?mat_disable_fancy_blending@@3VConVar@@A 100726e8     lightmappedgeneric_dx9_helper.obj
 0003:00012c2c       ___piob                    10072c2c     <common>
 0003:00012c40       __bufin                    10072c40     <common>
 0003:00013c40       __nstream                  10073c40     <common>
 0003:00013c44       __debugger_hook_dummy      10073c44     <common>
 0003:00013c48       __pmatherr                 10073c48     <common>
 0003:00013c4c       ___use_sse2_mathfcns       10073c4c     <common>
 0003:00013c50       __nhandle                  10073c50     <common>
 0003:00013c60       ___pioinfo                 10073c60     <common>
 0003:00013d60       __pDestructExceptionObject 10073d60     <common>
 0003:00013d64       ___env_initialized         10073d64     <common>
 0003:00013d68       ___onexitend               10073d68     <common>
 0003:00013d6c       ___onexitbegin             10073d6c     <common>
 0003:00013d70       ___mbctype_initialized     10073d70     <common>
 0003:00013d74       ___dyn_tls_init_callback   10073d74     <common>
 0003:00013d78       ___sse2_available          10073d78     <common>
 0003:00013d7c       __acmdln                   10073d7c     <common>

 entry point at        0001:0003382a

 Static symbols

 0001:0000aa70       ?SetDepthFlashlightParams@@YAXPAVCBaseVSShader@@PAVIShaderDynamicAPI@@ABVVMatrix@@ABUFlashlightState_t@@@Z 1000ba70 f    CIL library: CIL module
 0001:0000ac30       ?DrawFlashlight@@YAX_NPAVCBaseVSShader@@PAPAVIMaterialVar@@PAVIShaderDynamicAPI@@PAVIShaderShadow@@AAUEyes_DX8_DX9_Vars_t@@W4VertexCompressionType_t@@@Z 1000bc30 f    CIL library: CIL module
 0001:0000b4e0       ?DrawUsingVertexShader@@YAX_NPAVCBaseVSShader@@PAPAVIMaterialVar@@PAVIShaderDynamicAPI@@PAVIShaderShadow@@AAUEyes_DX8_DX9_Vars_t@@W4VertexCompressionType_t@@@Z 1000c4e0 f    CIL library: CIL module
 0001:00023fc0       ?WantsSkinShader@@YA_NPAPAVIMaterialVar@@ABUVertexLitGeneric_DX9_Vars_t@@@Z 10024fc0 f    CIL library: CIL module
 0001:00024a20       ?DrawVertexLitGeneric_DX9_Internal@@YAXPAVCBaseVSShader@@PAPAVIMaterialVar@@PAVIShaderDynamicAPI@@PAVIShaderShadow@@_N4AAUVertexLitGeneric_DX9_Vars_t@@W4VertexCompressionType_t@@PAPAVCBasePerMaterialContextData@@@Z 10025a20 f    CIL library: CIL module
 0001:0002dde0       ?MD5Transform@@YAXQAIQBI@Z 1002ede0 f    CIL library: CIL module
 0001:00033361       __onexit_nolock            10034361 f   LIBCMT:onexit.obj
 0001:00033734       ___DllMainCRTStartup       10034734 f   LIBCMT:dllcrt0.obj
 0001:00035111       _doexit                    10036111 f   LIBCMT:crt0dat.obj
 0001:000362b3       _parse_cmdline             100372b3 f   LIBCMT:stdargv.obj
 0001:00036990       __shift                    10037990 f   LIBCMT:cvt.obj
 0001:000369d5       __cftoe2_l                 100379d5 f   LIBCMT:cvt.obj
 0001:00036f93       __cftof2_l                 10037f93 f   LIBCMT:cvt.obj
 0001:000397b9       ?CPtoLCID@@YAHH@Z          1003a7b9 f   LIBCMT:mbctype.obj
 0001:000397e8       ?setSBCS@@YAXPAUthreadmbcinfostruct@@@Z 1003a7e8 f   LIBCMT:mbctype.obj
 0001:0003984c       ?setSBUpLow@@YAXPAUthreadmbcinfostruct@@@Z 1003a84c f   LIBCMT:mbctype.obj
 0001:00039a80       ?getSystemCP@@YAHH@Z       1003aa80 f   LIBCMT:mbctype.obj
 0001:0003ac65       ?__crtLCMapStringA_stat@@YAHPAUlocaleinfo_struct@@KKPBDHPADHHH@Z 1003bc65 f   LIBCMT:a_map.obj
 0001:0003b1ee       _write_char                1003c1ee f   LIBCMT:output.obj
 0001:0003b221       _write_string              1003c221 f   LIBCMT:output.obj
 0001:0003bfb7       _siglookup                 1003cfb7 f   LIBCMT:winsig.obj
 0001:0003c390       __unwind_handler4          1003d390 f   LIBCMT:exsup4.obj
 0001:0003c8b5       ?x_ismbbtype_l@@YAHPAUlocaleinfo_struct@@IHH@Z 1003d8b5 f   LIBCMT:ismbbyte.obj
 0001:0003da05       ?__crtGetStringTypeA_stat@@YAHPAUlocaleinfo_struct@@KPBDHPAGHHH@Z 1003ea05 f   LIBCMT:a_str.obj
 0001:0003fd20       __unwind_handler           10040d20 f   LIBCMT:exsup.obj
 0001:0004072f       __hw_cw                    1004172f f   LIBCMT:_ieee87_.obj
 0001:000407bd       ___hw_cw_sse2              100417bd f   LIBCMT:_ieee87_.obj
 0001:00040ff2       _flsall                    10041ff2 f   LIBCMT:fflush.obj
 0001:000414d0       ??__Es_ShaderParams@SDK_Aftershock@@YAXXZ 100424d0 f    CIL library: CIL module
 0001:000414e0       ??__Es_ShaderInstance@SDK_Aftershock@@YAXXZ 100424e0 f    CIL library: CIL module
 0001:000414f0       ??__Es_ShaderParams@SDK_Aftershock_dx9@@YAXXZ 100424f0 f    CIL library: CIL module
 0001:00041500       ??__ECOLORTINT@SDK_Aftershock_dx9@@YAXXZ 10042500 f    CIL library: CIL module
 0001:00041530       ??__EREFRACTAMOUNT@SDK_Aftershock_dx9@@YAXXZ 10042530 f    CIL library: CIL module
 0001:00041560       ??__ENORMALMAP@SDK_Aftershock_dx9@@YAXXZ 10042560 f    CIL library: CIL module
 0001:00041590       ??__EBUMPFRAME@SDK_Aftershock_dx9@@YAXXZ 10042590 f    CIL library: CIL module
 0001:000415c0       ??__EBUMPTRANSFORM@SDK_Aftershock_dx9@@YAXXZ 100425c0 f    CIL library: CIL module
 0001:000415f0       ??__ESILHOUETTETHICKNESS@SDK_Aftershock_dx9@@YAXXZ 100425f0 f    CIL library: CIL module
 0001:00041620       ??__ESILHOUETTECOLOR@SDK_Aftershock_dx9@@YAXXZ 10042620 f    CIL library: CIL module
 0001:00041650       ??__EGROUNDMIN@SDK_Aftershock_dx9@@YAXXZ 10042650 f    CIL library: CIL module
 0001:00041680       ??__EGROUNDMAX@SDK_Aftershock_dx9@@YAXXZ 10042680 f    CIL library: CIL module
 0001:000416b0       ??__EBLURAMOUNT@SDK_Aftershock_dx9@@YAXXZ 100426b0 f    CIL library: CIL module
 0001:000416e0       ??__ETIME@SDK_Aftershock_dx9@@YAXXZ 100426e0 f    CIL library: CIL module
 0001:00041710       ??__Es_ShaderInstance@SDK_Aftershock_dx9@@YAXXZ 10042710 f    CIL library: CIL module
 0001:00041760       ??__Emat_fullbright@@YAXXZ 10042760 f    CIL library: CIL module
 0001:00041790       ??__Es_ShaderParams@Bleach_Bypass@@YAXXZ 10042790 f    CIL library: CIL module
 0001:000417a0       ??__EFBTEXTURE@Bleach_Bypass@@YAXXZ 100427a0 f    CIL library: CIL module
 0001:000417d0       ??__EOPACITY@Bleach_Bypass@@YAXXZ 100427d0 f    CIL library: CIL module
 0001:00041800       ??__Es_ShaderInstance@Bleach_Bypass@@YAXXZ 10042800 f    CIL library: CIL module
 0001:00041850       ??__Es_ShaderParams@SDK_Bloom@@YAXXZ 10042850 f    CIL library: CIL module
 0001:00041860       ??__EFBTEXTURE@SDK_Bloom@@YAXXZ 10042860 f    CIL library: CIL module
 0001:00041890       ??__EBLURTEXTURE@SDK_Bloom@@YAXXZ 10042890 f    CIL library: CIL module
 0001:000418c0       ??__Es_ShaderInstance@SDK_Bloom@@YAXXZ 100428c0 f    CIL library: CIL module
 0001:00041910       ??__Es_ShaderParams@SDK_Cable@@YAXXZ 10042910 f    CIL library: CIL module
 0001:00041920       ??__Es_ShaderInstance@SDK_Cable@@YAXXZ 10042920 f    CIL library: CIL module
 0001:00041930       ??__Es_ShaderParams@SDK_Cable_DX9@@YAXXZ 10042930 f    CIL library: CIL module
 0001:00041940       ??__EBUMPMAP@SDK_Cable_DX9@@YAXXZ 10042940 f    CIL library: CIL module
 0001:00041970       ??__EMINLIGHT@SDK_Cable_DX9@@YAXXZ 10042970 f    CIL library: CIL module
 0001:000419a0       ??__EMAXLIGHT@SDK_Cable_DX9@@YAXXZ 100429a0 f    CIL library: CIL module
 0001:000419d0       ??__Es_ShaderInstance@SDK_Cable_DX9@@YAXXZ 100429d0 f    CIL library: CIL module
 0001:00041a20       ??__Es_ShaderParams@Chromatic_Dispersion@@YAXXZ 10042a20 f    CIL library: CIL module
 0001:00041a30       ??__EFBTEXTURE@Chromatic_Dispersion@@YAXXZ 10042a30 f    CIL library: CIL module
 0001:00041a60       ??__EFOCUSOFFSET@Chromatic_Dispersion@@YAXXZ 10042a60 f    CIL library: CIL module
 0001:00041a90       ??__ERADIAL@Chromatic_Dispersion@@YAXXZ 10042a90 f    CIL library: CIL module
 0001:00041ac0       ??__Es_ShaderInstance@Chromatic_Dispersion@@YAXXZ 10042ac0 f    CIL library: CIL module
 0001:00041b10       ??__Er_lightwarpidentity@@YAXXZ 10042b10 f    CIL library: CIL module
 0001:00041b40       ??__Es_ShaderParams@Color_Clipping@@YAXXZ 10042b40 f    CIL library: CIL module
 0001:00041b50       ??__EFBTEXTURE@Color_Clipping@@YAXXZ 10042b50 f    CIL library: CIL module
 0001:00041b80       ??__EMINCOLOR@Color_Clipping@@YAXXZ 10042b80 f    CIL library: CIL module
 0001:00041bb0       ??__EMAXCOLOR@Color_Clipping@@YAXXZ 10042bb0 f    CIL library: CIL module
 0001:00041be0       ??__ESQUISH@Color_Clipping@@YAXXZ 10042be0 f    CIL library: CIL module
 0001:00041c10       ??__Es_ShaderInstance@Color_Clipping@@YAXXZ 10042c10 f    CIL library: CIL module
 0001:00041c60       ??__Es_ShaderParams@Complements@@YAXXZ 10042c60 f    CIL library: CIL module
 0001:00041c70       ??__EFBTEXTURE@Complements@@YAXXZ 10042c70 f    CIL library: CIL module
 0001:00041ca0       ??__EGUIDEHUE@Complements@@YAXXZ 10042ca0 f    CIL library: CIL module
 0001:00041cd0       ??__EAMOUNT@Complements@@YAXXZ 10042cd0 f    CIL library: CIL module
 0001:00041d00       ??__ECONCENTRATE@Complements@@YAXXZ 10042d00 f    CIL library: CIL module
 0001:00041d30       ??__EDESATCORR@Complements@@YAXXZ 10042d30 f    CIL library: CIL module
 0001:00041d60       ??__Es_ShaderInstance@Complements@@YAXXZ 10042d60 f    CIL library: CIL module
 0001:00041db0       ??__Es_ShaderParams@SDK_Core@@YAXXZ 10042db0 f    CIL library: CIL module
 0001:00041dc0       ??__Es_ShaderInstance@SDK_Core@@YAXXZ 10042dc0 f    CIL library: CIL module
 0001:00041dd0       ??__Es_ShaderParams@SDK_Core_DX90@@YAXXZ 10042dd0 f    CIL library: CIL module
 0001:00041de0       ??__ECOLOR@SDK_Core_DX90@@YAXXZ 10042de0 f    CIL library: CIL module
 0001:00041df0       ??__EALPHA@SDK_Core_DX90@@YAXXZ 10042df0 f    CIL library: CIL module
 0001:00041e00       ??__EREFRACTAMOUNT@SDK_Core_DX90@@YAXXZ 10042e00 f    CIL library: CIL module
 0001:00041e30       ??__EREFRACTTINT@SDK_Core_DX90@@YAXXZ 10042e30 f    CIL library: CIL module
 0001:00041e60       ??__ENORMALMAP@SDK_Core_DX90@@YAXXZ 10042e60 f    CIL library: CIL module
 0001:00041e90       ??__EBUMPFRAME@SDK_Core_DX90@@YAXXZ 10042e90 f    CIL library: CIL module
 0001:00041ec0       ??__EBUMPTRANSFORM@SDK_Core_DX90@@YAXXZ 10042ec0 f    CIL library: CIL module
 0001:00041ef0       ??__ETIME@SDK_Core_DX90@@YAXXZ 10042ef0 f    CIL library: CIL module
 0001:00041f20       ??__EENVMAP@SDK_Core_DX90@@YAXXZ 10042f20 f    CIL library: CIL module
 0001:00041f50       ??__EENVMAPFRAME@SDK_Core_DX90@@YAXXZ 10042f50 f    CIL library: CIL module
 0001:00041f80       ??__EENVMAPTINT@SDK_Core_DX90@@YAXXZ 10042f80 f    CIL library: CIL module
 0001:00041fb0       ??__EENVMAPCONTRAST@SDK_Core_DX90@@YAXXZ 10042fb0 f    CIL library: CIL module
 0001:00041fe0       ??__EENVMAPSATURATION@SDK_Core_DX90@@YAXXZ 10042fe0 f    CIL library: CIL module
 0001:00042010       ??__EFLOWMAP@SDK_Core_DX90@@YAXXZ 10043010 f    CIL library: CIL module
 0001:00042040       ??__EFLOWMAPFRAME@SDK_Core_DX90@@YAXXZ 10043040 f    CIL library: CIL module
 0001:00042070       ??__EFLOWMAPSCROLLRATE@SDK_Core_DX90@@YAXXZ 10043070 f    CIL library: CIL module
 0001:000420a0       ??__ECORECOLORTEXTURE@SDK_Core_DX90@@YAXXZ 100430a0 f    CIL library: CIL module
 0001:000420d0       ??__ECORECOLORTEXTUREFRAME@SDK_Core_DX90@@YAXXZ 100430d0 f    CIL library: CIL module
 0001:00042100       ??__EFLOWMAPTEXCOORDOFFSET@SDK_Core_DX90@@YAXXZ 10043100 f    CIL library: CIL module
 0001:00042130       ??__Es_ShaderInstance@SDK_Core_DX90@@YAXXZ 10043130 f    CIL library: CIL module
 0001:00042180       ??__Egear@@YAXXZ           10043180 f    CIL library: CIL module
 0001:000421b0       ??__Es_ShaderParams@Cubic_Distortion@@YAXXZ 100431b0 f    CIL library: CIL module
 0001:000421c0       ??__EFBTEXTURE@Cubic_Distortion@@YAXXZ 100431c0 f    CIL library: CIL module
 0001:000421f0       ??__EDISTORTION@Cubic_Distortion@@YAXXZ 100431f0 f    CIL library: CIL module
 0001:00042220       ??__ECUBICDISTORTION@Cubic_Distortion@@YAXXZ 10043220 f    CIL library: CIL module
 0001:00042250       ??__Es_ShaderInstance@Cubic_Distortion@@YAXXZ 10043250 f    CIL library: CIL module
 0001:000422a0       ??__Es_ShaderParams@Desaturate@@YAXXZ 100432a0 f    CIL library: CIL module
 0001:000422b0       ??__EFBTEXTURE@Desaturate@@YAXXZ 100432b0 f    CIL library: CIL module
 0001:000422e0       ??__ESTRENGTH@Desaturate@@YAXXZ 100432e0 f    CIL library: CIL module
 0001:00042310       ??__Es_ShaderInstance@Desaturate@@YAXXZ 10043310 f    CIL library: CIL module
 0001:00042360       ??__Es_ShaderParams@SDK_DepthWrite@@YAXXZ 10043360 f    CIL library: CIL module
 0001:00042370       ??__Es_ShaderInstance@SDK_DepthWrite@@YAXXZ 10043370 f    CIL library: CIL module
 0001:00042380       ??__Es_ShaderParams@SDK_EyeRefract@@YAXXZ 10043380 f    CIL library: CIL module
 0001:00042390       ??__Es_ShaderInstance@SDK_EyeRefract@@YAXXZ 10043390 f    CIL library: CIL module
 0001:000423e0       ??__Es_ShaderParams@SDK_VolumeClouds@@YAXXZ 100433e0 f    CIL library: CIL module
 0001:000423f0       ??__Es_ShaderInstance@SDK_VolumeClouds@@YAXXZ 100433f0 f    CIL library: CIL module
 0001:00042400       ??__Es_ShaderParams@SDK_EyeGlint@@YAXXZ 10043400 f    CIL library: CIL module
 0001:00042410       ??__Es_ShaderInstance@SDK_EyeGlint@@YAXXZ 10043410 f    CIL library: CIL module
 0001:00042460       ??__Es_ShaderParams@SDK_AfterShock@@YAXXZ 10043460 f    CIL library: CIL module
 0001:00042470       ??__Es_ShaderInstance@SDK_AfterShock@@YAXXZ 10043470 f    CIL library: CIL module
 0001:00042480       ??__Es_ShaderParams@SDK_EyeRefract@@YAXXZ 10043480 f    CIL library: CIL module
 0001:00042490       ??__Es_ShaderInstance@SDK_EyeRefract@@YAXXZ 10043490 f    CIL library: CIL module
 0001:000424e0       ??__Es_ShaderParams@SDK_EyeRefract_dx9@@YAXXZ 100434e0 f    CIL library: CIL module
 0001:000424f0       ??__EIRIS@SDK_EyeRefract_dx9@@YAXXZ 100434f0 f    CIL library: CIL module
 0001:00042520       ??__EIRISFRAME@SDK_EyeRefract_dx9@@YAXXZ 10043520 f    CIL library: CIL module
 0001:00042550       ??__ECORNEATEXTURE@SDK_EyeRefract_dx9@@YAXXZ 10043550 f    CIL library: CIL module
 0001:00042580       ??__EAMBIENTOCCLTEXTURE@SDK_EyeRefract_dx9@@YAXXZ 10043580 f    CIL library: CIL module
 0001:000425b0       ??__EENVMAP@SDK_EyeRefract_dx9@@YAXXZ 100435b0 f    CIL library: CIL module
 0001:000425e0       ??__EEYEORIGIN@SDK_EyeRefract_dx9@@YAXXZ 100435e0 f    CIL library: CIL module
 0001:00042610       ??__EIRISU@SDK_EyeRefract_dx9@@YAXXZ 10043610 f    CIL library: CIL module
 0001:00042640       ??__EIRISV@SDK_EyeRefract_dx9@@YAXXZ 10043640 f    CIL library: CIL module
 0001:00042670       ??__EDILATION@SDK_EyeRefract_dx9@@YAXXZ 10043670 f    CIL library: CIL module
 0001:000426a0       ??__EGLOSSINESS@SDK_EyeRefract_dx9@@YAXXZ 100436a0 f    CIL library: CIL module
 0001:000426d0       ??__ESPHERETEXKILLCOMBO@SDK_EyeRefract_dx9@@YAXXZ 100436d0 f    CIL library: CIL module
 0001:00042700       ??__ERAYTRACESPHERE@SDK_EyeRefract_dx9@@YAXXZ 10043700 f    CIL library: CIL module
 0001:00042730       ??__EPARALLAXSTRENGTH@SDK_EyeRefract_dx9@@YAXXZ 10043730 f    CIL library: CIL module
 0001:00042760       ??__ECORNEABUMPSTRENGTH@SDK_EyeRefract_dx9@@YAXXZ 10043760 f    CIL library: CIL module
 0001:00042790       ??__EAMBIENTOCCLCOLOR@SDK_EyeRefract_dx9@@YAXXZ 10043790 f    CIL library: CIL module
 0001:000427c0       ??__EEYEBALLRADIUS@SDK_EyeRefract_dx9@@YAXXZ 100437c0 f    CIL library: CIL module
 0001:000427f0       ??__EINTRO@SDK_EyeRefract_dx9@@YAXXZ 100437f0 f    CIL library: CIL module
 0001:00042820       ??__EENTITYORIGIN@SDK_EyeRefract_dx9@@YAXXZ 10043820 f    CIL library: CIL module
 0001:00042850       ??__EWARPPARAM@SDK_EyeRefract_dx9@@YAXXZ 10043850 f    CIL library: CIL module
 0001:00042880       ??__ELIGHTWARPTEXTURE@SDK_EyeRefract_dx9@@YAXXZ 10043880 f    CIL library: CIL module
 0001:000428b0       ??__ECLOAKPASSENABLED@SDK_EyeRefract_dx9@@YAXXZ 100438b0 f    CIL library: CIL module
 0001:000428e0       ??__ECLOAKFACTOR@SDK_EyeRefract_dx9@@YAXXZ 100438e0 f    CIL library: CIL module
 0001:00042910       ??__ECLOAKCOLORTINT@SDK_EyeRefract_dx9@@YAXXZ 10043910 f    CIL library: CIL module
 0001:00042940       ??__EREFRACTAMOUNT@SDK_EyeRefract_dx9@@YAXXZ 10043940 f    CIL library: CIL module
 0001:00042970       ??__EEMISSIVEBLENDENABLED@SDK_EyeRefract_dx9@@YAXXZ 10043970 f    CIL library: CIL module
 0001:000429a0       ??__EEMISSIVEBLENDSCROLLVECTOR@SDK_EyeRefract_dx9@@YAXXZ 100439a0 f    CIL library: CIL module
 0001:000429d0       ??__EEMISSIVEBLENDSTRENGTH@SDK_EyeRefract_dx9@@YAXXZ 100439d0 f    CIL library: CIL module
 0001:00042a00       ??__EEMISSIVEBLENDTEXTURE@SDK_EyeRefract_dx9@@YAXXZ 10043a00 f    CIL library: CIL module
 0001:00042a30       ??__EEMISSIVEBLENDTINT@SDK_EyeRefract_dx9@@YAXXZ 10043a30 f    CIL library: CIL module
 0001:00042a60       ??__EEMISSIVEBLENDFLOWTEXTURE@SDK_EyeRefract_dx9@@YAXXZ 10043a60 f    CIL library: CIL module
 0001:00042a90       ??__Es_ShaderInstance@SDK_EyeRefract_dx9@@YAXXZ 10043a90 f    CIL library: CIL module
 0001:00042ae0       ??__Er_lightwarpidentity@@YAXXZ 10043ae0 f    CIL library: CIL module
 0001:00042b10       ??__Es_ShaderParams@SDK_Eyeball@@YAXXZ 10043b10 f    CIL library: CIL module
 0001:00042b20       ??__EBASETEXTURE@SDK_Eyeball@@YAXXZ 10043b20 f    CIL library: CIL module
 0001:00042b30       ??__EBASETEXTURETRANSFORM@SDK_Eyeball@@YAXXZ 10043b30 f    CIL library: CIL module
 0001:00042b40       ??__Es_ShaderInstance@SDK_Eyeball@@YAXXZ 10043b40 f    CIL library: CIL module
 0001:00042b90       ??__Es_ShaderParams@SDK_EyeGlint@@YAXXZ 10043b90 f    CIL library: CIL module
 0001:00042ba0       ??__Es_ShaderInstance@SDK_EyeGlint@@YAXXZ 10043ba0 f    CIL library: CIL module
 0001:00042bf0       ??__Es_ShaderParams@SDK_EyeGlint_dx9@@YAXXZ 10043bf0 f    CIL library: CIL module
 0001:00042c00       ??__Es_ShaderInstance@SDK_EyeGlint_dx9@@YAXXZ 10043c00 f    CIL library: CIL module
 0001:00042c50       ??__Es_ShaderParams@SDK_eyes@@YAXXZ 10043c50 f    CIL library: CIL module
 0001:00042c60       ??__Es_ShaderInstance@SDK_eyes@@YAXXZ 10043c60 f    CIL library: CIL module
 0001:00042cb0       ??__Es_ShaderParams@SDK_Eyes_dx8@@YAXXZ 10043cb0 f    CIL library: CIL module
 0001:00042cc0       ??__EBASETEXTURE@SDK_Eyes_dx8@@YAXXZ 10043cc0 f    CIL library: CIL module
 0001:00042cd0       ??__EIRIS@SDK_Eyes_dx8@@YAXXZ 10043cd0 f    CIL library: CIL module
 0001:00042d00       ??__EIRISFRAME@SDK_Eyes_dx8@@YAXXZ 10043d00 f    CIL library: CIL module
 0001:00042d30       ??__EGLINT@SDK_Eyes_dx8@@YAXXZ 10043d30 f    CIL library: CIL module
 0001:00042d60       ??__EEYEORIGIN@SDK_Eyes_dx8@@YAXXZ 10043d60 f    CIL library: CIL module
 0001:00042d90       ??__EEYEUP@SDK_Eyes_dx8@@YAXXZ 10043d90 f    CIL library: CIL module
 0001:00042dc0       ??__EIRISU@SDK_Eyes_dx8@@YAXXZ 10043dc0 f    CIL library: CIL module
 0001:00042df0       ??__EIRISV@SDK_Eyes_dx8@@YAXXZ 10043df0 f    CIL library: CIL module
 0001:00042e20       ??__EGLINTU@SDK_Eyes_dx8@@YAXXZ 10043e20 f    CIL library: CIL module
 0001:00042e50       ??__EGLINTV@SDK_Eyes_dx8@@YAXXZ 10043e50 f    CIL library: CIL module
 0001:00042e80       ??__EDILATION@SDK_Eyes_dx8@@YAXXZ 10043e80 f    CIL library: CIL module
 0001:00042eb0       ??__EINTRO@SDK_Eyes_dx8@@YAXXZ 10043eb0 f    CIL library: CIL module
 0001:00042ee0       ??__EENTITYORIGIN@SDK_Eyes_dx8@@YAXXZ 10043ee0 f    CIL library: CIL module
 0001:00042f10       ??__EWARPPARAM@SDK_Eyes_dx8@@YAXXZ 10043f10 f    CIL library: CIL module
 0001:00042f40       ??__ECLOAKPASSENABLED@SDK_Eyes_dx8@@YAXXZ 10043f40 f    CIL library: CIL module
 0001:00042f70       ??__ECLOAKFACTOR@SDK_Eyes_dx8@@YAXXZ 10043f70 f    CIL library: CIL module
 0001:00042fa0       ??__ECLOAKCOLORTINT@SDK_Eyes_dx8@@YAXXZ 10043fa0 f    CIL library: CIL module
 0001:00042fd0       ??__EREFRACTAMOUNT@SDK_Eyes_dx8@@YAXXZ 10043fd0 f    CIL library: CIL module
 0001:00043000       ??__Es_ShaderInstance@SDK_Eyes_dx8@@YAXXZ 10044000 f    CIL library: CIL module
 0001:00043050       ??__Er_flashlight_version2@@YAXXZ 10044050 f    CIL library: CIL module
 0001:00043080       ??__Es_ShaderParams@SDK_eyes@@YAXXZ 10044080 f    CIL library: CIL module
 0001:00043090       ??__Es_ShaderInstance@SDK_eyes@@YAXXZ 10044090 f    CIL library: CIL module
 0001:000430e0       ??__Es_ShaderParams@SDK_Eyes_dx9@@YAXXZ 100440e0 f    CIL library: CIL module
 0001:000430f0       ??__EIRIS@SDK_Eyes_dx9@@YAXXZ 100440f0 f    CIL library: CIL module
 0001:00043120       ??__EIRISFRAME@SDK_Eyes_dx9@@YAXXZ 10044120 f    CIL library: CIL module
 0001:00043150       ??__EGLINT@SDK_Eyes_dx9@@YAXXZ 10044150 f    CIL library: CIL module
 0001:00043180       ??__EEYEORIGIN@SDK_Eyes_dx9@@YAXXZ 10044180 f    CIL library: CIL module
 0001:000431b0       ??__EEYEUP@SDK_Eyes_dx9@@YAXXZ 100441b0 f    CIL library: CIL module
 0001:000431e0       ??__EIRISU@SDK_Eyes_dx9@@YAXXZ 100441e0 f    CIL library: CIL module
 0001:00043210       ??__EIRISV@SDK_Eyes_dx9@@YAXXZ 10044210 f    CIL library: CIL module
 0001:00043240       ??__EGLINTU@SDK_Eyes_dx9@@YAXXZ 10044240 f    CIL library: CIL module
 0001:00043270       ??__EGLINTV@SDK_Eyes_dx9@@YAXXZ 10044270 f    CIL library: CIL module
 0001:000432a0       ??__EDILATION@SDK_Eyes_dx9@@YAXXZ 100442a0 f    CIL library: CIL module
 0001:000432d0       ??__EINTRO@SDK_Eyes_dx9@@YAXXZ 100442d0 f    CIL library: CIL module
 0001:00043300       ??__EENTITYORIGIN@SDK_Eyes_dx9@@YAXXZ 10044300 f    CIL library: CIL module
 0001:00043330       ??__EWARPPARAM@SDK_Eyes_dx9@@YAXXZ 10044330 f    CIL library: CIL module
 0001:00043360       ??__Es_ShaderInstance@SDK_Eyes_dx9@@YAXXZ 10044360 f    CIL library: CIL module
 0001:000433b0       ??__Es_ShaderParams@FXAA@@YAXXZ 100443b0 f    CIL library: CIL module
 0001:000433c0       ??__EFRAMEBUFFER@FXAA@@YAXXZ 100443c0 f    CIL library: CIL module
 0001:000433f0       ??__EQUALITY@FXAA@@YAXXZ   100443f0 f    CIL library: CIL module
 0001:00043420       ??__Es_ShaderInstance@FXAA@@YAXXZ 10044420 f    CIL library: CIL module
 0001:00043470       ??__Es_ShaderParams@GaussianX@@YAXXZ 10044470 f    CIL library: CIL module
 0001:00043480       ??__EFBTEXTURE@GaussianX@@YAXXZ 10044480 f    CIL library: CIL module
 0001:000434b0       ??__EBLURSIZE@GaussianX@@YAXXZ 100444b0 f    CIL library: CIL module
 0001:000434e0       ??__ERESDIVISOR@GaussianX@@YAXXZ 100444e0 f    CIL library: CIL module
 0001:00043510       ??__Es_ShaderInstance@GaussianX@@YAXXZ 10044510 f    CIL library: CIL module
 0001:00043560       ??__Es_ShaderParams@GaussianY@@YAXXZ 10044560 f    CIL library: CIL module
 0001:00043570       ??__EFBTEXTURE@GaussianY@@YAXXZ 10044570 f    CIL library: CIL module
 0001:000435a0       ??__EBLURSIZE@GaussianY@@YAXXZ 100445a0 f    CIL library: CIL module
 0001:000435d0       ??__ERESDIVISOR@GaussianY@@YAXXZ 100445d0 f    CIL library: CIL module
 0001:00043600       ??__Es_ShaderInstance@GaussianY@@YAXXZ 10044600 f    CIL library: CIL module
 0001:00043650       ??__Es_ShaderParams@LightmappedAdv@@YAXXZ 10044650 f    CIL library: CIL module
 0001:00043660       ??__Es_ShaderInstance@LightmappedAdv@@YAXXZ 10044660 f    CIL library: CIL module
 0001:00043670       ??__Es_ShaderParams@LightmappedAdv_DX9@@YAXXZ 10044670 f    CIL library: CIL module
 0001:00043680       ??__EALBEDO@LightmappedAdv_DX9@@YAXXZ 10044680 f    CIL library: CIL module
 0001:000436b0       ??__ESELFILLUMTINT@LightmappedAdv_DX9@@YAXXZ 100446b0 f    CIL library: CIL module
 0001:000436e0       ??__EDETAIL@LightmappedAdv_DX9@@YAXXZ 100446e0 f    CIL library: CIL module
 0001:00043710       ??__EDETAILFRAME@LightmappedAdv_DX9@@YAXXZ 10044710 f    CIL library: CIL module
 0001:00043740       ??__EDETAILSCALE@LightmappedAdv_DX9@@YAXXZ 10044740 f    CIL library: CIL module
 0001:00043770       ??__EDETAILBLENDMODE@LightmappedAdv_DX9@@YAXXZ 10044770 f    CIL library: CIL module
 0001:000437a0       ??__EDETAILBLENDFACTOR@LightmappedAdv_DX9@@YAXXZ 100447a0 f    CIL library: CIL module
 0001:000437d0       ??__EDETAILTINT@LightmappedAdv_DX9@@YAXXZ 100447d0 f    CIL library: CIL module
 0001:00043800       ??__EENVMAP@LightmappedAdv_DX9@@YAXXZ 10044800 f    CIL library: CIL module
 0001:00043830       ??__EENVMAPFRAME@LightmappedAdv_DX9@@YAXXZ 10044830 f    CIL library: CIL module
 0001:00043860       ??__EENVMAPMASK@LightmappedAdv_DX9@@YAXXZ 10044860 f    CIL library: CIL module
 0001:00043890       ??__EENVMAPMASKFRAME@LightmappedAdv_DX9@@YAXXZ 10044890 f    CIL library: CIL module
 0001:000438c0       ??__EENVMAPMASKTRANSFORM@LightmappedAdv_DX9@@YAXXZ 100448c0 f    CIL library: CIL module
 0001:000438f0       ??__EENVMAPTINT@LightmappedAdv_DX9@@YAXXZ 100448f0 f    CIL library: CIL module
 0001:00043920       ??__EBUMPMAP@LightmappedAdv_DX9@@YAXXZ 10044920 f    CIL library: CIL module
 0001:00043950       ??__EBUMPFRAME@LightmappedAdv_DX9@@YAXXZ 10044950 f    CIL library: CIL module
 0001:00043980       ??__EBUMPTRANSFORM@LightmappedAdv_DX9@@YAXXZ 10044980 f    CIL library: CIL module
 0001:000439b0       ??__EENVMAPCONTRAST@LightmappedAdv_DX9@@YAXXZ 100449b0 f    CIL library: CIL module
 0001:000439e0       ??__EENVMAPSATURATION@LightmappedAdv_DX9@@YAXXZ 100449e0 f    CIL library: CIL module
 0001:00043a10       ??__EFRESNELREFLECTION@LightmappedAdv_DX9@@YAXXZ 10044a10 f    CIL library: CIL module
 0001:00043a40       ??__ENODIFFUSEBUMPLIGHTING@LightmappedAdv_DX9@@YAXXZ 10044a40 f    CIL library: CIL module
 0001:00043a70       ??__EBUMPMAP2@LightmappedAdv_DX9@@YAXXZ 10044a70 f    CIL library: CIL module
 0001:00043aa0       ??__EBUMPFRAME2@LightmappedAdv_DX9@@YAXXZ 10044aa0 f    CIL library: CIL module
 0001:00043ad0       ??__EBUMPTRANSFORM2@LightmappedAdv_DX9@@YAXXZ 10044ad0 f    CIL library: CIL module
 0001:00043b00       ??__EBUMPMASK@LightmappedAdv_DX9@@YAXXZ 10044b00 f    CIL library: CIL module
 0001:00043b30       ??__EBASETEXTURE2@LightmappedAdv_DX9@@YAXXZ 10044b30 f    CIL library: CIL module
 0001:00043b60       ??__EFRAME2@LightmappedAdv_DX9@@YAXXZ 10044b60 f    CIL library: CIL module
 0001:00043b90       ??__EBASETEXTURENOENVMAP@LightmappedAdv_DX9@@YAXXZ 10044b90 f    CIL library: CIL module
 0001:00043bc0       ??__EBASETEXTURE2NOENVMAP@LightmappedAdv_DX9@@YAXXZ 10044bc0 f    CIL library: CIL module
 0001:00043bf0       ??__EDETAIL_ALPHA_MASK_BASE_TEXTURE@LightmappedAdv_DX9@@YAXXZ 10044bf0 f    CIL library: CIL module
 0001:00043c20       ??__ELIGHTWARPTEXTURE@LightmappedAdv_DX9@@YAXXZ 10044c20 f    CIL library: CIL module
 0001:00043c50       ??__EBLENDMODULATETEXTURE@LightmappedAdv_DX9@@YAXXZ 10044c50 f    CIL library: CIL module
 0001:00043c80       ??__EBLENDMASKTRANSFORM@LightmappedAdv_DX9@@YAXXZ 10044c80 f    CIL library: CIL module
 0001:00043cb0       ??__EMASKEDBLENDING@LightmappedAdv_DX9@@YAXXZ 10044cb0 f    CIL library: CIL module
 0001:00043ce0       ??__ESSBUMP@LightmappedAdv_DX9@@YAXXZ 10044ce0 f    CIL library: CIL module
 0001:00043d10       ??__ESEAMLESS_SCALE@LightmappedAdv_DX9@@YAXXZ 10044d10 f    CIL library: CIL module
 0001:00043d40       ??__EALPHATESTREFERENCE@LightmappedAdv_DX9@@YAXXZ 10044d40 f    CIL library: CIL module
 0001:00043d70       ??__ESOFTEDGES@LightmappedAdv_DX9@@YAXXZ 10044d70 f    CIL library: CIL module
 0001:00043da0       ??__EEDGESOFTNESSSTART@LightmappedAdv_DX9@@YAXXZ 10044da0 f    CIL library: CIL module
 0001:00043dd0       ??__EEDGESOFTNESSEND@LightmappedAdv_DX9@@YAXXZ 10044dd0 f    CIL library: CIL module
 0001:00043e00       ??__EOUTLINE@LightmappedAdv_DX9@@YAXXZ 10044e00 f    CIL library: CIL module
 0001:00043e30       ??__EOUTLINECOLOR@LightmappedAdv_DX9@@YAXXZ 10044e30 f    CIL library: CIL module
 0001:00043e60       ??__EOUTLINEALPHA@LightmappedAdv_DX9@@YAXXZ 10044e60 f    CIL library: CIL module
 0001:00043e90       ??__EOUTLINESTART0@LightmappedAdv_DX9@@YAXXZ 10044e90 f    CIL library: CIL module
 0001:00043ec0       ??__EOUTLINESTART1@LightmappedAdv_DX9@@YAXXZ 10044ec0 f    CIL library: CIL module
 0001:00043ef0       ??__EOUTLINEEND0@LightmappedAdv_DX9@@YAXXZ 10044ef0 f    CIL library: CIL module
 0001:00043f20       ??__EOUTLINEEND1@LightmappedAdv_DX9@@YAXXZ 10044f20 f    CIL library: CIL module
 0001:00043f50       ??__EPHONG@LightmappedAdv_DX9@@YAXXZ 10044f50 f    CIL library: CIL module
 0001:00043f80       ??__EPHONGBOOST@LightmappedAdv_DX9@@YAXXZ 10044f80 f    CIL library: CIL module
 0001:00043fb0       ??__EPHONGFRESNELRANGES@LightmappedAdv_DX9@@YAXXZ 10044fb0 f    CIL library: CIL module
 0001:00043fe0       ??__EPHONGEXPONENT@LightmappedAdv_DX9@@YAXXZ 10044fe0 f    CIL library: CIL module
 0001:00044010       ??__Es_ShaderInstance@LightmappedAdv_DX9@@YAXXZ 10045010 f    CIL library: CIL module
 0001:00044060       ??__Emat_disable_lightwarp@@YAXXZ 10045060 f    CIL library: CIL module
 0001:00044090       ??__Emat_disable_fancy_blending@@YAXXZ 10045090 f    CIL library: CIL module
 0001:000440c0       ??__Emat_fullbright@@YAXXZ 100450c0 f    CIL library: CIL module
 0001:000440f0       ??__Emat_enable_lightmapped_phong@@YAXXZ 100450f0 f    CIL library: CIL module
 0001:00044120       ??__Emat_force_lightmapped_phong@@YAXXZ 10045120 f    CIL library: CIL module
 0001:00044150       ??__Emat_force_lightmapped_phong_boost@@YAXXZ 10045150 f    CIL library: CIL module
 0001:00044180       ??__Emat_force_lightmapped_phong_exp@@YAXXZ 10045180 f    CIL library: CIL module
 0001:000441b0       ??__Es_ShaderParams@SDK_LightmappedGeneric_Decal@@YAXXZ 100451b0 f    CIL library: CIL module
 0001:000441c0       ??__Es_ShaderInstance@SDK_LightmappedGeneric_Decal@@YAXXZ 100451c0 f    CIL library: CIL module
 0001:00044210       ??__Emat_disable_lightwarp@@YAXXZ 10045210 f    CIL library: CIL module
 0001:00044240       ??__Emat_disable_fancy_blending@@YAXXZ 10045240 f    CIL library: CIL module
 0001:00044270       ??__Emat_fullbright@@YAXXZ 10045270 f    CIL library: CIL module
 0001:000442a0       ??__Es_ShaderParams@SDK_LightmappedReflective@@YAXXZ 100452a0 f    CIL library: CIL module
 0001:000442b0       ??__Es_ShaderInstance@SDK_LightmappedReflective@@YAXXZ 100452b0 f    CIL library: CIL module
 0001:000442c0       ??__Es_ShaderParams@SDK_LightmappedReflective_DX90@@YAXXZ 100452c0 f    CIL library: CIL module
 0001:000442d0       ??__EREFRACTTEXTURE@SDK_LightmappedReflective_DX90@@YAXXZ 100452d0 f    CIL library: CIL module
 0001:00044300       ??__EREFLECTTEXTURE@SDK_LightmappedReflective_DX90@@YAXXZ 10045300 f    CIL library: CIL module
 0001:00044330       ??__EREFRACTAMOUNT@SDK_LightmappedReflective_DX90@@YAXXZ 10045330 f    CIL library: CIL module
 0001:00044360       ??__EREFRACTTINT@SDK_LightmappedReflective_DX90@@YAXXZ 10045360 f    CIL library: CIL module
 0001:00044390       ??__EREFLECTAMOUNT@SDK_LightmappedReflective_DX90@@YAXXZ 10045390 f    CIL library: CIL module
 0001:000443c0       ??__EREFLECTTINT@SDK_LightmappedReflective_DX90@@YAXXZ 100453c0 f    CIL library: CIL module
 0001:000443f0       ??__ENORMALMAP@SDK_LightmappedReflective_DX90@@YAXXZ 100453f0 f    CIL library: CIL module
 0001:00044420       ??__EBUMPFRAME@SDK_LightmappedReflective_DX90@@YAXXZ 10045420 f    CIL library: CIL module
 0001:00044450       ??__EBUMPTRANSFORM@SDK_LightmappedReflective_DX90@@YAXXZ 10045450 f    CIL library: CIL module
 0001:00044480       ??__EENVMAPMASK@SDK_LightmappedReflective_DX90@@YAXXZ 10045480 f    CIL library: CIL module
 0001:000444b0       ??__EENVMAPMASKFRAME@SDK_LightmappedReflective_DX90@@YAXXZ 100454b0 f    CIL library: CIL module
 0001:000444e0       ??__EFRESNELPOWER@SDK_LightmappedReflective_DX90@@YAXXZ 100454e0 f    CIL library: CIL module
 0001:00044510       ??__EMAXREFLECTIVITY@SDK_LightmappedReflective_DX90@@YAXXZ 10045510 f    CIL library: CIL module
 0001:00044540       ??__EMINREFLECTIVITY@SDK_LightmappedReflective_DX90@@YAXXZ 10045540 f    CIL library: CIL module
 0001:00044570       ??__Es_ShaderInstance@SDK_LightmappedReflective_DX90@@YAXXZ 10045570 f    CIL library: CIL module
 0001:000445c0       ??__Es_ShaderParams@SDK_LightmappedTwoTexture@@YAXXZ 100455c0 f    CIL library: CIL module
 0001:000445d0       ??__EDETAIL@SDK_LightmappedTwoTexture@@YAXXZ 100455d0 f    CIL library: CIL module
 0001:00044600       ??__EDETAILSCALE@SDK_LightmappedTwoTexture@@YAXXZ 10045600 f    CIL library: CIL module
 0001:00044630       ??__EENVMAP@SDK_LightmappedTwoTexture@@YAXXZ 10045630 f    CIL library: CIL module
 0001:00044660       ??__EENVMAPFRAME@SDK_LightmappedTwoTexture@@YAXXZ 10045660 f    CIL library: CIL module
 0001:00044690       ??__EENVMAPMASK@SDK_LightmappedTwoTexture@@YAXXZ 10045690 f    CIL library: CIL module
 0001:000446c0       ??__EENVMAPMASKFRAME@SDK_LightmappedTwoTexture@@YAXXZ 100456c0 f    CIL library: CIL module
 0001:000446f0       ??__EENVMAPMASKSCALE@SDK_LightmappedTwoTexture@@YAXXZ 100456f0 f    CIL library: CIL module
 0001:00044720       ??__EENVMAPTINT@SDK_LightmappedTwoTexture@@YAXXZ 10045720 f    CIL library: CIL module
 0001:00044750       ??__Es_ShaderInstance@SDK_LightmappedTwoTexture@@YAXXZ 10045750 f    CIL library: CIL module
 0001:00044760       ??__Es_ShaderParams@LUMA@@YAXXZ 10045760 f    CIL library: CIL module
 0001:00044770       ??__EFRAMEBUFFER@LUMA@@YAXXZ 10045770 f    CIL library: CIL module
 0001:000447a0       ??__Es_ShaderInstance@LUMA@@YAXXZ 100457a0 f    CIL library: CIL module
 0001:000447f0       ??__Es_ShaderParams@Negative@@YAXXZ 100457f0 f    CIL library: CIL module
 0001:00044800       ??__EFBTEXTURE@Negative@@YAXXZ 10045800 f    CIL library: CIL module
 0001:00044830       ??__Es_ShaderInstance@Negative@@YAXXZ 10045830 f    CIL library: CIL module
 0001:00044880       ??__Es_ShaderParams@Nightvision@@YAXXZ 10045880 f    CIL library: CIL module
 0001:00044890       ??__EFBTEXTURE@Nightvision@@YAXXZ 10045890 f    CIL library: CIL module
 0001:000448c0       ??__EFINENOISETEX@Nightvision@@YAXXZ 100458c0 f    CIL library: CIL module
 0001:000448f0       ??__ESPECTRUMTEX@Nightvision@@YAXXZ 100458f0 f    CIL library: CIL module
 0001:00044920       ??__Es_ShaderInstance@Nightvision@@YAXXZ 10045920 f    CIL library: CIL module
 0001:00044970       ??__Es_ShaderParams@Noise@@YAXXZ 10045970 f    CIL library: CIL module
 0001:00044980       ??__EFBTEXTURE@Noise@@YAXXZ 10045980 f    CIL library: CIL module
 0001:000449b0       ??__ENOISE_INTENSITY@Noise@@YAXXZ 100459b0 f    CIL library: CIL module
 0001:000449e0       ??__ESCAN_INTENSITY@Noise@@YAXXZ 100459e0 f    CIL library: CIL module
 0001:00044a10       ??__ESCAN_AMOUNT@Noise@@YAXXZ 10045a10 f    CIL library: CIL module
 0001:00044a40       ??__ENOISE_SATURATION@Noise@@YAXXZ 10045a40 f    CIL library: CIL module
 0001:00044a70       ??__ENOISE_BRIGHTNESS@Noise@@YAXXZ 10045a70 f    CIL library: CIL module
 0001:00044aa0       ??__ESHOW_GRAIN_CONTROL@Noise@@YAXXZ 10045aa0 f    CIL library: CIL module
 0001:00044ad0       ??__Es_ShaderInstance@Noise@@YAXXZ 10045ad0 f    CIL library: CIL module
 0001:00044b20       ??__Es_ShaderParams@RadialGaussianX@@YAXXZ 10045b20 f    CIL library: CIL module
 0001:00044b30       ??__EFBTEXTURE@RadialGaussianX@@YAXXZ 10045b30 f    CIL library: CIL module
 0001:00044b60       ??__EBLURSIZE@RadialGaussianX@@YAXXZ 10045b60 f    CIL library: CIL module
 0001:00044b90       ??__ERESDIVISOR@RadialGaussianX@@YAXXZ 10045b90 f    CIL library: CIL module
 0001:00044bc0       ??__Es_ShaderInstance@RadialGaussianX@@YAXXZ 10045bc0 f    CIL library: CIL module
 0001:00044c10       ??__Es_ShaderParams@RadialGaussianY@@YAXXZ 10045c10 f    CIL library: CIL module
 0001:00044c20       ??__EFBTEXTURE@RadialGaussianY@@YAXXZ 10045c20 f    CIL library: CIL module
 0001:00044c50       ??__EBLURSIZE@RadialGaussianY@@YAXXZ 10045c50 f    CIL library: CIL module
 0001:00044c80       ??__ERESDIVISOR@RadialGaussianY@@YAXXZ 10045c80 f    CIL library: CIL module
 0001:00044cb0       ??__Es_ShaderInstance@RadialGaussianY@@YAXXZ 10045cb0 f    CIL library: CIL module
 0001:00044d00       ??__Es_ShaderParams@Radial_Blur@@YAXXZ 10045d00 f    CIL library: CIL module
 0001:00044d10       ??__EFBTEXTURE@Radial_Blur@@YAXXZ 10045d10 f    CIL library: CIL module
 0001:00044d40       ??__EBLURSTART@Radial_Blur@@YAXXZ 10045d40 f    CIL library: CIL module
 0001:00044d70       ??__EBLURWIDTH@Radial_Blur@@YAXXZ 10045d70 f    CIL library: CIL module
 0001:00044da0       ??__EgCX@Radial_Blur@@YAXXZ 10045da0 f    CIL library: CIL module
 0001:00044dd0       ??__EgCY@Radial_Blur@@YAXXZ 10045dd0 f    CIL library: CIL module
 0001:00044e00       ??__ETEXELOFFSETS@Radial_Blur@@YAXXZ 10045e00 f    CIL library: CIL module
 0001:00044e30       ??__Es_ShaderInstance@Radial_Blur@@YAXXZ 10045e30 f    CIL library: CIL module
 0001:00044e80       ??__Es_ShaderParams@SDK_Refract@@YAXXZ 10045e80 f    CIL library: CIL module
 0001:00044e90       ??__Es_ShaderInstance@SDK_Refract@@YAXXZ 10045e90 f    CIL library: CIL module
 0001:00044ea0       ??__Es_ShaderParams@SDK_Refract_DX90@@YAXXZ 10045ea0 f    CIL library: CIL module
 0001:00044eb0       ??__ECOLOR@SDK_Refract_DX90@@YAXXZ 10045eb0 f    CIL library: CIL module
 0001:00044ec0       ??__EALPHA@SDK_Refract_DX90@@YAXXZ 10045ec0 f    CIL library: CIL module
 0001:00044ed0       ??__EREFRACTAMOUNT@SDK_Refract_DX90@@YAXXZ 10045ed0 f    CIL library: CIL module
 0001:00044f00       ??__EREFRACTTINT@SDK_Refract_DX90@@YAXXZ 10045f00 f    CIL library: CIL module
 0001:00044f30       ??__ENORMALMAP@SDK_Refract_DX90@@YAXXZ 10045f30 f    CIL library: CIL module
 0001:00044f60       ??__ENORMALMAP2@SDK_Refract_DX90@@YAXXZ 10045f60 f    CIL library: CIL module
 0001:00044f90       ??__EBUMPFRAME@SDK_Refract_DX90@@YAXXZ 10045f90 f    CIL library: CIL module
 0001:00044fc0       ??__EBUMPFRAME2@SDK_Refract_DX90@@YAXXZ 10045fc0 f    CIL library: CIL module
 0001:00044ff0       ??__EBUMPTRANSFORM@SDK_Refract_DX90@@YAXXZ 10045ff0 f    CIL library: CIL module
 0001:00045020       ??__EBUMPTRANSFORM2@SDK_Refract_DX90@@YAXXZ 10046020 f    CIL library: CIL module
 0001:00045050       ??__ETIME@SDK_Refract_DX90@@YAXXZ 10046050 f    CIL library: CIL module
 0001:00045080       ??__EBLURAMOUNT@SDK_Refract_DX90@@YAXXZ 10046080 f    CIL library: CIL module
 0001:000450b0       ??__EFADEOUTONSILHOUETTE@SDK_Refract_DX90@@YAXXZ 100460b0 f    CIL library: CIL module
 0001:000450e0       ??__EENVMAP@SDK_Refract_DX90@@YAXXZ 100460e0 f    CIL library: CIL module
 0001:00045110       ??__EENVMAPFRAME@SDK_Refract_DX90@@YAXXZ 10046110 f    CIL library: CIL module
 0001:00045140       ??__EENVMAPTINT@SDK_Refract_DX90@@YAXXZ 10046140 f    CIL library: CIL module
 0001:00045170       ??__EENVMAPCONTRAST@SDK_Refract_DX90@@YAXXZ 10046170 f    CIL library: CIL module
 0001:000451a0       ??__EENVMAPSATURATION@SDK_Refract_DX90@@YAXXZ 100461a0 f    CIL library: CIL module
 0001:000451d0       ??__EREFRACTTINTTEXTURE@SDK_Refract_DX90@@YAXXZ 100461d0 f    CIL library: CIL module
 0001:00045200       ??__EREFRACTTINTTEXTUREFRAME@SDK_Refract_DX90@@YAXXZ 10046200 f    CIL library: CIL module
 0001:00045230       ??__EFRESNELREFLECTION@SDK_Refract_DX90@@YAXXZ 10046230 f    CIL library: CIL module
 0001:00045260       ??__ENOWRITEZ@SDK_Refract_DX90@@YAXXZ 10046260 f    CIL library: CIL module
 0001:00045290       ??__EMASKED@SDK_Refract_DX90@@YAXXZ 10046290 f    CIL library: CIL module
 0001:000452c0       ??__EVERTEXCOLORMODULATE@SDK_Refract_DX90@@YAXXZ 100462c0 f    CIL library: CIL module
 0001:000452f0       ??__ECHROMATIC@SDK_Refract_DX90@@YAXXZ 100462f0 f    CIL library: CIL module
 0001:00045320       ??__ECHROMATICSCALE@SDK_Refract_DX90@@YAXXZ 10046320 f    CIL library: CIL module
 0001:00045350       ??__Es_ShaderInstance@SDK_Refract_DX90@@YAXXZ 10046350 f    CIL library: CIL module
 0001:000453a0       ??__Es_ShaderParams@SDK_screenspace_general@@YAXXZ 100463a0 f    CIL library: CIL module
 0001:000453b0       ??__Es_ShaderInstance@SDK_screenspace_general@@YAXXZ 100463b0 f    CIL library: CIL module
 0001:000453c0       ??__Es_ShaderParams@SDK_screenspace_general_dx9@@YAXXZ 100463c0 f    CIL library: CIL module
 0001:000453d0       ??__EC0_X@SDK_screenspace_general_dx9@@YAXXZ 100463d0 f    CIL library: CIL module
 0001:00045400       ??__EC0_Y@SDK_screenspace_general_dx9@@YAXXZ 10046400 f    CIL library: CIL module
 0001:00045430       ??__EC0_Z@SDK_screenspace_general_dx9@@YAXXZ 10046430 f    CIL library: CIL module
 0001:00045460       ??__EC0_W@SDK_screenspace_general_dx9@@YAXXZ 10046460 f    CIL library: CIL module
 0001:00045490       ??__EC1_X@SDK_screenspace_general_dx9@@YAXXZ 10046490 f    CIL library: CIL module
 0001:000454c0       ??__EC1_Y@SDK_screenspace_general_dx9@@YAXXZ 100464c0 f    CIL library: CIL module
 0001:000454f0       ??__EC1_Z@SDK_screenspace_general_dx9@@YAXXZ 100464f0 f    CIL library: CIL module
 0001:00045520       ??__EC1_W@SDK_screenspace_general_dx9@@YAXXZ 10046520 f    CIL library: CIL module
 0001:00045550       ??__EC2_X@SDK_screenspace_general_dx9@@YAXXZ 10046550 f    CIL library: CIL module
 0001:00045580       ??__EC2_Y@SDK_screenspace_general_dx9@@YAXXZ 10046580 f    CIL library: CIL module
 0001:000455b0       ??__EC2_Z@SDK_screenspace_general_dx9@@YAXXZ 100465b0 f    CIL library: CIL module
 0001:000455e0       ??__EC2_W@SDK_screenspace_general_dx9@@YAXXZ 100465e0 f    CIL library: CIL module
 0001:00045610       ??__EC3_X@SDK_screenspace_general_dx9@@YAXXZ 10046610 f    CIL library: CIL module
 0001:00045640       ??__EC3_Y@SDK_screenspace_general_dx9@@YAXXZ 10046640 f    CIL library: CIL module
 0001:00045670       ??__EC3_Z@SDK_screenspace_general_dx9@@YAXXZ 10046670 f    CIL library: CIL module
 0001:000456a0       ??__EC3_W@SDK_screenspace_general_dx9@@YAXXZ 100466a0 f    CIL library: CIL module
 0001:000456d0       ??__EPIXSHADER@SDK_screenspace_general_dx9@@YAXXZ 100466d0 f    CIL library: CIL module
 0001:00045700       ??__EDISABLE_COLOR_WRITES@SDK_screenspace_general_dx9@@YAXXZ 10046700 f    CIL library: CIL module
 0001:00045730       ??__EALPHATESTED@SDK_screenspace_general_dx9@@YAXXZ 10046730 f    CIL library: CIL module
 0001:00045760       ??__ETEXTURE1@SDK_screenspace_general_dx9@@YAXXZ 10046760 f    CIL library: CIL module
 0001:00045790       ??__ETEXTURE2@SDK_screenspace_general_dx9@@YAXXZ 10046790 f    CIL library: CIL module
 0001:000457c0       ??__ETEXTURE3@SDK_screenspace_general_dx9@@YAXXZ 100467c0 f    CIL library: CIL module
 0001:000457f0       ??__ELINEARREAD_BASETEXTURE@SDK_screenspace_general_dx9@@YAXXZ 100467f0 f    CIL library: CIL module
 0001:00045820       ??__ELINEARREAD_TEXTURE1@SDK_screenspace_general_dx9@@YAXXZ 10046820 f    CIL library: CIL module
 0001:00045850       ??__ELINEARREAD_TEXTURE2@SDK_screenspace_general_dx9@@YAXXZ 10046850 f    CIL library: CIL module
 0001:00045880       ??__ELINEARREAD_TEXTURE3@SDK_screenspace_general_dx9@@YAXXZ 10046880 f    CIL library: CIL module
 0001:000458b0       ??__ELINEARWRITE@SDK_screenspace_general_dx9@@YAXXZ 100468b0 f    CIL library: CIL module
 0001:000458e0       ??__EX360APPCHOOSER@SDK_screenspace_general_dx9@@YAXXZ 100468e0 f    CIL library: CIL module
 0001:00045910       ??__Es_ShaderInstance@SDK_screenspace_general_dx9@@YAXXZ 10046910 f    CIL library: CIL module
 0001:00045960       ??__Es_ShaderParams@ScreenWater@@YAXXZ 10046960 f    CIL library: CIL module
 0001:00045970       ??__EFBTEXTURE@ScreenWater@@YAXXZ 10046970 f    CIL library: CIL module
 0001:000459a0       ??__ENORMALTEXTURE@ScreenWater@@YAXXZ 100469a0 f    CIL library: CIL module
 0001:000459d0       ??__EAMOUNT@ScreenWater@@YAXXZ 100469d0 f    CIL library: CIL module
 0001:00045a00       ??__EVISCOSITY@ScreenWater@@YAXXZ 10046a00 f    CIL library: CIL module
 0001:00045a30       ??__Es_ShaderInstance@ScreenWater@@YAXXZ 10046a30 f    CIL library: CIL module
 0001:00045a80       ??__Es_ShaderParams@Sepia@@YAXXZ 10046a80 f    CIL library: CIL module
 0001:00045a90       ??__EFBTEXTURE@Sepia@@YAXXZ 10046a90 f    CIL library: CIL module
 0001:00045ac0       ??__Es_ShaderInstance@Sepia@@YAXXZ 10046ac0 f    CIL library: CIL module
 0001:00045b10       ??__Emat_fullbright@@YAXXZ 10046b10 f    CIL library: CIL module
 0001:00045b40       ??__Er_lightwarpidentity@@YAXXZ 10046b40 f    CIL library: CIL module
 0001:00045b70       ??__Er_rimlight@@YAXXZ     10046b70 f    CIL library: CIL module
 0001:00045ba0       ??__Es_ShaderParams@SDK_Spritecard@@YAXXZ 10046ba0 f    CIL library: CIL module
 0001:00045bb0       ??__EDEPTHBLEND@SDK_Spritecard@@YAXXZ 10046bb0 f    CIL library: CIL module
 0001:00045be0       ??__EDEPTHBLENDSCALE@SDK_Spritecard@@YAXXZ 10046be0 f    CIL library: CIL module
 0001:00045c10       ??__EORIENTATION@SDK_Spritecard@@YAXXZ 10046c10 f    CIL library: CIL module
 0001:00045c40       ??__EADDBASETEXTURE2@SDK_Spritecard@@YAXXZ 10046c40 f    CIL library: CIL module
 0001:00045c70       ??__EOVERBRIGHTFACTOR@SDK_Spritecard@@YAXXZ 10046c70 f    CIL library: CIL module
 0001:00045ca0       ??__EDUALSEQUENCE@SDK_Spritecard@@YAXXZ 10046ca0 f    CIL library: CIL module
 0001:00045cd0       ??__ESEQUENCE_BLEND_MODE@SDK_Spritecard@@YAXXZ 10046cd0 f    CIL library: CIL module
 0001:00045d00       ??__EMAXLUMFRAMEBLEND1@SDK_Spritecard@@YAXXZ 10046d00 f    CIL library: CIL module
 0001:00045d30       ??__EMAXLUMFRAMEBLEND2@SDK_Spritecard@@YAXXZ 10046d30 f    CIL library: CIL module
 0001:00045d60       ??__ERAMPTEXTURE@SDK_Spritecard@@YAXXZ 10046d60 f    CIL library: CIL module
 0001:00045d90       ??__EZOOMANIMATESEQ2@SDK_Spritecard@@YAXXZ 10046d90 f    CIL library: CIL module
 0001:00045dc0       ??__EEXTRACTGREENALPHA@SDK_Spritecard@@YAXXZ 10046dc0 f    CIL library: CIL module
 0001:00045df0       ??__EADDOVERBLEND@SDK_Spritecard@@YAXXZ 10046df0 f    CIL library: CIL module
 0001:00045e20       ??__EADDSELF@SDK_Spritecard@@YAXXZ 10046e20 f    CIL library: CIL module
 0001:00045e50       ??__EBLENDFRAMES@SDK_Spritecard@@YAXXZ 10046e50 f    CIL library: CIL module
 0001:00045e80       ??__EMINSIZE@SDK_Spritecard@@YAXXZ 10046e80 f    CIL library: CIL module
 0001:00045eb0       ??__ESTARTFADESIZE@SDK_Spritecard@@YAXXZ 10046eb0 f    CIL library: CIL module
 0001:00045ee0       ??__EENDFADESIZE@SDK_Spritecard@@YAXXZ 10046ee0 f    CIL library: CIL module
 0001:00045f10       ??__EMAXSIZE@SDK_Spritecard@@YAXXZ 10046f10 f    CIL library: CIL module
 0001:00045f40       ??__EUSEINSTANCING@SDK_Spritecard@@YAXXZ 10046f40 f    CIL library: CIL module
 0001:00045f70       ??__ESPLINETYPE@SDK_Spritecard@@YAXXZ 10046f70 f    CIL library: CIL module
 0001:00045fa0       ??__EMAXDISTANCE@SDK_Spritecard@@YAXXZ 10046fa0 f    CIL library: CIL module
 0001:00045fd0       ??__EFARFADEINTERVAL@SDK_Spritecard@@YAXXZ 10046fd0 f    CIL library: CIL module
 0001:00046000       ??__Es_ShaderInstance@SDK_Spritecard@@YAXXZ 10047000 f    CIL library: CIL module
 0001:00046050       ??__Es_ShaderParams@SDK_Teeth@@YAXXZ 10047050 f    CIL library: CIL module
 0001:00046060       ??__Es_ShaderInstance@SDK_Teeth@@YAXXZ 10047060 f    CIL library: CIL module
 0001:00046070       ??__Es_ShaderParams@SDK_Teeth_DX9@@YAXXZ 10047070 f    CIL library: CIL module
 0001:00046080       ??__EILLUMFACTOR@SDK_Teeth_DX9@@YAXXZ 10047080 f    CIL library: CIL module
 0001:000460b0       ??__EFORWARD@SDK_Teeth_DX9@@YAXXZ 100470b0 f    CIL library: CIL module
 0001:000460e0       ??__EBUMPMAP@SDK_Teeth_DX9@@YAXXZ 100470e0 f    CIL library: CIL module
 0001:00046110       ??__EPHONGEXPONENT@SDK_Teeth_DX9@@YAXXZ 10047110 f    CIL library: CIL module
 0001:00046140       ??__EINTRO@SDK_Teeth_DX9@@YAXXZ 10047140 f    CIL library: CIL module
 0001:00046170       ??__EENTITYORIGIN@SDK_Teeth_DX9@@YAXXZ 10047170 f    CIL library: CIL module
 0001:000461a0       ??__EWARPPARAM@SDK_Teeth_DX9@@YAXXZ 100471a0 f    CIL library: CIL module
 0001:000461d0       ??__Es_ShaderInstance@SDK_Teeth_DX9@@YAXXZ 100471d0 f    CIL library: CIL module
 0001:00046220       ??__Es_ShaderParams@SDK_UnlitGeneric@@YAXXZ 10047220 f    CIL library: CIL module
 0001:00046230       ??__EALBEDO@SDK_UnlitGeneric@@YAXXZ 10047230 f    CIL library: CIL module
 0001:00046260       ??__EDETAIL@SDK_UnlitGeneric@@YAXXZ 10047260 f    CIL library: CIL module
 0001:00046290       ??__EDETAILFRAME@SDK_UnlitGeneric@@YAXXZ 10047290 f    CIL library: CIL module
 0001:000462c0       ??__EDETAILSCALE@SDK_UnlitGeneric@@YAXXZ 100472c0 f    CIL library: CIL module
 0001:000462f0       ??__EENVMAP@SDK_UnlitGeneric@@YAXXZ 100472f0 f    CIL library: CIL module
 0001:00046320       ??__EENVMAPFRAME@SDK_UnlitGeneric@@YAXXZ 10047320 f    CIL library: CIL module
 0001:00046350       ??__EENVMAPMASK@SDK_UnlitGeneric@@YAXXZ 10047350 f    CIL library: CIL module
 0001:00046380       ??__EENVMAPMASKFRAME@SDK_UnlitGeneric@@YAXXZ 10047380 f    CIL library: CIL module
 0001:000463b0       ??__EENVMAPMASKTRANSFORM@SDK_UnlitGeneric@@YAXXZ 100473b0 f    CIL library: CIL module
 0001:000463e0       ??__EENVMAPTINT@SDK_UnlitGeneric@@YAXXZ 100473e0 f    CIL library: CIL module
 0001:00046410       ??__EENVMAPCONTRAST@SDK_UnlitGeneric@@YAXXZ 10047410 f    CIL library: CIL module
 0001:00046440       ??__EENVMAPSATURATION@SDK_UnlitGeneric@@YAXXZ 10047440 f    CIL library: CIL module
 0001:00046470       ??__EALPHATESTREFERENCE@SDK_UnlitGeneric@@YAXXZ 10047470 f    CIL library: CIL module
 0001:000464a0       ??__EVERTEXALPHATEST@SDK_UnlitGeneric@@YAXXZ 100474a0 f    CIL library: CIL module
 0001:000464d0       ??__EHDRCOLORSCALE@SDK_UnlitGeneric@@YAXXZ 100474d0 f    CIL library: CIL module
 0001:00046500       ??__EPHONGEXPONENT@SDK_UnlitGeneric@@YAXXZ 10047500 f    CIL library: CIL module
 0001:00046530       ??__EPHONGTINT@SDK_UnlitGeneric@@YAXXZ 10047530 f    CIL library: CIL module
 0001:00046560       ??__EPHONGALBEDOTINT@SDK_UnlitGeneric@@YAXXZ 10047560 f    CIL library: CIL module
 0001:00046590       ??__ELIGHTWARPTEXTURE@SDK_UnlitGeneric@@YAXXZ 10047590 f    CIL library: CIL module
 0001:000465c0       ??__EPHONGWARPTEXTURE@SDK_UnlitGeneric@@YAXXZ 100475c0 f    CIL library: CIL module
 0001:000465f0       ??__EPHONGFRESNELRANGES@SDK_UnlitGeneric@@YAXXZ 100475f0 f    CIL library: CIL module
 0001:00046620       ??__EPHONGBOOST@SDK_UnlitGeneric@@YAXXZ 10047620 f    CIL library: CIL module
 0001:00046650       ??__EPHONGEXPONENTTEXTURE@SDK_UnlitGeneric@@YAXXZ 10047650 f    CIL library: CIL module
 0001:00046680       ??__EPHONG@SDK_UnlitGeneric@@YAXXZ 10047680 f    CIL library: CIL module
 0001:000466b0       ??__EDETAILBLENDMODE@SDK_UnlitGeneric@@YAXXZ 100476b0 f    CIL library: CIL module
 0001:000466e0       ??__EDETAILBLENDFACTOR@SDK_UnlitGeneric@@YAXXZ 100476e0 f    CIL library: CIL module
 0001:00046710       ??__EDETAILTEXTURETRANSFORM@SDK_UnlitGeneric@@YAXXZ 10047710 f    CIL library: CIL module
 0001:00046740       ??__ESELFILLUMMASK@SDK_UnlitGeneric@@YAXXZ 10047740 f    CIL library: CIL module
 0001:00046770       ??__EDISTANCEALPHA@SDK_UnlitGeneric@@YAXXZ 10047770 f    CIL library: CIL module
 0001:000467a0       ??__EDISTANCEALPHAFROMDETAIL@SDK_UnlitGeneric@@YAXXZ 100477a0 f    CIL library: CIL module
 0001:000467d0       ??__ESOFTEDGES@SDK_UnlitGeneric@@YAXXZ 100477d0 f    CIL library: CIL module
 0001:00046800       ??__ESCALEEDGESOFTNESSBASEDONSCREENRES@SDK_UnlitGeneric@@YAXXZ 10047800 f    CIL library: CIL module
 0001:00046830       ??__EEDGESOFTNESSSTART@SDK_UnlitGeneric@@YAXXZ 10047830 f    CIL library: CIL module
 0001:00046860       ??__EEDGESOFTNESSEND@SDK_UnlitGeneric@@YAXXZ 10047860 f    CIL library: CIL module
 0001:00046890       ??__EGLOW@SDK_UnlitGeneric@@YAXXZ 10047890 f    CIL library: CIL module
 0001:000468c0       ??__EGLOWCOLOR@SDK_UnlitGeneric@@YAXXZ 100478c0 f    CIL library: CIL module
 0001:000468f0       ??__EGLOWALPHA@SDK_UnlitGeneric@@YAXXZ 100478f0 f    CIL library: CIL module
 0001:00046920       ??__EGLOWSTART@SDK_UnlitGeneric@@YAXXZ 10047920 f    CIL library: CIL module
 0001:00046950       ??__EGLOWEND@SDK_UnlitGeneric@@YAXXZ 10047950 f    CIL library: CIL module
 0001:00046980       ??__EGLOWX@SDK_UnlitGeneric@@YAXXZ 10047980 f    CIL library: CIL module
 0001:000469b0       ??__EGLOWY@SDK_UnlitGeneric@@YAXXZ 100479b0 f    CIL library: CIL module
 0001:000469e0       ??__EOUTLINE@SDK_UnlitGeneric@@YAXXZ 100479e0 f    CIL library: CIL module
 0001:00046a10       ??__EOUTLINECOLOR@SDK_UnlitGeneric@@YAXXZ 10047a10 f    CIL library: CIL module
 0001:00046a40       ??__EOUTLINEALPHA@SDK_UnlitGeneric@@YAXXZ 10047a40 f    CIL library: CIL module
 0001:00046a70       ??__EOUTLINESTART0@SDK_UnlitGeneric@@YAXXZ 10047a70 f    CIL library: CIL module
 0001:00046aa0       ??__EOUTLINESTART1@SDK_UnlitGeneric@@YAXXZ 10047aa0 f    CIL library: CIL module
 0001:00046ad0       ??__EOUTLINEEND0@SDK_UnlitGeneric@@YAXXZ 10047ad0 f    CIL library: CIL module
 0001:00046b00       ??__EOUTLINEEND1@SDK_UnlitGeneric@@YAXXZ 10047b00 f    CIL library: CIL module
 0001:00046b30       ??__ESCALEOUTLINESOFTNESSBASEDONSCREENRES@SDK_UnlitGeneric@@YAXXZ 10047b30 f    CIL library: CIL module
 0001:00046b60       ??__ESEPARATEDETAILUVS@SDK_UnlitGeneric@@YAXXZ 10047b60 f    CIL library: CIL module
 0001:00046b90       ??__EGAMMACOLORREAD@SDK_UnlitGeneric@@YAXXZ 10047b90 f    CIL library: CIL module
 0001:00046bc0       ??__ELINEARWRITE@SDK_UnlitGeneric@@YAXXZ 10047bc0 f    CIL library: CIL module
 0001:00046bf0       ??__EDEPTHBLEND@SDK_UnlitGeneric@@YAXXZ 10047bf0 f    CIL library: CIL module
 0001:00046c20       ??__EDEPTHBLENDSCALE@SDK_UnlitGeneric@@YAXXZ 10047c20 f    CIL library: CIL module
 0001:00046c50       ??__ERECEIVEFLASHLIGHT@SDK_UnlitGeneric@@YAXXZ 10047c50 f    CIL library: CIL module
 0001:00046c80       ??__Es_ShaderInstance@SDK_UnlitGeneric@@YAXXZ 10047c80 f    CIL library: CIL module
 0001:00046cd0       ??__Es_ShaderParams@SDK_UnlitTwoTexture@@YAXXZ 10047cd0 f    CIL library: CIL module
 0001:00046ce0       ??__Es_ShaderInstance@SDK_UnlitTwoTexture@@YAXXZ 10047ce0 f    CIL library: CIL module
 0001:00046cf0       ??__Es_ShaderParams@SDK_UnlitTwoTexture_DX9@@YAXXZ 10047cf0 f    CIL library: CIL module
 0001:00046d00       ??__ETEXTURE2@SDK_UnlitTwoTexture_DX9@@YAXXZ 10047d00 f    CIL library: CIL module
 0001:00046d30       ??__EFRAME2@SDK_UnlitTwoTexture_DX9@@YAXXZ 10047d30 f    CIL library: CIL module
 0001:00046d60       ??__ETEXTURE2TRANSFORM@SDK_UnlitTwoTexture_DX9@@YAXXZ 10047d60 f    CIL library: CIL module
 0001:00046d90       ??__ECLOAKPASSENABLED@SDK_UnlitTwoTexture_DX9@@YAXXZ 10047d90 f    CIL library: CIL module
 0001:00046dc0       ??__ECLOAKFACTOR@SDK_UnlitTwoTexture_DX9@@YAXXZ 10047dc0 f    CIL library: CIL module
 0001:00046df0       ??__ECLOAKCOLORTINT@SDK_UnlitTwoTexture_DX9@@YAXXZ 10047df0 f    CIL library: CIL module
 0001:00046e20       ??__EREFRACTAMOUNT@SDK_UnlitTwoTexture_DX9@@YAXXZ 10047e20 f    CIL library: CIL module
 0001:00046e50       ??__Es_ShaderInstance@SDK_UnlitTwoTexture_DX9@@YAXXZ 10047e50 f    CIL library: CIL module
 0001:00046ea0       ??__Es_ShaderParams@Unsharp@@YAXXZ 10047ea0 f    CIL library: CIL module
 0001:00046eb0       ??__EFBTEXTURE@Unsharp@@YAXXZ 10047eb0 f    CIL library: CIL module
 0001:00046ee0       ??__EFBBLURTEXTURE@Unsharp@@YAXXZ 10047ee0 f    CIL library: CIL module
 0001:00046f10       ??__EUNSHARPSTRENGTH@Unsharp@@YAXXZ 10047f10 f    CIL library: CIL module
 0001:00046f40       ??__EBLURSIZE@Unsharp@@YAXXZ 10047f40 f    CIL library: CIL module
 0001:00046f70       ??__Es_ShaderInstance@Unsharp@@YAXXZ 10047f70 f    CIL library: CIL module
 0001:00046fc0       ??__Es_ShaderParams@Unsharp_Blur@@YAXXZ 10047fc0 f    CIL library: CIL module
 0001:00046fd0       ??__EFBTEXTURE@Unsharp_Blur@@YAXXZ 10047fd0 f    CIL library: CIL module
 0001:00047000       ??__EBLURSIZE@Unsharp_Blur@@YAXXZ 10048000 f    CIL library: CIL module
 0001:00047030       ??__Es_ShaderInstance@Unsharp_Blur@@YAXXZ 10048030 f    CIL library: CIL module
 0001:00047080       ??__Es_ShaderParams@SDK_VertexLitGeneric@@YAXXZ 10048080 f    CIL library: CIL module
 0001:00047090       ??__EALBEDO@SDK_VertexLitGeneric@@YAXXZ 10048090 f    CIL library: CIL module
 0001:000470c0       ??__ECOMPRESS@SDK_VertexLitGeneric@@YAXXZ 100480c0 f    CIL library: CIL module
 0001:000470f0       ??__ESTRETCH@SDK_VertexLitGeneric@@YAXXZ 100480f0 f    CIL library: CIL module
 0001:00047120       ??__ESELFILLUMTINT@SDK_VertexLitGeneric@@YAXXZ 10048120 f    CIL library: CIL module
 0001:00047150       ??__EDETAIL@SDK_VertexLitGeneric@@YAXXZ 10048150 f    CIL library: CIL module
 0001:00047180       ??__EDETAILFRAME@SDK_VertexLitGeneric@@YAXXZ 10048180 f    CIL library: CIL module
 0001:000471b0       ??__EDETAILSCALE@SDK_VertexLitGeneric@@YAXXZ 100481b0 f    CIL library: CIL module
 0001:000471e0       ??__EENVMAP@SDK_VertexLitGeneric@@YAXXZ 100481e0 f    CIL library: CIL module
 0001:00047210       ??__EENVMAPFRAME@SDK_VertexLitGeneric@@YAXXZ 10048210 f    CIL library: CIL module
 0001:00047240       ??__EENVMAPMASK@SDK_VertexLitGeneric@@YAXXZ 10048240 f    CIL library: CIL module
 0001:00047270       ??__EENVMAPMASKFRAME@SDK_VertexLitGeneric@@YAXXZ 10048270 f    CIL library: CIL module
 0001:000472a0       ??__EENVMAPMASKTRANSFORM@SDK_VertexLitGeneric@@YAXXZ 100482a0 f    CIL library: CIL module
 0001:000472d0       ??__EENVMAPTINT@SDK_VertexLitGeneric@@YAXXZ 100482d0 f    CIL library: CIL module
 0001:00047300       ??__EBUMPMAP@SDK_VertexLitGeneric@@YAXXZ 10048300 f    CIL library: CIL module
 0001:00047330       ??__EBUMPCOMPRESS@SDK_VertexLitGeneric@@YAXXZ 10048330 f    CIL library: CIL module
 0001:00047360       ??__EBUMPSTRETCH@SDK_VertexLitGeneric@@YAXXZ 10048360 f    CIL library: CIL module
 0001:00047390       ??__EBUMPFRAME@SDK_VertexLitGeneric@@YAXXZ 10048390 f    CIL library: CIL module
 0001:000473c0       ??__EBUMPTRANSFORM@SDK_VertexLitGeneric@@YAXXZ 100483c0 f    CIL library: CIL module
 0001:000473f0       ??__EENVMAPCONTRAST@SDK_VertexLitGeneric@@YAXXZ 100483f0 f    CIL library: CIL module
 0001:00047420       ??__EENVMAPSATURATION@SDK_VertexLitGeneric@@YAXXZ 10048420 f    CIL library: CIL module
 0001:00047450       ??__ESELFILLUM_ENVMAPMASK_ALPHA@SDK_VertexLitGeneric@@YAXXZ 10048450 f    CIL library: CIL module
 0001:00047480       ??__ESELFILLUMFRESNEL@SDK_VertexLitGeneric@@YAXXZ 10048480 f    CIL library: CIL module
 0001:000474b0       ??__ESELFILLUMFRESNELMINMAXEXP@SDK_VertexLitGeneric@@YAXXZ 100484b0 f    CIL library: CIL module
 0001:000474e0       ??__EALPHATESTREFERENCE@SDK_VertexLitGeneric@@YAXXZ 100484e0 f    CIL library: CIL module
 0001:00047510       ??__EFLASHLIGHTNOLAMBERT@SDK_VertexLitGeneric@@YAXXZ 10048510 f    CIL library: CIL module
 0001:00047540       ??__EAMBIENTONLY@SDK_VertexLitGeneric@@YAXXZ 10048540 f    CIL library: CIL module
 0001:00047570       ??__EPHONGEXPONENT@SDK_VertexLitGeneric@@YAXXZ 10048570 f    CIL library: CIL module
 0001:000475a0       ??__EPHONGTINT@SDK_VertexLitGeneric@@YAXXZ 100485a0 f    CIL library: CIL module
 0001:000475d0       ??__EPHONGALBEDOTINT@SDK_VertexLitGeneric@@YAXXZ 100485d0 f    CIL library: CIL module
 0001:00047600       ??__ELIGHTWARPTEXTURE@SDK_VertexLitGeneric@@YAXXZ 10048600 f    CIL library: CIL module
 0001:00047630       ??__EPHONGWARPTEXTURE@SDK_VertexLitGeneric@@YAXXZ 10048630 f    CIL library: CIL module
 0001:00047660       ??__EPHONGFRESNELRANGES@SDK_VertexLitGeneric@@YAXXZ 10048660 f    CIL library: CIL module
 0001:00047690       ??__EPHONGBOOST@SDK_VertexLitGeneric@@YAXXZ 10048690 f    CIL library: CIL module
 0001:000476c0       ??__EPHONGEXPONENTTEXTURE@SDK_VertexLitGeneric@@YAXXZ 100486c0 f    CIL library: CIL module
 0001:000476f0       ??__EPHONG@SDK_VertexLitGeneric@@YAXXZ 100486f0 f    CIL library: CIL module
 0001:00047720       ??__EBASEMAPALPHAPHONGMASK@SDK_VertexLitGeneric@@YAXXZ 10048720 f    CIL library: CIL module
 0001:00047750       ??__EINVERTPHONGMASK@SDK_VertexLitGeneric@@YAXXZ 10048750 f    CIL library: CIL module
 0001:00047780       ??__EENVMAPFRESNEL@SDK_VertexLitGeneric@@YAXXZ 10048780 f    CIL library: CIL module
 0001:000477b0       ??__ESELFILLUMMASK@SDK_VertexLitGeneric@@YAXXZ 100487b0 f    CIL library: CIL module
 0001:000477e0       ??__EDETAILBLENDMODE@SDK_VertexLitGeneric@@YAXXZ 100487e0 f    CIL library: CIL module
 0001:00047810       ??__EDETAILBLENDFACTOR@SDK_VertexLitGeneric@@YAXXZ 10048810 f    CIL library: CIL module
 0001:00047840       ??__EDETAILTINT@SDK_VertexLitGeneric@@YAXXZ 10048840 f    CIL library: CIL module
 0001:00047870       ??__EDETAILTEXTURETRANSFORM@SDK_VertexLitGeneric@@YAXXZ 10048870 f    CIL library: CIL module
 0001:000478a0       ??__ERIMLIGHT@SDK_VertexLitGeneric@@YAXXZ 100488a0 f    CIL library: CIL module
 0001:000478d0       ??__ERIMLIGHTEXPONENT@SDK_VertexLitGeneric@@YAXXZ 100488d0 f    CIL library: CIL module
 0001:00047900       ??__ERIMLIGHTBOOST@SDK_VertexLitGeneric@@YAXXZ 10048900 f    CIL library: CIL module
 0001:00047930       ??__ERIMMASK@SDK_VertexLitGeneric@@YAXXZ 10048930 f    CIL library: CIL module
 0001:00047960       ??__ESEAMLESS_BASE@SDK_VertexLitGeneric@@YAXXZ 10048960 f    CIL library: CIL module
 0001:00047990       ??__ESEAMLESS_DETAIL@SDK_VertexLitGeneric@@YAXXZ 10048990 f    CIL library: CIL module
 0001:000479c0       ??__ESEAMLESS_SCALE@SDK_VertexLitGeneric@@YAXXZ 100489c0 f    CIL library: CIL module
 0001:000479f0       ??__EEMISSIVEBLENDENABLED@SDK_VertexLitGeneric@@YAXXZ 100489f0 f    CIL library: CIL module
 0001:00047a20       ??__EEMISSIVEBLENDBASETEXTURE@SDK_VertexLitGeneric@@YAXXZ 10048a20 f    CIL library: CIL module
 0001:00047a50       ??__EEMISSIVEBLENDSCROLLVECTOR@SDK_VertexLitGeneric@@YAXXZ 10048a50 f    CIL library: CIL module
 0001:00047a80       ??__EEMISSIVEBLENDSTRENGTH@SDK_VertexLitGeneric@@YAXXZ 10048a80 f    CIL library: CIL module
 0001:00047ab0       ??__EEMISSIVEBLENDTEXTURE@SDK_VertexLitGeneric@@YAXXZ 10048ab0 f    CIL library: CIL module
 0001:00047ae0       ??__EEMISSIVEBLENDTINT@SDK_VertexLitGeneric@@YAXXZ 10048ae0 f    CIL library: CIL module
 0001:00047b10       ??__EEMISSIVEBLENDFLOWTEXTURE@SDK_VertexLitGeneric@@YAXXZ 10048b10 f    CIL library: CIL module
 0001:00047b40       ??__ETIME@SDK_VertexLitGeneric@@YAXXZ 10048b40 f    CIL library: CIL module
 0001:00047b70       ??__ECLOAKPASSENABLED@SDK_VertexLitGeneric@@YAXXZ 10048b70 f    CIL library: CIL module
 0001:00047ba0       ??__ECLOAKFACTOR@SDK_VertexLitGeneric@@YAXXZ 10048ba0 f    CIL library: CIL module
 0001:00047bd0       ??__ECLOAKCOLORTINT@SDK_VertexLitGeneric@@YAXXZ 10048bd0 f    CIL library: CIL module
 0001:00047c00       ??__EREFRACTAMOUNT@SDK_VertexLitGeneric@@YAXXZ 10048c00 f    CIL library: CIL module
 0001:00047c30       ??__EFLESHINTERIORENABLED@SDK_VertexLitGeneric@@YAXXZ 10048c30 f    CIL library: CIL module
 0001:00047c60       ??__EFLESHINTERIORTEXTURE@SDK_VertexLitGeneric@@YAXXZ 10048c60 f    CIL library: CIL module
 0001:00047c90       ??__EFLESHINTERIORNOISETEXTURE@SDK_VertexLitGeneric@@YAXXZ 10048c90 f    CIL library: CIL module
 0001:00047cc0       ??__EFLESHBORDERTEXTURE1D@SDK_VertexLitGeneric@@YAXXZ 10048cc0 f    CIL library: CIL module
 0001:00047cf0       ??__EFLESHNORMALTEXTURE@SDK_VertexLitGeneric@@YAXXZ 10048cf0 f    CIL library: CIL module
 0001:00047d20       ??__EFLESHSUBSURFACETEXTURE@SDK_VertexLitGeneric@@YAXXZ 10048d20 f    CIL library: CIL module
 0001:00047d50       ??__EFLESHCUBETEXTURE@SDK_VertexLitGeneric@@YAXXZ 10048d50 f    CIL library: CIL module
 0001:00047d80       ??__EFLESHBORDERNOISESCALE@SDK_VertexLitGeneric@@YAXXZ 10048d80 f    CIL library: CIL module
 0001:00047db0       ??__EFLESHDEBUGFORCEFLESHON@SDK_VertexLitGeneric@@YAXXZ 10048db0 f    CIL library: CIL module
 0001:00047de0       ??__EFLESHEFFECTCENTERRADIUS1@SDK_VertexLitGeneric@@YAXXZ 10048de0 f    CIL library: CIL module
 0001:00047e10       ??__EFLESHEFFECTCENTERRADIUS2@SDK_VertexLitGeneric@@YAXXZ 10048e10 f    CIL library: CIL module
 0001:00047e40       ??__EFLESHEFFECTCENTERRADIUS3@SDK_VertexLitGeneric@@YAXXZ 10048e40 f    CIL library: CIL module
 0001:00047e70       ??__EFLESHEFFECTCENTERRADIUS4@SDK_VertexLitGeneric@@YAXXZ 10048e70 f    CIL library: CIL module
 0001:00047ea0       ??__EFLESHSUBSURFACETINT@SDK_VertexLitGeneric@@YAXXZ 10048ea0 f    CIL library: CIL module
 0001:00047ed0       ??__EFLESHBORDERWIDTH@SDK_VertexLitGeneric@@YAXXZ 10048ed0 f    CIL library: CIL module
 0001:00047f00       ??__EFLESHBORDERSOFTNESS@SDK_VertexLitGeneric@@YAXXZ 10048f00 f    CIL library: CIL module
 0001:00047f30       ??__EFLESHBORDERTINT@SDK_VertexLitGeneric@@YAXXZ 10048f30 f    CIL library: CIL module
 0001:00047f60       ??__EFLESHGLOBALOPACITY@SDK_VertexLitGeneric@@YAXXZ 10048f60 f    CIL library: CIL module
 0001:00047f90       ??__EFLESHGLOSSBRIGHTNESS@SDK_VertexLitGeneric@@YAXXZ 10048f90 f    CIL library: CIL module
 0001:00047fc0       ??__EFLESHSCROLLSPEED@SDK_VertexLitGeneric@@YAXXZ 10048fc0 f    CIL library: CIL module
 0001:00047ff0       ??__ESEPARATEDETAILUVS@SDK_VertexLitGeneric@@YAXXZ 10048ff0 f    CIL library: CIL module
 0001:00048020       ??__ELINEARWRITE@SDK_VertexLitGeneric@@YAXXZ 10049020 f    CIL library: CIL module
 0001:00048050       ??__EDEPTHBLEND@SDK_VertexLitGeneric@@YAXXZ 10049050 f    CIL library: CIL module
 0001:00048080       ??__EDEPTHBLENDSCALE@SDK_VertexLitGeneric@@YAXXZ 10049080 f    CIL library: CIL module
 0001:000480b0       ??__Es_ShaderInstance@SDK_VertexLitGeneric@@YAXXZ 100490b0 f    CIL library: CIL module
 0001:00048100       ??__Emat_fullbright@@YAXXZ 10049100 f    CIL library: CIL module
 0001:00048130       ??__Er_lightwarpidentity@@YAXXZ 10049130 f    CIL library: CIL module
 0001:00048160       ??__Es_ShaderParams@Vignetting@@YAXXZ 10049160 f    CIL library: CIL module
 0001:00048170       ??__EFBTEXTURE@Vignetting@@YAXXZ 10049170 f    CIL library: CIL module
 0001:000481a0       ??__EVIGNETDARKNESS@Vignetting@@YAXXZ 100491a0 f    CIL library: CIL module
 0001:000481d0       ??__Es_ShaderInstance@Vignetting@@YAXXZ 100491d0 f    CIL library: CIL module
 0001:00048220       ??__Es_ShaderParams@SDK_VortWarp@@YAXXZ 10049220 f    CIL library: CIL module
 0001:00048230       ??__Es_ShaderInstance@SDK_VortWarp@@YAXXZ 10049230 f    CIL library: CIL module
 0001:00048240       ??__Es_ShaderParams@SDK_VortWarp_DX9@@YAXXZ 10049240 f    CIL library: CIL module
 0001:00048250       ??__EALBEDO@SDK_VortWarp_DX9@@YAXXZ 10049250 f    CIL library: CIL module
 0001:00048280       ??__ESELFILLUMTINT@SDK_VortWarp_DX9@@YAXXZ 10049280 f    CIL library: CIL module
 0001:000482b0       ??__EDETAIL@SDK_VortWarp_DX9@@YAXXZ 100492b0 f    CIL library: CIL module
 0001:000482e0       ??__EDETAILFRAME@SDK_VortWarp_DX9@@YAXXZ 100492e0 f    CIL library: CIL module
 0001:00048310       ??__EDETAILSCALE@SDK_VortWarp_DX9@@YAXXZ 10049310 f    CIL library: CIL module
 0001:00048340       ??__EENVMAP@SDK_VortWarp_DX9@@YAXXZ 10049340 f    CIL library: CIL module
 0001:00048370       ??__EENVMAPFRAME@SDK_VortWarp_DX9@@YAXXZ 10049370 f    CIL library: CIL module
 0001:000483a0       ??__EENVMAPMASK@SDK_VortWarp_DX9@@YAXXZ 100493a0 f    CIL library: CIL module
 0001:000483d0       ??__EENVMAPMASKFRAME@SDK_VortWarp_DX9@@YAXXZ 100493d0 f    CIL library: CIL module
 0001:00048400       ??__EENVMAPMASKTRANSFORM@SDK_VortWarp_DX9@@YAXXZ 10049400 f    CIL library: CIL module
 0001:00048430       ??__EENVMAPTINT@SDK_VortWarp_DX9@@YAXXZ 10049430 f    CIL library: CIL module
 0001:00048460       ??__EBUMPMAP@SDK_VortWarp_DX9@@YAXXZ 10049460 f    CIL library: CIL module
 0001:00048490       ??__EBUMPFRAME@SDK_VortWarp_DX9@@YAXXZ 10049490 f    CIL library: CIL module
 0001:000484c0       ??__EBUMPTRANSFORM@SDK_VortWarp_DX9@@YAXXZ 100494c0 f    CIL library: CIL module
 0001:000484f0       ??__EENVMAPCONTRAST@SDK_VortWarp_DX9@@YAXXZ 100494f0 f    CIL library: CIL module
 0001:00048520       ??__EENVMAPSATURATION@SDK_VortWarp_DX9@@YAXXZ 10049520 f    CIL library: CIL module
 0001:00048550       ??__ESELFILLUM_ENVMAPMASK_ALPHA@SDK_VortWarp_DX9@@YAXXZ 10049550 f    CIL library: CIL module
 0001:00048580       ??__EAMBIENTONLY@SDK_VortWarp_DX9@@YAXXZ 10049580 f    CIL library: CIL module
 0001:000485b0       ??__EENTITYORIGIN@SDK_VortWarp_DX9@@YAXXZ 100495b0 f    CIL library: CIL module
 0001:000485e0       ??__EWARPPARAM@SDK_VortWarp_DX9@@YAXXZ 100495e0 f    CIL library: CIL module
 0001:00048610       ??__EFLOWMAP@SDK_VortWarp_DX9@@YAXXZ 10049610 f    CIL library: CIL module
 0001:00048640       ??__ESELFILLUMMAP@SDK_VortWarp_DX9@@YAXXZ 10049640 f    CIL library: CIL module
 0001:00048670       ??__EUNLIT@SDK_VortWarp_DX9@@YAXXZ 10049670 f    CIL library: CIL module
 0001:000486a0       ??__EPHONGEXPONENT@SDK_VortWarp_DX9@@YAXXZ 100496a0 f    CIL library: CIL module
 0001:000486d0       ??__EPHONGTINT@SDK_VortWarp_DX9@@YAXXZ 100496d0 f    CIL library: CIL module
 0001:00048700       ??__EPHONGALBEDOTINT@SDK_VortWarp_DX9@@YAXXZ 10049700 f    CIL library: CIL module
 0001:00048730       ??__ELIGHTWARPTEXTURE@SDK_VortWarp_DX9@@YAXXZ 10049730 f    CIL library: CIL module
 0001:00048760       ??__EPHONGWARPTEXTURE@SDK_VortWarp_DX9@@YAXXZ 10049760 f    CIL library: CIL module
 0001:00048790       ??__EPHONGFRESNELRANGES@SDK_VortWarp_DX9@@YAXXZ 10049790 f    CIL library: CIL module
 0001:000487c0       ??__EPHONGBOOST@SDK_VortWarp_DX9@@YAXXZ 100497c0 f    CIL library: CIL module
 0001:000487f0       ??__EPHONGEXPONENTTEXTURE@SDK_VortWarp_DX9@@YAXXZ 100497f0 f    CIL library: CIL module
 0001:00048820       ??__EPHONG@SDK_VortWarp_DX9@@YAXXZ 10049820 f    CIL library: CIL module
 0001:00048850       ??__Es_ShaderInstance@SDK_VortWarp_DX9@@YAXXZ 10049850 f    CIL library: CIL module
 0001:000488a0       ??__Er_waterforceexpensive@@YAXXZ 100498a0 f    CIL library: CIL module
 0001:000488d0       ??__Es_ShaderParams@SDK_Water@@YAXXZ 100498d0 f    CIL library: CIL module
 0001:000488e0       ??__Es_ShaderInstance@SDK_Water@@YAXXZ 100498e0 f    CIL library: CIL module
 0001:000488f0       ??__Es_ShaderParams@SDK_Water_DX90@@YAXXZ 100498f0 f    CIL library: CIL module
 0001:00048900       ??__EREFRACTTEXTURE@SDK_Water_DX90@@YAXXZ 10049900 f    CIL library: CIL module
 0001:00048930       ??__EREFLECTTEXTURE@SDK_Water_DX90@@YAXXZ 10049930 f    CIL library: CIL module
 0001:00048960       ??__EREFRACTAMOUNT@SDK_Water_DX90@@YAXXZ 10049960 f    CIL library: CIL module
 0001:00048990       ??__EREFRACTTINT@SDK_Water_DX90@@YAXXZ 10049990 f    CIL library: CIL module
 0001:000489c0       ??__EREFLECTAMOUNT@SDK_Water_DX90@@YAXXZ 100499c0 f    CIL library: CIL module
 0001:000489f0       ??__EREFLECTTINT@SDK_Water_DX90@@YAXXZ 100499f0 f    CIL library: CIL module
 0001:00048a20       ??__ENORMALMAP@SDK_Water_DX90@@YAXXZ 10049a20 f    CIL library: CIL module
 0001:00048a50       ??__ENORMALMAP2@SDK_Water_DX90@@YAXXZ 10049a50 f    CIL library: CIL module
 0001:00048a80       ??__EFLOWMAP@SDK_Water_DX90@@YAXXZ 10049a80 f    CIL library: CIL module
 0001:00048ab0       ??__EFLOW@SDK_Water_DX90@@YAXXZ 10049ab0 f    CIL library: CIL module
 0001:00048ae0       ??__ENOISEMAP@SDK_Water_DX90@@YAXXZ 10049ae0 f    CIL library: CIL module
 0001:00048b10       ??__EBUMPFRAME@SDK_Water_DX90@@YAXXZ 10049b10 f    CIL library: CIL module
 0001:00048b40       ??__EBUMPTRANSFORM@SDK_Water_DX90@@YAXXZ 10049b40 f    CIL library: CIL module
 0001:00048b70       ??__ESCALE@SDK_Water_DX90@@YAXXZ 10049b70 f    CIL library: CIL module
 0001:00048ba0       ??__ETIME@SDK_Water_DX90@@YAXXZ 10049ba0 f    CIL library: CIL module
 0001:00048bd0       ??__EWATERDEPTH@SDK_Water_DX90@@YAXXZ 10049bd0 f    CIL library: CIL module
 0001:00048c00       ??__ECHEAPWATERSTARTDISTANCE@SDK_Water_DX90@@YAXXZ 10049c00 f    CIL library: CIL module
 0001:00048c30       ??__ECHEAPWATERENDDISTANCE@SDK_Water_DX90@@YAXXZ 10049c30 f    CIL library: CIL module
 0001:00048c60       ??__EENVMAP@SDK_Water_DX90@@YAXXZ 10049c60 f    CIL library: CIL module
 0001:00048c90       ??__EENVMAPFRAME@SDK_Water_DX90@@YAXXZ 10049c90 f    CIL library: CIL module
 0001:00048cc0       ??__EFOGCOLOR@SDK_Water_DX90@@YAXXZ 10049cc0 f    CIL library: CIL module
 0001:00048cf0       ??__EFORCECHEAP@SDK_Water_DX90@@YAXXZ 10049cf0 f    CIL library: CIL module
 0001:00048d20       ??__EFORCEEXPENSIVE@SDK_Water_DX90@@YAXXZ 10049d20 f    CIL library: CIL module
 0001:00048d50       ??__EREFLECTENTITIES@SDK_Water_DX90@@YAXXZ 10049d50 f    CIL library: CIL module
 0001:00048d80       ??__EFOGSTART@SDK_Water_DX90@@YAXXZ 10049d80 f    CIL library: CIL module
 0001:00048db0       ??__EFOGEND@SDK_Water_DX90@@YAXXZ 10049db0 f    CIL library: CIL module
 0001:00048de0       ??__EABOVEWATER@SDK_Water_DX90@@YAXXZ 10049de0 f    CIL library: CIL module
 0001:00048e10       ??__EREFLECTBLENDFACTOR@SDK_Water_DX90@@YAXXZ 10049e10 f    CIL library: CIL module
 0001:00048e40       ??__ENOFRESNEL@SDK_Water_DX90@@YAXXZ 10049e40 f    CIL library: CIL module
 0001:00048e70       ??__ENOLOWENDLIGHTMAP@SDK_Water_DX90@@YAXXZ 10049e70 f    CIL library: CIL module
 0001:00048ea0       ??__ESCROLL1@SDK_Water_DX90@@YAXXZ 10049ea0 f    CIL library: CIL module
 0001:00048ed0       ??__ESCROLL2@SDK_Water_DX90@@YAXXZ 10049ed0 f    CIL library: CIL module
 0001:00048f00       ??__EBLURREFRACT@SDK_Water_DX90@@YAXXZ 10049f00 f    CIL library: CIL module
 0001:00048f30       ??__ECHROMATIC@SDK_Water_DX90@@YAXXZ 10049f30 f    CIL library: CIL module
 0001:00048f60       ??__ECHROMATICSCALE@SDK_Water_DX90@@YAXXZ 10049f60 f    CIL library: CIL module
 0001:00048f90       ??__Es_ShaderInstance@SDK_Water_DX90@@YAXXZ 10049f90 f    CIL library: CIL module
 0001:00048fe0       ??__Es_ShaderInstance@SDK_Water_DX9_HDR@SDK_Water_DX90@@YAXXZ 10049fe0 f    CIL library: CIL module
 0001:00049030       ??__Es_ShaderParams@SDK_WorldTwoTextureBlend@@YAXXZ 1004a030 f    CIL library: CIL module
 0001:00049040       ??__EBASETEXTURE@SDK_WorldTwoTextureBlend@@YAXXZ 1004a040 f    CIL library: CIL module
 0001:00049050       ??__EALBEDO@SDK_WorldTwoTextureBlend@@YAXXZ 1004a050 f    CIL library: CIL module
 0001:00049080       ??__ESELFILLUMTINT@SDK_WorldTwoTextureBlend@@YAXXZ 1004a080 f    CIL library: CIL module
 0001:000490b0       ??__EDETAIL@SDK_WorldTwoTextureBlend@@YAXXZ 1004a0b0 f    CIL library: CIL module
 0001:000490e0       ??__EDETAILFRAME@SDK_WorldTwoTextureBlend@@YAXXZ 1004a0e0 f    CIL library: CIL module
 0001:00049110       ??__EDETAILSCALE@SDK_WorldTwoTextureBlend@@YAXXZ 1004a110 f    CIL library: CIL module
 0001:00049140       ??__EDETAIL_ALPHA_MASK_BASE_TEXTURE@SDK_WorldTwoTextureBlend@@YAXXZ 1004a140 f    CIL library: CIL module
 0001:00049170       ??__EBUMPMAP@SDK_WorldTwoTextureBlend@@YAXXZ 1004a170 f    CIL library: CIL module
 0001:000491a0       ??__EBUMPFRAME@SDK_WorldTwoTextureBlend@@YAXXZ 1004a1a0 f    CIL library: CIL module
 0001:000491d0       ??__EBUMPTRANSFORM@SDK_WorldTwoTextureBlend@@YAXXZ 1004a1d0 f    CIL library: CIL module
 0001:00049200       ??__ENODIFFUSEBUMPLIGHTING@SDK_WorldTwoTextureBlend@@YAXXZ 1004a200 f    CIL library: CIL module
 0001:00049230       ??__ESEAMLESS_SCALE@SDK_WorldTwoTextureBlend@@YAXXZ 1004a230 f    CIL library: CIL module
 0001:00049260       ??__Es_ShaderInstance@SDK_WorldTwoTextureBlend@@YAXXZ 1004a260 f    CIL library: CIL module
 0001:000492b0       ??__Es_ShaderParams@SDK_WorldVertexAlpha@@YAXXZ 1004a2b0 f    CIL library: CIL module
 0001:000492c0       ??__Es_ShaderInstance@SDK_WorldVertexAlpha@@YAXXZ 1004a2c0 f    CIL library: CIL module
 0001:00049310       ??__Es_ShaderParams@SDK_WorldVertexTransition@@YAXXZ 1004a310 f    CIL library: CIL module
 0001:00049320       ??__Es_ShaderInstance@SDK_WorldVertexTransition@@YAXXZ 1004a320 f    CIL library: CIL module
 0001:00049330       ??__Es_ShaderParams@SDK_WorldVertexTransition_DX9@@YAXXZ 1004a330 f    CIL library: CIL module
 0001:00049340       ??__EALBEDO@SDK_WorldVertexTransition_DX9@@YAXXZ 1004a340 f    CIL library: CIL module
 0001:00049370       ??__ESELFILLUMTINT@SDK_WorldVertexTransition_DX9@@YAXXZ 1004a370 f    CIL library: CIL module
 0001:000493a0       ??__EDETAIL@SDK_WorldVertexTransition_DX9@@YAXXZ 1004a3a0 f    CIL library: CIL module
 0001:000493d0       ??__EDETAILFRAME@SDK_WorldVertexTransition_DX9@@YAXXZ 1004a3d0 f    CIL library: CIL module
 0001:00049400       ??__EDETAILSCALE@SDK_WorldVertexTransition_DX9@@YAXXZ 1004a400 f    CIL library: CIL module
 0001:00049430       ??__EDETAILBLENDMODE@SDK_WorldVertexTransition_DX9@@YAXXZ 1004a430 f    CIL library: CIL module
 0001:00049460       ??__EDETAILBLENDFACTOR@SDK_WorldVertexTransition_DX9@@YAXXZ 1004a460 f    CIL library: CIL module
 0001:00049490       ??__EDETAILTINT@SDK_WorldVertexTransition_DX9@@YAXXZ 1004a490 f    CIL library: CIL module
 0001:000494c0       ??__EENVMAP@SDK_WorldVertexTransition_DX9@@YAXXZ 1004a4c0 f    CIL library: CIL module
 0001:000494f0       ??__EENVMAPFRAME@SDK_WorldVertexTransition_DX9@@YAXXZ 1004a4f0 f    CIL library: CIL module
 0001:00049520       ??__EENVMAPMASK@SDK_WorldVertexTransition_DX9@@YAXXZ 1004a520 f    CIL library: CIL module
 0001:00049550       ??__EENVMAPMASKFRAME@SDK_WorldVertexTransition_DX9@@YAXXZ 1004a550 f    CIL library: CIL module
 0001:00049580       ??__EENVMAPMASKTRANSFORM@SDK_WorldVertexTransition_DX9@@YAXXZ 1004a580 f    CIL library: CIL module
 0001:000495b0       ??__EENVMAPTINT@SDK_WorldVertexTransition_DX9@@YAXXZ 1004a5b0 f    CIL library: CIL module
 0001:000495e0       ??__EBUMPMAP@SDK_WorldVertexTransition_DX9@@YAXXZ 1004a5e0 f    CIL library: CIL module
 0001:00049610       ??__EBUMPFRAME@SDK_WorldVertexTransition_DX9@@YAXXZ 1004a610 f    CIL library: CIL module
 0001:00049640       ??__EBUMPTRANSFORM@SDK_WorldVertexTransition_DX9@@YAXXZ 1004a640 f    CIL library: CIL module
 0001:00049670       ??__EENVMAPCONTRAST@SDK_WorldVertexTransition_DX9@@YAXXZ 1004a670 f    CIL library: CIL module
 0001:000496a0       ??__EENVMAPSATURATION@SDK_WorldVertexTransition_DX9@@YAXXZ 1004a6a0 f    CIL library: CIL module
 0001:000496d0       ??__EFRESNELREFLECTION@SDK_WorldVertexTransition_DX9@@YAXXZ 1004a6d0 f    CIL library: CIL module
 0001:00049700       ??__ENODIFFUSEBUMPLIGHTING@SDK_WorldVertexTransition_DX9@@YAXXZ 1004a700 f    CIL library: CIL module
 0001:00049730       ??__EBUMPMAP2@SDK_WorldVertexTransition_DX9@@YAXXZ 1004a730 f    CIL library: CIL module
 0001:00049760       ??__EBUMPFRAME2@SDK_WorldVertexTransition_DX9@@YAXXZ 1004a760 f    CIL library: CIL module
 0001:00049790       ??__EBUMPTRANSFORM2@SDK_WorldVertexTransition_DX9@@YAXXZ 1004a790 f    CIL library: CIL module
 0001:000497c0       ??__EBUMPMASK@SDK_WorldVertexTransition_DX9@@YAXXZ 1004a7c0 f    CIL library: CIL module
 0001:000497f0       ??__EBASETEXTURE2@SDK_WorldVertexTransition_DX9@@YAXXZ 1004a7f0 f    CIL library: CIL module
 0001:00049820       ??__EFRAME2@SDK_WorldVertexTransition_DX9@@YAXXZ 1004a820 f    CIL library: CIL module
 0001:00049850       ??__EBASETEXTURENOENVMAP@SDK_WorldVertexTransition_DX9@@YAXXZ 1004a850 f    CIL library: CIL module
 0001:00049880       ??__EBASETEXTURE2NOENVMAP@SDK_WorldVertexTransition_DX9@@YAXXZ 1004a880 f    CIL library: CIL module
 0001:000498b0       ??__EDETAIL_ALPHA_MASK_BASE_TEXTURE@SDK_WorldVertexTransition_DX9@@YAXXZ 1004a8b0 f    CIL library: CIL module
 0001:000498e0       ??__ELIGHTWARPTEXTURE@SDK_WorldVertexTransition_DX9@@YAXXZ 1004a8e0 f    CIL library: CIL module
 0001:00049910       ??__EBLENDMODULATETEXTURE@SDK_WorldVertexTransition_DX9@@YAXXZ 1004a910 f    CIL library: CIL module
 0001:00049940       ??__EBLENDMASKTRANSFORM@SDK_WorldVertexTransition_DX9@@YAXXZ 1004a940 f    CIL library: CIL module
 0001:00049970       ??__EMASKEDBLENDING@SDK_WorldVertexTransition_DX9@@YAXXZ 1004a970 f    CIL library: CIL module
 0001:000499a0       ??__ESSBUMP@SDK_WorldVertexTransition_DX9@@YAXXZ 1004a9a0 f    CIL library: CIL module
 0001:000499d0       ??__ESEAMLESS_SCALE@SDK_WorldVertexTransition_DX9@@YAXXZ 1004a9d0 f    CIL library: CIL module
 0001:00049a00       ??__Es_ShaderInstance@SDK_WorldVertexTransition_DX9@@YAXXZ 1004aa00 f    CIL library: CIL module
 0001:00049a50       ??__Emat_fullbright@@YAXXZ 1004aa50 f    CIL library: CIL module
 0001:00049a80       ??__E__g_CreateIShaderDLLInternal_reg@@YAXXZ 1004aa80 f    CIL library: CIL module
 0001:00049aa0       ??__Es_EmptyConVar@@YAXXZ  1004aaa0 f   tier1:convar.obj
 0001:00049ac0       ??__Es_StringCharConversion@@YAXXZ 1004aac0 f   tier1:utlbuffer.obj
 0001:00049b20       ??__Es_NoEscConversion@@YAXXZ 1004ab20 f   tier1:utlbuffer.obj
 0001:00049b50       ??__Fs_ShaderParams@SDK_Aftershock@@YAXXZ 1004ab50 f    CIL library: CIL module
 0001:00049b60       ??__Fs_ShaderParams@SDK_Aftershock_dx9@@YAXXZ 1004ab60 f    CIL library: CIL module
 0001:00049b70       ??__Fmat_fullbright@@YAXXZ 1004ab70 f    CIL library: CIL module
 0001:00049b80       ??__Fs_ShaderParams@Bleach_Bypass@@YAXXZ 1004ab80 f    CIL library: CIL module
 0001:00049b90       ??__Fs_ShaderParams@SDK_Bloom@@YAXXZ 1004ab90 f    CIL library: CIL module
 0001:00049ba0       ??__Fs_ShaderParams@SDK_Cable@@YAXXZ 1004aba0 f    CIL library: CIL module
 0001:00049bb0       ??__Fs_ShaderParams@SDK_Cable_DX9@@YAXXZ 1004abb0 f    CIL library: CIL module
 0001:00049bc0       ??__Fs_ShaderParams@Chromatic_Dispersion@@YAXXZ 1004abc0 f    CIL library: CIL module
 0001:00049bd0       ??__Fr_lightwarpidentity@@YAXXZ 1004abd0 f    CIL library: CIL module
 0001:00049be0       ??__Fs_ShaderParams@Color_Clipping@@YAXXZ 1004abe0 f    CIL library: CIL module
 0001:00049bf0       ??__Fs_ShaderParams@Complements@@YAXXZ 1004abf0 f    CIL library: CIL module
 0001:00049c00       ??__Fs_ShaderParams@SDK_Core@@YAXXZ 1004ac00 f    CIL library: CIL module
 0001:00049c10       ??__Fs_ShaderParams@SDK_Core_DX90@@YAXXZ 1004ac10 f    CIL library: CIL module
 0001:00049c20       ??__Fgear@@YAXXZ           1004ac20 f    CIL library: CIL module
 0001:00049c30       ??__Fs_ShaderParams@Cubic_Distortion@@YAXXZ 1004ac30 f    CIL library: CIL module
 0001:00049c40       ??__Fs_ShaderParams@Desaturate@@YAXXZ 1004ac40 f    CIL library: CIL module
 0001:00049c50       ??__Fs_ShaderParams@SDK_DepthWrite@@YAXXZ 1004ac50 f    CIL library: CIL module
 0001:00049c60       ??__Fs_ShaderParams@SDK_EyeRefract@@YAXXZ 1004ac60 f    CIL library: CIL module
 0001:00049c70       ??__Fs_ShaderParams@SDK_VolumeClouds@@YAXXZ 1004ac70 f    CIL library: CIL module
 0001:00049c80       ??__Fs_ShaderParams@SDK_EyeGlint@@YAXXZ 1004ac80 f    CIL library: CIL module
 0001:00049c90       ??__Fs_ShaderParams@SDK_AfterShock@@YAXXZ 1004ac90 f    CIL library: CIL module
 0001:00049ca0       ??__Fs_ShaderParams@SDK_EyeRefract@@YAXXZ 1004aca0 f    CIL library: CIL module
 0001:00049cb0       ??__Fs_ShaderParams@SDK_EyeRefract_dx9@@YAXXZ 1004acb0 f    CIL library: CIL module
 0001:00049cc0       ??__Fr_lightwarpidentity@@YAXXZ 1004acc0 f    CIL library: CIL module
 0001:00049cd0       ??__Fs_ShaderParams@SDK_Eyeball@@YAXXZ 1004acd0 f    CIL library: CIL module
 0001:00049ce0       ??__Fs_ShaderParams@SDK_EyeGlint@@YAXXZ 1004ace0 f    CIL library: CIL module
 0001:00049cf0       ??__Fs_ShaderParams@SDK_EyeGlint_dx9@@YAXXZ 1004acf0 f    CIL library: CIL module
 0001:00049d00       ??__Fs_ShaderParams@SDK_eyes@@YAXXZ 1004ad00 f    CIL library: CIL module
 0001:00049d10       ??__Fs_ShaderParams@SDK_Eyes_dx8@@YAXXZ 1004ad10 f    CIL library: CIL module
 0001:00049d20       ??__Fr_flashlight_version2@@YAXXZ 1004ad20 f    CIL library: CIL module
 0001:00049d30       ??__Fs_ShaderParams@SDK_eyes@@YAXXZ 1004ad30 f    CIL library: CIL module
 0001:00049d40       ??__Fs_ShaderParams@SDK_Eyes_dx9@@YAXXZ 1004ad40 f    CIL library: CIL module
 0001:00049d50       ??__Fs_ShaderParams@FXAA@@YAXXZ 1004ad50 f    CIL library: CIL module
 0001:00049d60       ??__Fs_ShaderParams@GaussianX@@YAXXZ 1004ad60 f    CIL library: CIL module
 0001:00049d70       ??__Fs_ShaderParams@GaussianY@@YAXXZ 1004ad70 f    CIL library: CIL module
 0001:00049d80       ??__Fs_ShaderParams@LightmappedAdv@@YAXXZ 1004ad80 f    CIL library: CIL module
 0001:00049d90       ??__Fs_ShaderParams@LightmappedAdv_DX9@@YAXXZ 1004ad90 f    CIL library: CIL module
 0001:00049da0       ??__Fmat_disable_lightwarp@@YAXXZ 1004ada0 f    CIL library: CIL module
 0001:00049db0       ??__Fmat_disable_fancy_blending@@YAXXZ 1004adb0 f    CIL library: CIL module
 0001:00049dc0       ??__Fmat_fullbright@@YAXXZ 1004adc0 f    CIL library: CIL module
 0001:00049dd0       ??__Fmat_enable_lightmapped_phong@@YAXXZ 1004add0 f    CIL library: CIL module
 0001:00049de0       ??__Fmat_force_lightmapped_phong@@YAXXZ 1004ade0 f    CIL library: CIL module
 0001:00049df0       ??__Fmat_force_lightmapped_phong_boost@@YAXXZ 1004adf0 f    CIL library: CIL module
 0001:00049e00       ??__Fmat_force_lightmapped_phong_exp@@YAXXZ 1004ae00 f    CIL library: CIL module
 0001:00049e10       ??__Fs_ShaderParams@SDK_LightmappedGeneric_Decal@@YAXXZ 1004ae10 f    CIL library: CIL module
 0001:00049e20       ??__Fmat_disable_lightwarp@@YAXXZ 1004ae20 f    CIL library: CIL module
 0001:00049e30       ??__Fmat_disable_fancy_blending@@YAXXZ 1004ae30 f    CIL library: CIL module
 0001:00049e40       ??__Fmat_fullbright@@YAXXZ 1004ae40 f    CIL library: CIL module
 0001:00049e50       ??__Fs_ShaderParams@SDK_LightmappedReflective@@YAXXZ 1004ae50 f    CIL library: CIL module
 0001:00049e60       ??__Fs_ShaderParams@SDK_LightmappedReflective_DX90@@YAXXZ 1004ae60 f    CIL library: CIL module
 0001:00049e70       ??__Fs_ShaderParams@SDK_LightmappedTwoTexture@@YAXXZ 1004ae70 f    CIL library: CIL module
 0001:00049e80       ??__Fs_ShaderParams@LUMA@@YAXXZ 1004ae80 f    CIL library: CIL module
 0001:00049e90       ??__Fs_ShaderParams@Negative@@YAXXZ 1004ae90 f    CIL library: CIL module
 0001:00049ea0       ??__Fs_ShaderParams@Nightvision@@YAXXZ 1004aea0 f    CIL library: CIL module
 0001:00049eb0       ??__Fs_ShaderParams@Noise@@YAXXZ 1004aeb0 f    CIL library: CIL module
 0001:00049ec0       ??__Fs_ShaderParams@RadialGaussianX@@YAXXZ 1004aec0 f    CIL library: CIL module
 0001:00049ed0       ??__Fs_ShaderParams@RadialGaussianY@@YAXXZ 1004aed0 f    CIL library: CIL module
 0001:00049ee0       ??__Fs_ShaderParams@Radial_Blur@@YAXXZ 1004aee0 f    CIL library: CIL module
 0001:00049ef0       ??__Fs_ShaderParams@SDK_Refract@@YAXXZ 1004aef0 f    CIL library: CIL module
 0001:00049f00       ??__Fs_ShaderParams@SDK_Refract_DX90@@YAXXZ 1004af00 f    CIL library: CIL module
 0001:00049f10       ??__Fs_ShaderParams@SDK_screenspace_general@@YAXXZ 1004af10 f    CIL library: CIL module
 0001:00049f20       ??__Fs_ShaderParams@SDK_screenspace_general_dx9@@YAXXZ 1004af20 f    CIL library: CIL module
 0001:00049f30       ??__Fs_ShaderParams@ScreenWater@@YAXXZ 1004af30 f    CIL library: CIL module
 0001:00049f40       ??__Fs_ShaderParams@Sepia@@YAXXZ 1004af40 f    CIL library: CIL module
 0001:00049f50       ??__Fmat_fullbright@@YAXXZ 1004af50 f    CIL library: CIL module
 0001:00049f60       ??__Fr_lightwarpidentity@@YAXXZ 1004af60 f    CIL library: CIL module
 0001:00049f70       ??__Fr_rimlight@@YAXXZ     1004af70 f    CIL library: CIL module
 0001:00049f80       ??__Fs_ShaderParams@SDK_Spritecard@@YAXXZ 1004af80 f    CIL library: CIL module
 0001:00049f90       ??__Fs_ShaderParams@SDK_Teeth@@YAXXZ 1004af90 f    CIL library: CIL module
 0001:00049fa0       ??__Fs_ShaderParams@SDK_Teeth_DX9@@YAXXZ 1004afa0 f    CIL library: CIL module
 0001:00049fb0       ??__Fs_ShaderParams@SDK_UnlitGeneric@@YAXXZ 1004afb0 f    CIL library: CIL module
 0001:00049fc0       ??__Fs_ShaderParams@SDK_UnlitTwoTexture@@YAXXZ 1004afc0 f    CIL library: CIL module
 0001:00049fd0       ??__Fs_ShaderParams@SDK_UnlitTwoTexture_DX9@@YAXXZ 1004afd0 f    CIL library: CIL module
 0001:00049fe0       ??__Fs_ShaderParams@Unsharp@@YAXXZ 1004afe0 f    CIL library: CIL module
 0001:00049ff0       ??__Fs_ShaderParams@Unsharp_Blur@@YAXXZ 1004aff0 f    CIL library: CIL module
 0001:0004a000       ??__Fs_ShaderParams@SDK_VertexLitGeneric@@YAXXZ 1004b000 f    CIL library: CIL module
 0001:0004a010       ??__Fmat_fullbright@@YAXXZ 1004b010 f    CIL library: CIL module
 0001:0004a020       ??__Fr_lightwarpidentity@@YAXXZ 1004b020 f    CIL library: CIL module
 0001:0004a030       ??__Fs_ShaderParams@Vignetting@@YAXXZ 1004b030 f    CIL library: CIL module
 0001:0004a040       ??__Fs_ShaderParams@SDK_VortWarp@@YAXXZ 1004b040 f    CIL library: CIL module
 0001:0004a050       ??__Fs_ShaderParams@SDK_VortWarp_DX9@@YAXXZ 1004b050 f    CIL library: CIL module
 0001:0004a060       ??__Fr_waterforceexpensive@@YAXXZ 1004b060 f    CIL library: CIL module
 0001:0004a070       ??__Fs_ShaderParams@SDK_Water@@YAXXZ 1004b070 f    CIL library: CIL module
 0001:0004a080       ??__Fs_ShaderParams@SDK_Water_DX90@@YAXXZ 1004b080 f    CIL library: CIL module
 0001:0004a090       ??__Fs_ShaderParams@SDK_WorldTwoTextureBlend@@YAXXZ 1004b090 f    CIL library: CIL module
 0001:0004a0a0       ??__Fs_ShaderParams@SDK_WorldVertexAlpha@@YAXXZ 1004b0a0 f    CIL library: CIL module
 0001:0004a0b0       ??__Fs_ShaderParams@SDK_WorldVertexTransition@@YAXXZ 1004b0b0 f    CIL library: CIL module
 0001:0004a0c0       ??__Fs_ShaderParams@SDK_WorldVertexTransition_DX9@@YAXXZ 1004b0c0 f    CIL library: CIL module
 0001:0004a0d0       ??__Fmat_fullbright@@YAXXZ 1004b0d0 f    CIL library: CIL module
 0001:0004a0e0       ??__Fs_EmptyConVar@@YAXXZ  1004b0e0 f   tier1:convar.obj
 0001:0004a11b       ??__Fnomem@?5???2@YAPAXI@Z@YAXXZ 1004b11b f   LIBCMT:new.obj
