 vbsp

 Timestamp is 4be8b624 (Mon May 10 18:43:00 2010)

 Preferred load address is 00400000

 Start         Length     Name                   Class
 0001:00000000 00095ab6H .text                   CODE
 0001:00095ac0 00000253H .text$x                 CODE
 0001:00095d20 00000c7bH .text$yc                CODE
 0001:000969a0 00000a0dH .text$yd                CODE
 0002:00000000 00000248H .idata$5                DATA
 0002:00000248 00000004H .CRT$XCA                DATA
 0002:0000024c 0000000cH .CRT$XCC                DATA
 0002:00000258 00000008H .CRT$XCL                DATA
 0002:00000260 0000022cH .CRT$XCU                DATA
 0002:0000048c 00000004H .CRT$XCZ                DATA
 0002:00000490 00000004H .CRT$XIA                DATA
 0002:00000494 00000014H .CRT$XIC                DATA
 0002:000004a8 00000004H .CRT$XIY                DATA
 0002:000004ac 00000004H .CRT$XIZ                DATA
 0002:000004b0 00000004H .CRT$XPA                DATA
 0002:000004b4 0000000cH .CRT$XPX                DATA
 0002:000004c0 00000004H .CRT$XPXA               DATA
 0002:000004c4 00000004H .CRT$XPZ                DATA
 0002:000004c8 00000004H .CRT$XTA                DATA
 0002:000004cc 00000004H .CRT$XTZ                DATA
 0002:000004d0 00053048H .rdata                  DATA
 0002:00053518 0000008aH .rdata$debug            DATA
 0002:000535a4 00000f30H .rdata$r                DATA
 0002:000544d4 00000004H .rtc$IAA                DATA
 0002:000544d8 00000004H .rtc$IZZ                DATA
 0002:000544dc 00000004H .rtc$TAA                DATA
 0002:000544e0 00000004H .rtc$TZZ                DATA
 0002:000544e8 00000e84H .xdata$x                DATA
 0002:0005536c 00000050H .idata$2                DATA
 0002:000553bc 00000014H .idata$3                DATA
 0002:000553d0 00000248H .idata$4                DATA
 0002:00055618 00000b48H .idata$6                DATA
 0002:00056160 0000004bH .edata                  DATA
 0003:00000000 0000956cH .data                   DATA
 0003:00009580 06b50ab8H .bss                    DATA

  Address         Publics by Value              Rva+Base       Lib:Object

 0000:00000000       ___safe_se_handler_table   00000000     <absolute>
 0000:00000000       __except_list              00000000     <absolute>
 0000:00000000       ___safe_se_handler_count   00000000     <absolute>
 0000:00000000       ___ImageBase               00400000     <linker-defined>
 0001:00000000       ??AVector@@QAEAAMH@Z       00401000 f i brushbsp.obj
 0001:00000010       ??AVector@@QBEMH@Z         00401010 f i brushbsp.obj
 0001:00000020       ??_H@YGXPAXIHP6EPAX0@Z@Z   00401020 f i brushbsp.obj
 0001:00000050       ?VectorLength@@YAMABVVector@@@Z 00401050 f i brushbsp.obj
 0001:00000080       ??HVector@@QBE?AV0@ABV0@@Z 00401080 f i brushbsp.obj
 0001:000000b0       ??DVector@@QBE?AV0@M@Z     004010b0 f i brushbsp.obj
 0001:000000e0       ?BoundBrush@@YAXPAUbspbrush_t@@@Z 004010e0 f   brushbsp.obj
 0001:00000160       ?PointInsideBrush@@YA?AVVector@@PAUbspbrush_t@@@Z 00401160 f   brushbsp.obj
 0001:000003c0       ?CreateBrushWindings@@YAXPAUbspbrush_t@@@Z 004013c0 f   brushbsp.obj
 0001:00000530       ?BrushVolume@@YAMPAUbspbrush_t@@@Z 00401530 f   brushbsp.obj
 0001:000005f0       ?CountBrushList@@YAHPAUbspbrush_t@@@Z 004015f0 f   brushbsp.obj
 0001:00000610       ?AllocTree@@YAPAUtree_t@@XZ 00401610 f   brushbsp.obj
 0001:00000640       ?AllocNode@@YAPAUnode_t@@XZ 00401640 f   brushbsp.obj
 0001:00000670       ?AllocBrush@@YAPAUbspbrush_t@@H@Z 00401670 f   brushbsp.obj
 0001:000006c0       ?FreeBrush@@YAXPAUbspbrush_t@@@Z 004016c0 f   brushbsp.obj
 0001:00000710       ?FreeBrushList@@YAXPAUbspbrush_t@@@Z 00401710 f   brushbsp.obj
 0001:00000770       ?CopyBrush@@YAPAUbspbrush_t@@PAU1@@Z 00401770 f   brushbsp.obj
 0001:00000800       ?PointInLeaf@@YAPAUnode_t@@PAU1@AAVVector@@@Z 00401800 f   brushbsp.obj
 0001:00000870       ?BrushBspBoxOnPlaneSide@@YAHABVVector@@0PAUdplane_t@@@Z 00401870 f   brushbsp.obj
 0001:00000970       ?TestBrushToPlanenum@@YAHPAUbspbrush_t@@HPAH11@Z 00401970 f   brushbsp.obj
 0001:00000d30       ?WindingIsTiny@@YAHPAUwinding_t@@@Z 00401d30 f   brushbsp.obj
 0001:00000dd0       ?WindingIsHuge@@YAHPAUwinding_t@@@Z 00401dd0 f   brushbsp.obj
 0001:00000e50       ?LeafNode@@YAXPAUnode_t@@PAUbspbrush_t@@@Z 00401e50 f   brushbsp.obj
 0001:00000ec0       ?RemoveAreaPortalBrushes_R@@YAXPAUnode_t@@@Z 00401ec0 f   brushbsp.obj
 0001:00000f10       ?BrushMostlyOnSide@@YAHPAUbspbrush_t@@PAUplane_t@@@Z 00401f10 f   brushbsp.obj
 0001:00001140       ?BrushFromBounds@@YAPAUbspbrush_t@@AAVVector@@0@Z 00402140 f   brushbsp.obj
 0001:00001230       ?SplitBrush@@YAXPAUbspbrush_t@@HPAPAU1@1@Z 00402230 f   brushbsp.obj
 0001:00001af0       ?SplitBrushList@@YAXPAUbspbrush_t@@PAUnode_t@@PAPAU1@2@Z 00402af0 f   brushbsp.obj
 0001:00001bd0       ?SelectSplitSide@@YAPAUside_t@@PAUbspbrush_t@@PAUnode_t@@@Z 00402bd0 f   brushbsp.obj
 0001:00001e80       ?BuildTree_r@@YAPAUnode_t@@PAU1@PAUbspbrush_t@@@Z 00402e80 f   brushbsp.obj
 0001:00001f90       ?BrushBSP@@YAPAUtree_t@@PAUbspbrush_t@@AAVVector@@1@Z 00402f90 f   brushbsp.obj
 0001:00002140       ?fabs@@YAMM@Z              00403140 f i collisionutils.obj
 0001:00002150       ?Vector2DSubtract@@YAXABVVector2D@@0AAV1@@Z 00403150 f i collisionutils.obj
 0001:00002170       ?Init@Vector@@QAEXMMM@Z    00403170 f i collisionutils.obj
 0001:00002190       ??4Vector@@QAEAAV0@ABV0@@Z 00403190 f i collisionutils.obj
 0001:000021b0       ?Dot@Vector@@QBEMABV1@@Z   004031b0 f i collisionutils.obj
 0001:000021d0       ?CrossProduct@@YAXABVVector@@0AAV1@@Z 004031d0 f i collisionutils.obj
 0001:00002210       ?Length@Vector@@QBEMXZ     00403210 f i collisionutils.obj
 0001:00002240       ??GVector@@QBE?AV0@ABV0@@Z 00403240 f i collisionutils.obj
 0001:00002270       ??0cplane_t@@QAE@XZ        00403270 f i collisionutils.obj
 0001:00002270       ??0Vector2D@@QAE@XZ        00403270 f i collisionutils.obj
 0001:00002270       ??0Vector@@QAE@XZ          00403270 f i brushbsp.obj
 0001:00002280       ?IsBoxIntersectingBox@@YA_NABVVector@@000@Z 00403280 f   collisionutils.obj
 0001:000022f0       ?PointInQuadFromBarycentric@@YAXABVVector@@000ABVVector2D@@AAV1@@Z 004032f0 f   collisionutils.obj
 0001:00002380       ?SubtractBrush@@YAPAUbspbrush_t@@PAU1@0@Z 00403380 f   csg.obj
 0001:00002420       ?IntersectBrush@@YAPAUbspbrush_t@@PAU1@0@Z 00403420 f   csg.obj
 0001:000024b0       ?BrushesDisjoint@@YAHPAUbspbrush_t@@0@Z 004034b0 f   csg.obj
 0001:00002560       ?ClipBrushToBox@@YAPAUbspbrush_t@@PAU1@ABVVector@@1@Z 00403560 f   csg.obj
 0001:00002810       ?MakeBspBrushList@@YAPAUbspbrush_t@@HHABVVector@@0H@Z 00403810 f   csg.obj
 0001:000028a0       ?MakeBspBrushList@@YAPAUbspbrush_t@@PAPAUmapbrush_t@@HABVVector@@1@Z 004038a0 f   csg.obj
 0001:000028f0       ?PrintBrushContentsToString@@YAXHPADH@Z 004038f0 f   csg.obj
 0001:00002b80       ?ChopBrushes@@YAPAUbspbrush_t@@PAU1@@Z 00403b80 f   csg.obj
 0001:00002eb0       ?CopyMatchingTexinfos@@YAXPAUside_t@@HPBUbspbrush_t@@@Z 00403eb0 f   csg.obj
 0001:00002fd0       ?FixupAreaportalWaterBrushes@@YAXPAUbspbrush_t@@@Z 00403fd0 f   csg.obj
 0001:00003070       ?VectorScale@@YAXABVVector@@MAAV1@@Z 00404070 f i cubemap.obj
 0001:000030c0       ?Cubemap_InsertSample@@YAXABVVector@@H@Z 004040c0 f   cubemap.obj
 0001:00003410       ?DoesMaterialOrDependentsUseEnvmap@@YA_NPBD@Z 00404410 f   cubemap.obj
 0001:00003470       ?Cubemap_FindClosestCubemap@@YAHABVVector@@PAUside_t@@@Z 00404470 f   cubemap.obj
 0001:00003660       ?Purge@?$CUtlMemory@EH@@QAEXXZ 00404660 f i cubemap.obj
 0001:00003690       ?Grow@?$CUtlMemory@Utexinfo_s@@H@@QAEXH@Z 00404690 f i cubemap.obj
 0001:00003730       ?Grow@?$CUtlMemory@U?$UtlRBTreeNode_t@UModelCollisionLookup_t@@G@@G@@QAEXH@Z 00404730 f i staticprop.obj
 0001:00003730       ?Grow@?$CUtlMemory@U?$UtlRBTreeNode_t@UCubemapInfo_t@@G@@G@@QAEXH@Z 00404730 f i cubemap.obj
 0001:000037e0       ?Parent@?$CUtlRBTree@UCubemapInfo_t@@GP6A_NABU1@0@ZV?$CUtlMemory@U?$UtlRBTreeNode_t@UCubemapInfo_t@@G@@G@@@@QBEGG@Z 004047e0 f i cubemap.obj
 0001:00003840       ?Purge@?$CUtlVector@HV?$CUtlMemory@HH@@@@QAEXXZ 00404840 f i cubemap.obj
 0001:00003890       ?LeftChild@?$CUtlRBTree@UCubemapInfo_t@@GP6A_NABU1@0@ZV?$CUtlMemory@U?$UtlRBTreeNode_t@UCubemapInfo_t@@G@@G@@@@QBEGG@Z 00404890 f i cubemap.obj
 0001:000038f0       ?RightChild@?$CUtlRBTree@UCubemapInfo_t@@GP6A_NABU1@0@ZV?$CUtlMemory@U?$UtlRBTreeNode_t@UCubemapInfo_t@@G@@G@@@@QBEGG@Z 004048f0 f i cubemap.obj
 0001:00003950       ?FindInsertionPosition@?$CUtlRBTree@UCubemapInfo_t@@GP6A_NABU1@0@ZV?$CUtlMemory@U?$UtlRBTreeNode_t@UCubemapInfo_t@@G@@G@@@@IAEXABUCubemapInfo_t@@AAGAA_N@Z 00404950 f i cubemap.obj
 0001:00003a40       ?NewNode@?$CUtlRBTree@UCubemapInfo_t@@GP6A_NABU1@0@ZV?$CUtlMemory@U?$UtlRBTreeNode_t@UCubemapInfo_t@@G@@G@@@@QAEGXZ 00404a40 f i cubemap.obj
 0001:00003b30       ?RotateLeft@?$CUtlRBTree@UCubemapInfo_t@@GP6A_NABU1@0@ZV?$CUtlMemory@U?$UtlRBTreeNode_t@UCubemapInfo_t@@G@@G@@@@IAEXG@Z 00404b30 f i cubemap.obj
 0001:00003c20       ?RotateRight@?$CUtlRBTree@UCubemapInfo_t@@GP6A_NABU1@0@ZV?$CUtlMemory@U?$UtlRBTreeNode_t@UCubemapInfo_t@@G@@G@@@@IAEXG@Z 00404c20 f i cubemap.obj
 0001:00003d10       ?Find@?$CUtlRBTree@UCubemapInfo_t@@GP6A_NABU1@0@ZV?$CUtlMemory@U?$UtlRBTreeNode_t@UCubemapInfo_t@@G@@G@@@@QBEGABUCubemapInfo_t@@@Z 00404d10 f i cubemap.obj
 0001:00003e10       ?RemoveAll@?$CUtlRBTree@UCubemapInfo_t@@GP6A_NABU1@0@ZV?$CUtlMemory@U?$UtlRBTreeNode_t@UCubemapInfo_t@@G@@G@@@@QAEXXZ 00404e10 f i cubemap.obj
 0001:00003ed0       ?InsertRebalance@?$CUtlRBTree@UCubemapInfo_t@@GP6A_NABU1@0@ZV?$CUtlMemory@U?$UtlRBTreeNode_t@UCubemapInfo_t@@G@@G@@@@IAEXG@Z 00404ed0 f i cubemap.obj
 0001:00004780       ?CreateDefaultCubemaps@@YAX_N@Z 00405780 f   cubemap.obj
 0001:00004b20       ?Cubemap_CreateDefaultCubemaps@@YAXXZ 00405b20 f   cubemap.obj
 0001:00004b40       ?AddToTail@?$CUtlVector@PADV?$CUtlMemory@PADH@@@@QAEHXZ 00405b40 f i cubemap.obj
 0001:00004b90       ?InsertBefore@?$CUtlVector@Utexinfo_s@@V?$CUtlMemory@Utexinfo_s@@H@@@@QAEHHABUtexinfo_s@@@Z 00405b90 f i cubemap.obj
 0001:00004c10       ?InsertBefore@?$CUtlVector@V?$CUtlVector@HV?$CUtlMemory@HH@@@@V?$CUtlMemory@V?$CUtlVector@HV?$CUtlMemory@HH@@@@H@@@@QAEHH@Z 00405c10 f i cubemap.obj
 0001:00004c90       ?LinkToParent@?$CUtlRBTree@UCubemapInfo_t@@GP6A_NABU1@0@ZV?$CUtlMemory@U?$UtlRBTreeNode_t@UCubemapInfo_t@@G@@G@@@@IAEXGG_N@Z 00405c90 f i cubemap.obj
 0001:00004d10       ?Cubemap_AddUnreferencedCubemaps@@YAXXZ 00405d10 f   cubemap.obj
 0001:00004ea0       ?Cubemap_SaveBrushSides@@YAXPBD@Z 00405ea0 f   cubemap.obj
 0001:00005220       ?Cubemap_FixupBrushSidesMaterials@@YAXXZ 00406220 f   cubemap.obj
 0001:00005320       ?Insert@?$CUtlRBTree@UCubemapInfo_t@@GP6A_NABU1@0@ZV?$CUtlMemory@U?$UtlRBTreeNode_t@UCubemapInfo_t@@G@@G@@@@QAEGABUCubemapInfo_t@@@Z 00406320 f i cubemap.obj
 0001:00005380       ?Cubemap_InitCubemapSideData@@YAXXZ 00406380 f   cubemap.obj
 0001:00005540       ?Cubemap_AttachDefaultCubemapToSpecularSides@@YAXXZ 00406540 f   cubemap.obj
 0001:000056c0       ??1?$CUtlVector@Ucluster_portals_t@@V?$CUtlMemory@Ucluster_portals_t@@H@@@@QAE@XZ 004066c0 f i prtfile.obj
 0001:000056c0       ??1?$CUtlVector@V?$CUtlVector@HV?$CUtlMemory@HH@@@@V?$CUtlMemory@V?$CUtlVector@HV?$CUtlMemory@HH@@@@H@@@@QAE@XZ 004066c0 f i cubemap.obj
 0001:00005720       ?MergeBrush_r@@YAXPAUnode_t@@PAUbspbrush_t@@@Z 00406720 f   detail.obj
 0001:000057a0       ?MergeFace_r@@YA_NPAUnode_t@@PAUface_t@@1@Z 004067a0 f   detail.obj
 0001:00005930       ?FilterFacesIntoTree@@YAPAUface_t@@PAUtree_t@@PAU1@@Z 00406930 f   detail.obj
 0001:000059c0       ?TryMergeFaceList@@YAXPAPAUface_t@@@Z 004069c0 f   detail.obj
 0001:00005ac0       ?FilterBrushesIntoTree@@YAXPAUtree_t@@PAUbspbrush_t@@@Z 00406ac0 f   detail.obj
 0001:00005b60       ?BrushBoxOverlap@@YA_NPAUbspbrush_t@@0@Z 00406b60 f   detail.obj
 0001:00005bb0       ?FindOriginalSide@@YAPAUside_t@@PAUmapbrush_t@@PAU1@@Z 00406bb0 f   detail.obj
 0001:00005c80       ?ClipFaceToBrush@@YA_NPAUface_t@@PAUbspbrush_t@@PAPAU1@@Z 00406c80 f   detail.obj
 0001:00005f50       ?GetListOfCutBrushes@@YAHAAV?$CUtlVector@PAUbspbrush_t@@V?$CUtlMemory@PAUbspbrush_t@@H@@@@PAUbspbrush_t@@1@Z 00406f50 f   detail.obj
 0001:000060f0       ?ComputeVisibleBrushSides@@YAPAUface_t@@PAUbspbrush_t@@@Z 004070f0 f   detail.obj
 0001:000062b0       ?MergeDetailTree@@YAPAUface_t@@PAUtree_t@@HH@Z 004072b0 f   detail.obj
 0001:000063e0       ?Init@Vector2D@@QAEXMM@Z   004073e0 f i detailobjects.obj
 0001:00006400       ?WaterLessFunc@@YA_NABUWaterTexInfo@@0@Z 00407400 f   ivp.obj
 0001:00006400       ?ZipFileLessFunc@CZipEntry@CZipFile@@SA_NABV12@0@Z 00407400 f   zip_utils.obj
 0001:00006640       ??$SwapBufferToTargetEndian@I@CByteswap@@QAEXPAI0H@Z 00407640 f i tier1:KeyValues.obj
 0001:00006640       ??$SwapBufferToTargetEndian@H@CByteswap@@QAEXPAH0H@Z 00407640 f i detailobjects.obj
 0001:000066c0       ?Grow@?$CUtlMemory@Uwatermodel_t@@H@@QAEXH@Z 004076c0 f i ivp.obj
 0001:000066c0       ?Grow@?$CUtlMemory@UDetailModel_t@@H@@QAEXH@Z 004076c0 f i detailobjects.obj
 0001:00006770       ?Grow@?$CUtlMemory@U?$UtlRBTreeNode_t@UWaterTexInfo@@H@@H@@QAEXH@Z 00407770 f i ivp.obj
 0001:00006770       ?Grow@?$CUtlMemory@Udleafambientlighting_t@@H@@QAEXH@Z 00407770 f i bsplib.obj
 0001:00006770       ?Grow@?$CUtlMemory@UDetailObject_t@@H@@QAEXH@Z 00407770 f i detailobjects.obj
 0001:00006830       ?Grow@?$CUtlMemory@U?$UtlRBTreeNode_t@UStaticPropLookup_t@@G@@G@@QAEXH@Z 00407830 f i detailobjects.obj
 0001:00006830       ?Grow@?$CUtlMemory@U?$UtlRBTreeNode_t@VCStringPoolIndex@CUtlSymbolTable@@G@@G@@QAEXH@Z 00407830 f i tier1:utlsymbol.obj
 0001:000068e0       ?Grow@?$CUtlMemory@UDetailObjectDictLump_t@@H@@QAEXH@Z 004078e0 f i detailobjects.obj
 0001:000068e0       ?Grow@?$CUtlMemory@UStaticPropDictLump_t@@H@@QAEXH@Z 004078e0 f i staticprop.obj
 0001:00006990       ?Grow@?$CUtlMemory@UDetailObjectLump_t@@H@@QAEXH@Z 00407990 f i detailobjects.obj
 0001:00006a40       ?Grow@?$CUtlMemory@UDetailSpriteDictLump_t@@H@@QAEXH@Z 00407a40 f i detailobjects.obj
 0001:00006a40       ?Grow@?$CUtlMemory@Udtexdata_t@@H@@QAEXH@Z 00407a40 f i writebsp.obj
 0001:00006af0       ?Parent@?$CUtlRBTree@UStaticPropLookup_t@@GP6A_NABU1@0@ZV?$CUtlMemory@U?$UtlRBTreeNode_t@UStaticPropLookup_t@@G@@G@@@@QBEGG@Z 00407af0 f i detailobjects.obj
 0001:00006c60       ??$PutTypeBin@H@CUtlBuffer@@IAEXH@Z 00407c60 f i detailobjects.obj
 0001:00006cc0       ?LeftChild@?$CUtlRBTree@UStaticPropLookup_t@@GP6A_NABU1@0@ZV?$CUtlMemory@U?$UtlRBTreeNode_t@UStaticPropLookup_t@@G@@G@@@@QBEGG@Z 00407cc0 f i detailobjects.obj
 0001:00006d20       ?RightChild@?$CUtlRBTree@UStaticPropLookup_t@@GP6A_NABU1@0@ZV?$CUtlMemory@U?$UtlRBTreeNode_t@UStaticPropLookup_t@@G@@G@@@@QBEGG@Z 00407d20 f i detailobjects.obj
 0001:00006d90       ?FindInsertionPosition@?$CUtlRBTree@UStaticPropLookup_t@@GP6A_NABU1@0@ZV?$CUtlMemory@U?$UtlRBTreeNode_t@UStaticPropLookup_t@@G@@G@@@@IAEXABUStaticPropLookup_t@@AAGAA_N@Z 00407d90 f i detailobjects.obj
 0001:00006e80       ?NewNode@?$CUtlRBTree@UStaticPropLookup_t@@GP6A_NABU1@0@ZV?$CUtlMemory@U?$UtlRBTreeNode_t@UStaticPropLookup_t@@G@@G@@@@QAEGXZ 00407e80 f i detailobjects.obj
 0001:00006f80       ?RotateLeft@?$CUtlRBTree@UStaticPropLookup_t@@GP6A_NABU1@0@ZV?$CUtlMemory@U?$UtlRBTreeNode_t@UStaticPropLookup_t@@G@@G@@@@IAEXG@Z 00407f80 f i detailobjects.obj
 0001:00007080       ?RotateRight@?$CUtlRBTree@UStaticPropLookup_t@@GP6A_NABU1@0@ZV?$CUtlMemory@U?$UtlRBTreeNode_t@UStaticPropLookup_t@@G@@G@@@@IAEXG@Z 00408080 f i detailobjects.obj
 0001:00007180       ?Find@?$CUtlRBTree@UStaticPropLookup_t@@GP6A_NABU1@0@ZV?$CUtlMemory@U?$UtlRBTreeNode_t@UStaticPropLookup_t@@G@@G@@@@QBEGABUStaticPropLookup_t@@@Z 00408180 f i detailobjects.obj
 0001:00007280       ?InsertBefore@?$CUtlVector@UDetailSpriteDictLump_t@@V?$CUtlMemory@UDetailSpriteDictLump_t@@H@@@@QAEHHABUDetailSpriteDictLump_t@@@Z 00408280 f i detailobjects.obj
 0001:00007310       ?RemoveAll@?$CUtlRBTree@UStaticPropLookup_t@@GP6A_NABU1@0@ZV?$CUtlMemory@U?$UtlRBTreeNode_t@UStaticPropLookup_t@@G@@G@@@@QAEXXZ 00408310 f i detailobjects.obj
 0001:000073d0       ?InsertRebalance@?$CUtlRBTree@UStaticPropLookup_t@@GP6A_NABU1@0@ZV?$CUtlMemory@U?$UtlRBTreeNode_t@UStaticPropLookup_t@@G@@G@@@@IAEXG@Z 004083d0 f i detailobjects.obj
 0001:00007b10       ?AddToTail@?$CUtlVector@UDetailObjectLump_t@@V?$CUtlMemory@UDetailObjectLump_t@@H@@@@QAEHXZ 00408b10 f i detailobjects.obj
 0001:00007b60       ?LinkToParent@?$CUtlRBTree@UStaticPropLookup_t@@GP6A_NABU1@0@ZV?$CUtlMemory@U?$UtlRBTreeNode_t@UStaticPropLookup_t@@G@@G@@@@IAEXGG_N@Z 00408b60 f i detailobjects.obj
 0001:00007e60       ??1?$CUtlRBTree@UStaticPropLookup_t@@GP6A_NABU1@0@ZV?$CUtlMemory@U?$UtlRBTreeNode_t@UStaticPropLookup_t@@G@@G@@@@QAE@XZ 00408e60 f i detailobjects.obj
 0001:00007ed0       ?InsertBefore@?$CUtlVector@UDetailObjectGroup_t@@V?$CUtlMemory@UDetailObjectGroup_t@@H@@@@QAEHH@Z 00408ed0 f i detailobjects.obj
 0001:00008cd0       ??1?$CUtlVector@Uclusterlist_t@@V?$CUtlMemory@Uclusterlist_t@@H@@@@QAE@XZ 00409cd0 f i bsplib.obj
 0001:00008cd0       ??1?$CUtlVector@UDetailObjectGroup_t@@V?$CUtlMemory@UDetailObjectGroup_t@@H@@@@QAE@XZ 00409cd0 f i detailobjects.obj
 0001:00008cd0       ??1?$CUtlVector@Udisp_grid_t@@V?$CUtlMemory@Udisp_grid_t@@H@@@@QAE@XZ 00409cd0 f i disp_ivp.obj
 0001:00008d30       ?EmitDetailModels@@YAXXZ   00409d30 f   detailobjects.obj
 0001:00009110       ?EmitDetailObjects@@YAXXZ  0040a110 f   detailobjects.obj
 0001:00009140       ?InsertBefore@?$CUtlVector@UDetailObject_t@@V?$CUtlMemory@UDetailObject_t@@H@@@@QAEHH@Z 0040a140 f i detailobjects.obj
 0001:000091d0       ?RemoveAll@?$CUtlVector@UDetailObject_t@@V?$CUtlMemory@UDetailObject_t@@H@@@@QAEXXZ 0040a1d0 f i detailobjects.obj
 0001:00009340       ?LoadEmitDetailObjectDictionary@@YAXPBD@Z 0040a340 f   detailobjects.obj
 0001:00009390       ??1?$CUtlVector@UDetailObject_t@@V?$CUtlMemory@UDetailObject_t@@H@@@@QAE@XZ 0040a390 f i detailobjects.obj
 0001:000093f0       ??9CVertIndex@@QBE_NABV0@@Z 0040a3f0 f i disp_common.obj
 0001:00009420       ?VectorMin@@YAXABVVector@@0AAV1@@Z 0040a420 f i disp_common.obj
 0001:00009480       ?VectorMax@@YAXABVVector@@0AAV1@@Z 0040a480 f i disp_common.obj
 0001:000094e0       ?SetInvalid@CDispNeighbor@@QAEXXZ 0040a4e0 f i disp_common.obj
 0001:000094f0       ?SetInvalid@CDispCornerNeighbors@@QAEXXZ 0040a4f0 f i disp_common.obj
 0001:00009500       ?GetPoint@CCoreDispSurface@@QBEXHAAVVector@@@Z 0040a500 f i disp_common.obj
 0001:00009530       ?GetSurface@CCoreDispInfo@@QAEPAVCCoreDispSurface@@XZ 0040a530 f i disp_common.obj
 0001:00009540       ?GetEdgeIndexFromPoint@@YAHABVCVertIndex@@H@Z 0040a540 f   disp_common.obj
 0001:00009590       ?GetSubNeighborIndex@@YAHPAVCDispUtilsHelper@@HABVCVertIndex@@@Z 0040a590 f   disp_common.obj
 0001:00009610       ?SetupSpan@@YAXHHW4NeighborSpan@@AAVCVertIndex@@1@Z 0040a610 f   disp_common.obj
 0001:000096a0       ?GetDispBox@@YAXPAVCCoreDispInfo@@AAVCDispBox@@@Z 0040a6a0 f   disp_common.obj
 0001:00009770       ?FindEdge@@YA_NPAVCCoreDispInfo@@ABVVector@@1AAH@Z 0040a770 f   disp_common.obj
 0001:00009830       ?AddNeighbor@@YAXPAVCCoreDispInfo@@HHW4NeighborSpan@@0H1@Z 0040a830 f   disp_common.obj
 0001:00009930       ?SetupEdgeNeighbors@@YAXPAVCCoreDispInfo@@0@Z 0040a930 f   disp_common.obj
 0001:00009b10       ?HasEdgeNeighbor@@YA_NPBVCCoreDispInfo@@H@Z 0040ab10 f   disp_common.obj
 0001:00009b80       ?TransformIntoSubNeighbor@@YAPAVCDispUtilsHelper@@PAV1@HHABVCVertIndex@@AAV2@@Z 0040ab80 f   disp_common.obj
 0001:00009c90       ?TransformIntoNeighbor@@YAPAVCDispUtilsHelper@@PAV1@HABVCVertIndex@@AAV2@@Z 0040ac90 f   disp_common.obj
 0001:00009d20       ?SetupCornerNeighbors@@YAXPAVCCoreDispInfo@@0PAH@Z 0040ad20 f   disp_common.obj
 0001:00009eb0       ?VerifyNeighborVertConnection@@YA_NPAVCDispUtilsHelper@@ABVCVertIndex@@PBV1@1H@Z 0040aeb0 f   disp_common.obj
 0001:00009f60       ?SetupEdgeIncrements@@YAPAVCDispUtilsHelper@@PAV1@HHAAVCVertIndex@@111AAH2@Z 0040af60 f   disp_common.obj
 0001:0000a120       ?Next@CDispEdgeIterator@@QAE_NXZ 0040b120 f   disp_common.obj
 0001:0000a1e0       ?VerifyNeighborConnections@@YAXPAPAVCCoreDispInfo@@H@Z 0040b1e0 f   disp_common.obj
 0001:0000a3a0       ?IsVertAllowed@@YA_NPAVCDispUtilsHelper@@ABVCVertIndex@@H@Z 0040b3a0 f   disp_common.obj
 0001:0000a510       ?UnallowVerts_R@@YAXPAVCDispUtilsHelper@@ABVCVertIndex@@AAH@Z 0040b510 f   disp_common.obj
 0001:0000a5b0       ?DisableUnallowedVerts_R@@YAXPAVCDispUtilsHelper@@ABVCVertIndex@@HAAH@Z 0040b5b0 f   disp_common.obj
 0001:0000a660       ?SetupAllowedVerts@@YAXPAPAVCCoreDispInfo@@H@Z 0040b660 f   disp_common.obj
 0001:0000a700       ?InsertMultipleBefore@?$CUtlVector@VCDispBox@@V?$CUtlMemory@VCDispBox@@H@@@@QAEHHHPBVCDispBox@@@Z 0040b700 f i disp_common.obj
 0001:0000a8c0       ?FindNeighboringDispSurfs@@YAXPAPAVCCoreDispInfo@@H@Z 0040b8c0 f   disp_common.obj
 0001:0000aa60       ?GetBoundingBox@CCoreDispNode@@QAEXAAVVector@@0@Z 0040ba60 f i disp_ivp.obj
 0001:0000aa90       ?GetTrianglesInSphere@CDispMeshEvent@@UAEXPAXABVVector@@MPAUvirtualmeshtrianglelist_t@@@Z 0040ba90 f   disp_ivp.obj
 0001:0000aad0       ??$SwapBufferToTargetEndian@G@CByteswap@@QAEXPAG0H@Z 0040bad0 f i bsplib.obj
 0001:0000aad0       ??$SwapBufferToTargetEndian@F@CByteswap@@QAEXPAF0H@Z 0040bad0 f i disp_ivp.obj
 0001:0000ab40       ?Grow@?$CUtlMemory@Udfaceid_t@@H@@QAEXH@Z 0040bb40 f i writebsp.obj
 0001:0000ab40       ?Grow@?$CUtlMemory@VCDispTri@@H@@QAEXH@Z 0040bb40 f i disp_vbsp.obj
 0001:0000ab40       ?Grow@?$CUtlMemory@VCFaceMacroTextureInfo@@H@@QAEXH@Z 0040bb40 f i writebsp.obj
 0001:0000ab40       ?Grow@?$CUtlMemory@UStaticPropLeafLump_t@@H@@QAEXH@Z 0040bb40 f i staticprop.obj
 0001:0000ab40       ?Grow@?$CUtlMemory@GH@@QAEXH@Z 0040bb40 f i disp_ivp.obj
 0001:0000abf0       ?Grow@?$CUtlMemory@U?$UtlRBTreeNode_t@UNode_t@?$CUtlMap@PBDHH@@H@@H@@QAEXH@Z 0040bbf0 f i writebsp.obj
 0001:0000abf0       ?Grow@?$CUtlMemory@Udisp_grid_t@@H@@QAEXH@Z 0040bbf0 f i disp_ivp.obj
 0001:0000abf0       ?Grow@?$CUtlMemory@UfileList_t@@H@@QAEXH@Z 0040bbf0 f i scriplib.obj
 0001:0000abf0       ?Grow@?$CUtlMemory@UDetailObjectGroup_t@@H@@QAEXH@Z 0040bbf0 f i detailobjects.obj
 0001:0000abf0       ?Grow@?$CUtlMemory@VCDispBox@@H@@QAEXH@Z 0040bbf0 f i disp_common.obj
 0001:0000ac90       ?GetVirtualMesh@CDispMeshEvent@@UAEXPAXPAUvirtualmeshlist_t@@@Z 0040bc90 f   disp_ivp.obj
 0001:0000acf0       ?GetWorldspaceBounds@CDispMeshEvent@@UAEXPAXPAVVector@@1@Z 0040bcf0 f   disp_ivp.obj
 0001:0000ad40       ??$PutObjects@Udphysdisp_t@@@CUtlBuffer@@QAEXPAUdphysdisp_t@@H@Z 0040bd40 f i disp_ivp.obj
 0001:0000adb0       ?InsertMultipleBefore@?$CUtlVector@DV?$CUtlMemory@DH@@@@QAEHHHPBD@Z 0040bdb0 f i disp_ivp.obj
 0001:0000ae40       ?InsertMultipleBefore@?$CUtlVector@VVector@@V?$CUtlMemory@VVector@@H@@@@QAEHHHPBVVector@@@Z 0040be40 f i disp_ivp.obj
 0001:0000af90       ?InsertBefore@?$CUtlVector@GV?$CUtlMemory@GH@@@@QAEHHABG@Z 0040bf90 f i disp_ivp.obj
 0001:0000b000       ??0CDispMeshEvent@@QAE@PAGHPAVCCoreDispInfo@@@Z 0040c000 f   disp_ivp.obj
 0001:0000b1b0       ?EnsureCount@?$CUtlVector@PAVCPhysCollide@@V?$CUtlMemory@PAVCPhysCollide@@H@@@@QAEXH@Z 0040c1b0 f i disp_ivp.obj
 0001:0000b220       ?RemoveAll@?$CUtlVector@Uclusterlist_t@@V?$CUtlMemory@Uclusterlist_t@@H@@@@QAEXXZ 0040c220 f i bsplib.obj
 0001:0000b220       ?RemoveAll@?$CUtlVector@Udisp_grid_t@@V?$CUtlMemory@Udisp_grid_t@@H@@@@QAEXXZ 0040c220 f i disp_ivp.obj
 0001:0000b220       ?RemoveAll@?$CUtlVector@UDetailObjectGroup_t@@V?$CUtlMemory@UDetailObjectGroup_t@@H@@@@QAEXXZ 0040c220 f i detailobjects.obj
 0001:0000b2c0       ??$TesselateDisplacementNode@VCVBSPTesselateHelper@@@@YAXPAVCVBSPTesselateHelper@@ABVCVertIndex@@HPAH@Z 0040c2c0 f i disp_ivp.obj
 0001:0000b540       ??$TesselateDisplacement_R@VCVBSPTesselateHelper@@@@YAXPAVCVBSPTesselateHelper@@ABVCVertIndex@@HH@Z 0040c540 f i disp_ivp.obj
 0001:0000b650       ?FindOrInsertGrid@@YAAAUdisp_grid_t@@H@Z 0040c650 f   disp_ivp.obj
 0001:0000b730       ?Disp_AddCollisionModels@@YAXAAV?$CUtlVector@PAVCPhysCollisionEntry@@V?$CUtlMemory@PAVCPhysCollisionEntry@@H@@@@PAUdmodel_t@@H@Z 0040c730 f   disp_ivp.obj
 0001:0000bc80       ?Disp_BuildVirtualMesh@@YAXH@Z 0040cc80 f   disp_ivp.obj
 0001:0000c730       ?GetPowerInfo@@YAPBVCPowerInfo@@H@Z 0040d730 f   disp_powerinfo.obj
 0001:0000c740       ?GetCornerPointIndex@CPowerInfo@@QBEABVCVertIndex@@H@Z 0040d740 f   disp_powerinfo.obj
 0001:0000c760       ??0CVertInfo@@QAE@XZ       0040d760 f   disp_powerinfo.obj
 0001:0000c960       ?InitPowerInfo@@YAXPAVCPowerInfo@@H@Z 0040d960 f   disp_powerinfo.obj
 0001:0000ce30       ?Vector2DCopy@@YAXABVVector2D@@AAV1@@Z 0040de30 f i disp_vbsp.obj
 0001:0000ce50       ?GetSize@CCoreDispInfo@@QBEHXZ 0040de50 f i disp_vbsp.obj
 0001:0000ce60       ?FindTriIndexMapByUV@@YA_NPAVCCoreDispInfo@@ABVVector2D@@AAHQAM@Z 0040de60 f   disp_vbsp.obj
 0001:0000cfe0       ?GetDispInfoEntityNum@@YAHPAUmapdispinfo_t@@@Z 0040dfe0 f   disp_vbsp.obj
 0001:0000cff0       ?DispGetFaceInfo@@YAXPAUmapbrush_t@@@Z 0040dff0 f   disp_vbsp.obj
 0001:0000d0f0       ?HasDispInfo@@YA_NPAUmapbrush_t@@@Z 0040e0f0 f   disp_vbsp.obj
 0001:0000d120       ??4ddispinfo_t@@QAEAAV0@ABV0@@Z 0040e120 f i disp_vbsp.obj
 0001:0000d290       ?Grow@?$CUtlMemory@Vddispinfo_t@@H@@QAEXH@Z 0040e290 f i disp_vbsp.obj
 0001:0000d340       ?Grow@?$CUtlMemory@DH@@QAEXH@Z 0040e340 f i disp_ivp.obj
 0001:0000d340       ?Grow@?$CUtlMemory@EH@@QAEXH@Z 0040e340 f i disp_vbsp.obj
 0001:0000d340       ?Grow@?$CUtlMemory@_NH@@QAEXH@Z 0040e340 f i disp_vbsp.obj
 0001:0000d3f0       ?Grow@?$CUtlMemory@PAVCCoreDispInfo@@H@@QAEXH@Z 0040e3f0 f i disp_vbsp.obj
 0001:0000d3f0       ?Grow@?$CUtlMemory@PAUside_t@@H@@QAEXH@Z 0040e3f0 f i vbsp.obj
 0001:0000d3f0       ?Grow@?$CUtlMemory@PAVCPhysConvex@@H@@QAEXH@Z 0040e3f0 f i ivp.obj
 0001:0000d3f0       ?Grow@?$CUtlMemory@PAUmapbrush_t@@H@@QAEXH@Z 0040e3f0 f i vbsp.obj
 0001:0000d3f0       ?Grow@?$CUtlMemory@HH@@QAEXH@Z 0040e3f0 f i brushbsp.obj
 0001:0000d3f0       ?Grow@?$CUtlMemory@PAUbspbrush_t@@H@@QAEXH@Z 0040e3f0 f i detail.obj
 0001:0000d3f0       ?Grow@?$CUtlMemory@PAVCPhysCollisionEntry@@H@@QAEXH@Z 0040e3f0 f i disp_ivp.obj
 0001:0000d3f0       ?Grow@?$CUtlMemory@Udleafambientindex_t@@H@@QAEXH@Z 0040e3f0 f i bsplib.obj
 0001:0000d3f0       ?Grow@?$CUtlMemory@PAUportal_t@@H@@QAEXH@Z 0040e3f0 f i portals.obj
 0001:0000d3f0       ?Grow@?$CUtlMemory@PAUStringPool_t@CUtlSymbolTable@@H@@QAEXH@Z 0040e3f0 f i tier1:utlsymbol.obj
 0001:0000d3f0       ?Grow@?$CUtlMemory@PAVCPhysCollide@@H@@QAEXH@Z 0040e3f0 f i disp_ivp.obj
 0001:0000d3f0       ?Grow@?$CUtlMemory@PAUdface_t@@H@@QAEXH@Z 0040e3f0 f i disp_vbsp.obj
 0001:0000d3f0       ?Grow@?$CUtlMemory@PADH@@QAEXH@Z 0040e3f0 f i cubemap.obj
 0001:0000d3f0       ?Grow@?$CUtlMemory@UOccluderInfo_t@@H@@QAEXH@Z 0040e3f0 f i vbsp.obj
 0001:0000d3f0       ?Grow@?$CUtlMemory@PAVKeyValues@@H@@QAEXH@Z 0040e3f0 f i tier1:KeyValues.obj
 0001:0000d3f0       ?Grow@?$CUtlMemory@PAUface_t@@H@@QAEXH@Z 0040e3f0 f i vbsp.obj
 0001:0000d3f0       ?Grow@?$CUtlMemory@PAUnode_t@@H@@QAEXH@Z 0040e3f0 f i ivp.obj
 0001:0000d4a0       ?ExportNeighborData@@YAXPAPAVCCoreDispInfo@@PAVddispinfo_t@@H@Z 0040e4a0 f   disp_vbsp.obj
 0001:0000d5d0       ?ExportAllowedVertLists@@YAXPAPAVCCoreDispInfo@@PAVddispinfo_t@@H@Z 0040e5d0 f   disp_vbsp.obj
 0001:0000d660       ?FindEnclosingTri@@YA_NABVVector2D@@AAV?$CUtlVector@VVector2D@@V?$CUtlMemory@VVector2D@@H@@@@AAV?$CUtlVector@GV?$CUtlMemory@GH@@@@PAHQAM@Z 0040e660 f   disp_vbsp.obj
 0001:0000d7b0       ?InsertMultipleBefore@?$CUtlVector@Vddispinfo_t@@V?$CUtlMemory@Vddispinfo_t@@H@@@@QAEHHHPBVddispinfo_t@@@Z 0040e7b0 f i disp_vbsp.obj
 0001:0000d860       ?InsertMultipleBefore@?$CUtlVector@VVector2D@@V?$CUtlMemory@VVector2D@@H@@@@QAEHHHPBVVector2D@@@Z 0040e860 f i disp_vbsp.obj
 0001:0000d980       ?InsertMultipleBefore@?$CUtlVector@VCDispVert@@V?$CUtlMemory@VCDispVert@@H@@@@QAEHHHPBVCDispVert@@@Z 0040e980 f i disp_vbsp.obj
 0001:0000db10       ?CalculateLightmapSamplePositions@@YAXPAVCCoreDispInfo@@PBUdface_t@@AAV?$CUtlVector@EV?$CUtlMemory@EH@@@@@Z 0040eb10 f   disp_vbsp.obj
 0001:0000dea0       ?DispMapToCoreDispInfo@@YAXPAUmapdispinfo_t@@PAVCCoreDispInfo@@PAUdface_t@@PAH@Z 0040eea0 f   disp_vbsp.obj
 0001:0000e310       ?ComputeDispInfoBounds@@YAXHAAVVector@@0@Z 0040f310 f   disp_vbsp.obj
 0001:0000e390       ?EmitInitialDispInfos@@YAXXZ 0040f390 f   disp_vbsp.obj
 0001:0000e760       ?SnapRemainingVertsToSurface@@YAXPAPAVCCoreDispInfo@@PAVddispinfo_t@@H@Z 0040f760 f   disp_vbsp.obj
 0001:0000eb10       ?EmitDispLMAlphaAndNeighbors@@YAXXZ 0040fb10 f   disp_vbsp.obj
 0001:0000ee30       ?GetVertexnum@@YAHAAVVector@@@Z 0040fe30 f   faces.obj
 0001:0000efe0       ?FindEdgeVerts@@YAXAAVVector@@0@Z 0040ffe0 f   faces.obj
 0001:0000f0d0       ?TestEdge@@YAXMMHHH@Z      004100d0 f   faces.obj
 0001:0000f270       ?AllocFace@@YAPAUface_t@@XZ 00410270 f   faces.obj
 0001:0000f2b0       ?NewFaceFromFace@@YAPAUface_t@@PAU1@@Z 004102b0 f   faces.obj
 0001:0000f310       ?FreeFace@@YAXPAUface_t@@@Z 00410310 f   faces.obj
 0001:0000f340       ?FreeFaceList@@YAXPAUface_t@@@Z 00410340 f   faces.obj
 0001:0000f380       ?TryMergeWinding@@YAPAUwinding_t@@PAU1@0AAVVector@@@Z 00410380 f   faces.obj
 0001:0000f6f0       ?FaceOnWaterBrush@@YA_NPAUface_t@@@Z 004106f0 f   faces.obj
 0001:0000f710       ?FaceFromSuperverts@@YAXPAPAUface_t@@PAU1@H@Z 00410710 f   faces.obj
 0001:0000f890       ?EmitFaceVertexes@@YAXPAPAUface_t@@PAU1@@Z 00410890 f   faces.obj
 0001:0000f980       ?EmitNodeFaceVertexes_r@@YAXPAUnode_t@@@Z 00410980 f   faces.obj
 0001:0000fad0       ?EmitLeafFaceVertexes@@YAXPAPAUface_t@@@Z 00410ad0 f   faces.obj
 0001:0000fbf0       ?IntSort@@YAXAAV?$CUtlVector@HV?$CUtlMemory@HH@@@@@Z 00410bf0 f   faces.obj
 0001:0000fc40       ?SubdivideFace@@YAXPAPAUface_t@@PAU1@@Z 00410c40 f   faces.obj
 0001:0000ff10       ?SubdivideFaceList@@YAXPAPAUface_t@@@Z 00410f10 f   faces.obj
 0001:00010320       ?FaceFromPortal@@YAPAUface_t@@PAUportal_t@@H@Z 00411320 f   faces.obj
 0001:000104c0       ?GetEdge2_InitOptimizedList@@YAXXZ 004114c0 f   faces.obj
 0001:000104f0       ?OverlaysAreEqual@@YA_NPAUface_t@@0@Z 004114f0 f   faces.obj
 0001:00010560       ?TryMerge@@YAPAUface_t@@PAU1@0AAVVector@@@Z 00411560 f   faces.obj
 0001:00010630       ?MergeFaceList@@YAXPAPAUface_t@@@Z 00411630 f   faces.obj
 0001:000106d0       ?MakeFaces_r@@YAXPAUnode_t@@@Z 004116d0 f   faces.obj
 0001:00010780       ?MakeFaces@@YAXPAUnode_t@@@Z 00411780 f   faces.obj
 0001:000107e0       ?InsertMultipleBefore@?$CUtlVector@Uface_vert_table_t@@V?$CUtlMemory@Uface_vert_table_t@@H@@@@QAEHHHPBUface_vert_table_t@@@Z 004117e0 f i faces.obj
 0001:000108b0       ?Triangulate_r@@YAXAAV?$CUtlVector@HV?$CUtlMemory@HH@@@@ABV1@ABV?$CUtlVector@Uface_vert_table_t@@V?$CUtlMemory@Uface_vert_table_t@@H@@@@@Z 004118b0 f   faces.obj
 0001:00010c30       ?FixFaceEdges@@YAXPAPAUface_t@@PAU1@@Z 00411c30 f   faces.obj
 0001:00011050       ?FixEdges_r@@YAXPAUnode_t@@@Z 00412050 f   faces.obj
 0001:000110b0       ?FixTjuncs@@YAPAUface_t@@PAUnode_t@@PAU1@@Z 004120b0 f   faces.obj
 0001:00011210       ?AddEdge@@YAHHHPAUface_t@@@Z 00412210 f   faces.obj
 0001:00011340       ?GetEdge2@@YAHHHPAUface_t@@@Z 00412340 f   faces.obj
 0001:00011560       ?OutputWinding@@YAXPAUwinding_t@@PAX@Z 00412560 f   glfile.obj
 0001:00011600       ?WriteGLView_r@@YAXPAUnode_t@@PAX@Z 00412600 f   glfile.obj
 0001:000116c0       ?WriteGLView@@YAXPAUtree_t@@PAD@Z 004126c0 f   glfile.obj
 0001:00011770       ?DumpCollideToGlView@@YAXPAVCPhysCollide@@PBD@Z 00412770 f   ivp.obj
 0001:000118a0       ??0CPhysCollisionEntryStaticMesh@@QAE@PAVCPhysCollide@@PBD@Z 004128a0 f   ivp.obj
 0001:000118c0       ??0CPhysCollisionEntryFluid@@QAE@PAVCPhysCollide@@PBDMABVVector@@MH@Z 004128c0 f   ivp.obj
 0001:00011930       ?GetFirstBrushSide@CPlaneList@@QAEHXZ 00412930 f   ivp.obj
 0001:000119a0       ?EmitWaterMaterialFile@@YAXPAUWaterTexInfo@@@Z 004129a0 f   ivp.obj
 0001:00011bc0       ?FirstWaterTexinfo@@YAHPAUbspbrush_t@@H@Z 00412bc0 f   ivp.obj
 0001:00011dc0       ?Grow@?$CUtlMemory@Uwaterleaf_t@@H@@QAEXH@Z 00412dc0 f i ivp.obj
 0001:00011dc0       ?Grow@?$CUtlMemory@U?$UtlRBTreeNode_t@VCZipEntry@CZipFile@@H@@H@@QAEXH@Z 00412dc0 f i zip_utils.obj
 0001:00011e70       ?Parent@?$CUtlRBTree@UWaterTexInfo@@HP6A_NABU1@0@ZV?$CUtlMemory@U?$UtlRBTreeNode_t@UWaterTexInfo@@H@@H@@@@QBEHH@Z 00412e70 f i ivp.obj
 0001:00011ed0       ?DumpCollideToPHY@@YAXPAVCPhysCollide@@PAVCTextBuffer@@PBD@Z 00412ed0 f   ivp.obj
 0001:00011fa0       ?DumpCollide@CPhysCollisionEntrySolid@@UAEXPAVCTextBuffer@@HH@Z 00412fa0 f   ivp.obj
 0001:00012010       ?DumpCollide@CPhysCollisionEntryStaticSolid@@UAEXPAVCTextBuffer@@HH@Z 00413010 f   ivp.obj
 0001:00012090       ?DumpCollide@CPhysCollisionEntryStaticMesh@@UAEXPAVCTextBuffer@@HH@Z 00413090 f   ivp.obj
 0001:00012110       ?DumpCollide@CPhysCollisionEntryFluid@@UAEXPAVCTextBuffer@@HH@Z 00413110 f   ivp.obj
 0001:000122d0       ?LeftChild@?$CUtlRBTree@UWaterTexInfo@@HP6A_NABU1@0@ZV?$CUtlMemory@U?$UtlRBTreeNode_t@UWaterTexInfo@@H@@H@@@@QBEHH@Z 004132d0 f i ivp.obj
 0001:00012330       ?RightChild@?$CUtlRBTree@UWaterTexInfo@@HP6A_NABU1@0@ZV?$CUtlMemory@U?$UtlRBTreeNode_t@UWaterTexInfo@@H@@H@@@@QBEHH@Z 00413330 f i ivp.obj
 0001:00012390       ?FindInsertionPosition@?$CUtlRBTree@UWaterTexInfo@@HP6A_NABU1@0@ZV?$CUtlMemory@U?$UtlRBTreeNode_t@UWaterTexInfo@@H@@H@@@@IAEXABUWaterTexInfo@@AAHAA_N@Z 00413390 f i ivp.obj
 0001:00012490       ?NewNode@?$CUtlRBTree@UWaterTexInfo@@HP6A_NABU1@0@ZV?$CUtlMemory@U?$UtlRBTreeNode_t@UWaterTexInfo@@H@@H@@@@QAEHXZ 00413490 f i ivp.obj
 0001:00012570       ?IsLeftChild@?$CUtlRBTree@UWaterTexInfo@@HP6A_NABU1@0@ZV?$CUtlMemory@U?$UtlRBTreeNode_t@UWaterTexInfo@@H@@H@@@@QBE_NH@Z 00413570 f i ivp.obj
 0001:00012630       ?IsRightChild@?$CUtlRBTree@UWaterTexInfo@@HP6A_NABU1@0@ZV?$CUtlMemory@U?$UtlRBTreeNode_t@UWaterTexInfo@@H@@H@@@@QBE_NH@Z 00413630 f i ivp.obj
 0001:000126f0       ?RotateLeft@?$CUtlRBTree@UWaterTexInfo@@HP6A_NABU1@0@ZV?$CUtlMemory@U?$UtlRBTreeNode_t@UWaterTexInfo@@H@@H@@@@IAEXH@Z 004136f0 f i ivp.obj
 0001:000128a0       ?RotateRight@?$CUtlRBTree@UWaterTexInfo@@HP6A_NABU1@0@ZV?$CUtlMemory@U?$UtlRBTreeNode_t@UWaterTexInfo@@H@@H@@@@IAEXH@Z 004138a0 f i ivp.obj
 0001:00012a50       ?Find@?$CUtlRBTree@UWaterTexInfo@@HP6A_NABU1@0@ZV?$CUtlMemory@U?$UtlRBTreeNode_t@UWaterTexInfo@@H@@H@@@@QBEHABUWaterTexInfo@@@Z 00413a50 f i ivp.obj
 0001:00012b50       ?RemoveAll@?$CUtlRBTree@UWaterTexInfo@@HP6A_NABU1@0@ZV?$CUtlMemory@U?$UtlRBTreeNode_t@UWaterTexInfo@@H@@H@@@@QAEXXZ 00413b50 f i ivp.obj
 0001:00012be0       ?InsertRebalance@?$CUtlRBTree@UWaterTexInfo@@HP6A_NABU1@0@ZV?$CUtlMemory@U?$UtlRBTreeNode_t@UWaterTexInfo@@H@@H@@@@IAEXH@Z 00413be0 f i ivp.obj
 0001:000130b0       ?LinkToParent@?$CUtlRBTree@UWaterTexInfo@@HP6A_NABU1@0@ZV?$CUtlMemory@U?$UtlRBTreeNode_t@UWaterTexInfo@@H@@H@@@@IAEXHH_N@Z 004140b0 f i ivp.obj
 0001:00013130       ?CopyData@CTextBuffer@@AAEXPBDH@Z 00414130 f   ivp.obj
 0001:00013230       ?RemapWorldMaterial@@YAHH@Z 00414230 f   ivp.obj
 0001:00013250       ??0CPlaneList@@QAE@MM@Z    00414250 f   ivp.obj
 0001:000132e0       ?AddConvex@CPlaneList@@QAEXPAVCPhysConvex@@@Z 004142e0 f   ivp.obj
 0001:00013360       ?BuildConvexForBrush@CPlaneList@@AAEPAVCPhysConvex@@HMPAVCPhysCollide@@M@Z 00414360 f   ivp.obj
 0001:000135b0       ?AddBrushes@CPlaneList@@QAEHXZ 004145b0 f   ivp.obj
 0001:000136a0       ?EnumLeaves_r@@YAXAAV?$CUtlVector@PAUnode_t@@V?$CUtlMemory@PAUnode_t@@H@@@@PAUnode_t@@H@Z 004146a0 f   ivp.obj
 0001:00014510       ??1?$CUtlRBTree@UWaterTexInfo@@HP6A_NABU1@0@ZV?$CUtlMemory@U?$UtlRBTreeNode_t@UWaterTexInfo@@H@@H@@@@QAE@XZ 00415510 f i ivp.obj
 0001:00014570       ?WriteIntKey@CTextBuffer@@QAEXPBDH@Z 00415570 f   ivp.obj
 0001:000145f0       ?WriteFloatKey@CTextBuffer@@QAEXPBDM@Z 004155f0 f   ivp.obj
 0001:00014680       ?WriteFloatArrayKey@CTextBuffer@@QAEXPBDPBMH@Z 00415680 f   ivp.obj
 0001:000147f0       ?CopyStringQuotes@CTextBuffer@@QAEXPBD@Z 004157f0 f   ivp.obj
 0001:000148a0       ?WriteToTextBuffer@CPhysCollisionEntryStaticSolid@@UAEXPAVCTextBuffer@@HH@Z 004158a0 f   ivp.obj
 0001:000148f0       ?WriteToTextBuffer@CPhysCollisionEntryStaticMesh@@UAEXPAVCTextBuffer@@HH@Z 004158f0 f   ivp.obj
 0001:00014930       ?EmitPhysCollision@@YAXXZ  00415930 f   ivp.obj
 0001:00015060       ?Insert@?$CUtlRBTree@UWaterTexInfo@@HP6A_NABU1@0@ZV?$CUtlMemory@U?$UtlRBTreeNode_t@UWaterTexInfo@@H@@H@@@@QAEHABUWaterTexInfo@@@Z 00416060 f i ivp.obj
 0001:000150e0       ?WriteStringKey@CTextBuffer@@QAEXPBD0@Z 004160e0 f   ivp.obj
 0001:00015190       ?WriteToTextBuffer@CPhysCollisionEntrySolid@@UAEXPAVCTextBuffer@@HH@Z 00416190 f   ivp.obj
 0001:00015220       ?WriteToTextBuffer@CPhysCollisionEntryFluid@@UAEXPAVCTextBuffer@@HH@Z 00416220 f   ivp.obj
 0001:000152e0       ?FindOrCreateWaterTexInfo@@YAHPAUtexinfo_s@@M@Z 004162e0 f   ivp.obj
 0001:00015450       ?EmitWaterVolumesForBSP@@YAXPAUdmodel_t@@PAUnode_t@@@Z 00416450 f   ivp.obj
 0001:000157c0       ?LeakFile@@YAXPAUtree_t@@@Z 004167c0 f   leakfile.obj
 0001:00015970       ?AreaportalLeakFile@@YAXPAUtree_t@@PAUportal_t@@1PAUnode_t@@@Z 00416970 f   leakfile.obj
 0001:00015db0       ?LoadCmdLineFromFile@@YAXAAHAAPAPADPBD2@Z 00416db0 f   loadcmdline.obj
 0001:00015e80       ?DeleteCmdLine@@YAXHPAPAD@Z 00416e80 f   loadcmdline.obj
 0001:00015ec0       ?ReportError@CMapError@@QAEXPBD@Z 00416ec0 f i map.obj
 0001:00015ef0       ?PlaneTypeForNormal@@YAHAAVVector@@@Z 00416ef0 f   map.obj
 0001:00015fd0       ?SnapVector@@YA_NAAVVector@@@Z 00416fd0 f   map.obj
 0001:00016040       ?SnapPlane@@YAXAAVVector@@AAMABV1@22@Z 00417040 f   map.obj
 0001:00016100       ?IsAreaPortal@@YA_NPBD@Z   00417100 f   map.obj
 0001:00016130       ??4brush_texture_t@@QAEAAU0@ABU0@@Z 00417130 f i map.obj
 0001:000161b0       ?MakeBrushWindings@@YAHPAUmapbrush_t@@@Z 004171b0 f   map.obj
 0001:00016340       ?MoveBrushesToWorld@@YAXPAUentity_t@@@Z 00417340 f   map.obj
 0001:00016410       ?RemoveContentsDetailFromEntity@@YAXPAUentity_t@@@Z 00417410 f   map.obj
 0001:00016470       ?LoadDispDistancesKeyCallback@@YA?AW4ChunkFileResult_t@@PBD0PAUmapdispinfo_t@@@Z 00417470 f   map.obj
 0001:00016520       ?LoadDispInfoKeyCallback@@YA?AW4ChunkFileResult_t@@PBD0PAUmapdispinfo_t@@@Z 00417520 f   map.obj
 0001:00016660       ?LoadDispNormalsKeyCallback@@YA?AW4ChunkFileResult_t@@PBD0PAUmapdispinfo_t@@@Z 00417660 f   map.obj
 0001:00016770       ?LoadDispOffsetsKeyCallback@@YA?AW4ChunkFileResult_t@@PBD0PAUmapdispinfo_t@@@Z 00417770 f   map.obj
 0001:00016880       ?LoadDispAlphasKeyCallback@@YA?AW4ChunkFileResult_t@@PBD0PAUmapdispinfo_t@@@Z 00417880 f   map.obj
 0001:00016930       ?LoadDispTriangleTagsKeyCallback@@YA?AW4ChunkFileResult_t@@PBD0PAUmapdispinfo_t@@@Z 00417930 f   map.obj
 0001:00016a20       ?ConvertSideList@@YAXPAUentity_t@@PAD@Z 00417a20 f   map.obj
 0001:00016b80       ?AddLadderKeys@@YAXPAUentity_t@@@Z 00417b80 f   map.obj
 0001:00016ce0       ?EntityByName@@YAPAUentity_t@@PBD@Z 00417ce0 f   map.obj
 0001:00016d40       ?ForceFuncAreaPortalWindowContents@@YAXXZ 00417d40 f   map.obj
 0001:00016e40       ?LoadSideKeyCallback@@YA?AW4ChunkFileResult_t@@PBD0PAULoadSide_t@@@Z 00417e40 f   map.obj
 0001:00017170       ?LoadConnectionsKeyCallback@@YA?AW4ChunkFileResult_t@@PBD0PAULoadEntity_t@@@Z 00418170 f   map.obj
 0001:00017220       ?LoadSolidKeyCallback@@YA?AW4ChunkFileResult_t@@PBD0PAUmapbrush_t@@@Z 00418220 f   map.obj
 0001:00017260       ?LoadDispDistancesCallback@@YA?AW4ChunkFileResult_t@@PAVCChunkFile@@PAUmapdispinfo_t@@@Z 00418260 f   map.obj
 0001:00017280       ?LoadDispNormalsCallback@@YA?AW4ChunkFileResult_t@@PAVCChunkFile@@PAUmapdispinfo_t@@@Z 00418280 f   map.obj
 0001:000172a0       ?LoadDispOffsetsCallback@@YA?AW4ChunkFileResult_t@@PAVCChunkFile@@PAUmapdispinfo_t@@@Z 004182a0 f   map.obj
 0001:000172c0       ?LoadDispAlphasCallback@@YA?AW4ChunkFileResult_t@@PAVCChunkFile@@PAUmapdispinfo_t@@@Z 004182c0 f   map.obj
 0001:000172e0       ?LoadDispTriangleTagsCallback@@YA?AW4ChunkFileResult_t@@PAVCChunkFile@@PAUmapdispinfo_t@@@Z 004182e0 f   map.obj
 0001:00017300       ?LoadConnectionsCallback@@YA?AW4ChunkFileResult_t@@PAVCChunkFile@@PAULoadEntity_t@@@Z 00418300 f   map.obj
 0001:00017320       ?Grow@?$CUtlMemory@Umapoverlay_t@@H@@QAEXH@Z 00418320 f i map.obj
 0001:000173d0       ?CreateNewFloatPlane@@YAHAAVVector@@M@Z 004183d0 f   map.obj
 0001:00017600       ?FindFloatPlane@@YAHAAVVector@@M@Z 00418600 f   map.obj
 0001:00017710       ?PlaneFromPoints@@YAHABVVector@@00@Z 00418710 f   map.obj
 0001:000177c0       ?LoadDispInfoCallback@@YA?AW4ChunkFileResult_t@@PAVCChunkFile@@PAPAUmapdispinfo_t@@@Z 004187c0 f   map.obj
 0001:000178c0       ?LoadSideCallback@@YA?AW4ChunkFileResult_t@@PAVCChunkFile@@PAULoadSide_t@@@Z 004188c0 f   map.obj
 0001:00017b30       ??1side_t@@QAE@XZ          00418b30 f i map.obj
 0001:00017bc0       ?HandleNoDynamicShadowsEnt@@YA?AW4ChunkFileResult_t@@PAUentity_t@@@Z 00418bc0 f   map.obj
 0001:000180e0       ?InsertBefore@?$CUtlVector@Umapoverlay_t@@V?$CUtlMemory@Umapoverlay_t@@H@@@@QAEHH@Z 004190e0 f i map.obj
 0001:00018190       ?AddBrushBevels@@YAXPAUmapbrush_t@@@Z 00419190 f   map.obj
 0001:00018c70       ?LoadSolidCallback@@YA?AW4ChunkFileResult_t@@PAVCChunkFile@@PAULoadEntity_t@@@Z 00419c70 f   map.obj
 0001:00018f50       ?LoadEntityCallback@@YA?AW4ChunkFileResult_t@@PAVCChunkFile@@H@Z 00419f50 f   map.obj
 0001:000195a0       ?LoadMapFile@@YAXPBD@Z     0041a5a0 f   map.obj
 0001:00019880       ?CreateMaterialPatchRecursive@@YAXPAVKeyValues@@0HPBUMaterialPatchInfo_t@@@Z 0041a880 f   materialpatch.obj
 0001:00019ae0       ?Parent@?$CUtlRBTree@UNameTranslationLookup_t@@HP6A_NABU1@0@ZV?$CUtlMemory@U?$UtlRBTreeNode_t@UNameTranslationLookup_t@@H@@H@@@@QBEHH@Z 0041aae0 f i materialpatch.obj
 0001:00019b40       ?RightChild@?$CUtlRBTree@UNameTranslationLookup_t@@HP6A_NABU1@0@ZV?$CUtlMemory@U?$UtlRBTreeNode_t@UNameTranslationLookup_t@@H@@H@@@@QBEHH@Z 0041ab40 f i materialpatch.obj
 0001:00019ba0       ?FindInsertionPosition@?$CUtlRBTree@UNameTranslationLookup_t@@HP6A_NABU1@0@ZV?$CUtlMemory@U?$UtlRBTreeNode_t@UNameTranslationLookup_t@@H@@H@@@@IAEXABUNameTranslationLookup_t@@AAHAA_N@Z 0041aba0 f i materialpatch.obj
 0001:00019c90       ?NewNode@?$CUtlRBTree@UNameTranslationLookup_t@@HP6A_NABU1@0@ZV?$CUtlMemory@U?$UtlRBTreeNode_t@UNameTranslationLookup_t@@H@@H@@@@QAEHXZ 0041ac90 f i materialpatch.obj
 0001:00019d60       ?IsLeftChild@?$CUtlRBTree@UNameTranslationLookup_t@@HP6A_NABU1@0@ZV?$CUtlMemory@U?$UtlRBTreeNode_t@UNameTranslationLookup_t@@H@@H@@@@QBE_NH@Z 0041ad60 f i materialpatch.obj
 0001:00019e10       ?IsRightChild@?$CUtlRBTree@UNameTranslationLookup_t@@HP6A_NABU1@0@ZV?$CUtlMemory@U?$UtlRBTreeNode_t@UNameTranslationLookup_t@@H@@H@@@@QBE_NH@Z 0041ae10 f i materialpatch.obj
 0001:00019ec0       ?RotateLeft@?$CUtlRBTree@UNameTranslationLookup_t@@HP6A_NABU1@0@ZV?$CUtlMemory@U?$UtlRBTreeNode_t@UNameTranslationLookup_t@@H@@H@@@@IAEXH@Z 0041aec0 f i materialpatch.obj
 0001:0001a070       ?RotateRight@?$CUtlRBTree@UNameTranslationLookup_t@@HP6A_NABU1@0@ZV?$CUtlMemory@U?$UtlRBTreeNode_t@UNameTranslationLookup_t@@H@@H@@@@IAEXH@Z 0041b070 f i materialpatch.obj
 0001:0001a1e0       ?LoadKeyValuesFromPackOrFile@@YA_NPBDPAVKeyValues@@@Z 0041b1e0 f   materialpatch.obj
 0001:0001a430       ?LoadMaterialKeyValues@@YAPAVKeyValues@@PBDI@Z 0041b430 f   materialpatch.obj
 0001:0001a4b0       ?WriteMaterialKeyValuesToPak@@YAXPBDPAVKeyValues@@@Z 0041b4b0 f   materialpatch.obj
 0001:0001a540       ?GetValueFromPatchedMaterial@@YA_NPBD0PADH@Z 0041b540 f   materialpatch.obj
 0001:0001a5f0       ?Find@?$CUtlRBTree@UNameTranslationLookup_t@@HP6A_NABU1@0@ZV?$CUtlMemory@U?$UtlRBTreeNode_t@UNameTranslationLookup_t@@H@@H@@@@QBEHABUNameTranslationLookup_t@@@Z 0041b5f0 f i materialpatch.obj
 0001:0001a6e0       ?RemoveAll@?$CUtlRBTree@UNameTranslationLookup_t@@HP6A_NABU1@0@ZV?$CUtlMemory@U?$UtlRBTreeNode_t@UNameTranslationLookup_t@@H@@H@@@@QAEXXZ 0041b6e0 f i materialpatch.obj
 0001:0001a7a0       ?InsertRebalance@?$CUtlRBTree@UNameTranslationLookup_t@@HP6A_NABU1@0@ZV?$CUtlMemory@U?$UtlRBTreeNode_t@UNameTranslationLookup_t@@H@@H@@@@IAEXH@Z 0041b7a0 f i materialpatch.obj
 0001:0001ac00       ?GetOriginalMaterialNameForPatchedMaterial@@YAPBDPBD@Z 0041bc00 f   materialpatch.obj
 0001:0001ac80       ?DoesMaterialHaveKey@@YA_NPBD0@Z 0041bc80 f   materialpatch.obj
 0001:0001ad20       ?DoesMaterialHaveKeyValuePair@@YA_NPBD00@Z 0041bd20 f   materialpatch.obj
 0001:0001adc0       ?GetValueFromMaterial@@YA_NPBD0PADH@Z 0041bdc0 f   materialpatch.obj
 0001:0001ae70       ?FindOriginalMaterial@@YAPAXPBDPA_N_N@Z 0041be70 f   materialpatch.obj
 0001:0001aea0       ??1?$CUtlRBTree@UNameTranslationLookup_t@@HP6A_NABU1@0@ZV?$CUtlMemory@U?$UtlRBTreeNode_t@UNameTranslationLookup_t@@H@@H@@@@QAE@XZ 0041bea0 f i materialpatch.obj
 0001:0001af00       ?AddNewTranslation@@YAXPBD0@Z 0041bf00 f   materialpatch.obj
 0001:0001afe0       ?CreateMaterialPatch@@YAXPBD0HPBUMaterialPatchInfo_t@@W4MaterialPatchType_t@@@Z 0041bfe0 f   materialpatch.obj
 0001:0001b1b0       ?CreateMaterialPatch@@YAXPBD000W4MaterialPatchType_t@@@Z 0041c1b0 f   materialpatch.obj
 0001:0001b1f0       ?LoadMaterialReplacementKeys@@YAXPBD0@Z 0041c1f0 f   materialsub.obj
 0001:0001b310       ?DeleteMaterialReplacementKeys@@YAXXZ 0041c310 f   materialsub.obj
 0001:0001b330       ?ReplaceMaterialName@@YAPBDPBD@Z 0041c330 f   materialsub.obj
 0001:0001b380       ?MakeModuleFileName@@YAPBDXZ 0041c380 f   memoverride.obj
 0001:0001b410       ??3@YAXPAX@Z               0041c410 f   memoverride.obj
 0001:0001b410       ??_V@YAXPAX@Z              0041c410 f   memoverride.obj
 0001:0001b410       _free                      0041c410 f   memoverride.obj
 0001:0001b430       __realloc_base             0041c430 f   memoverride.obj
 0001:0001b430       _realloc                   0041c430 f   memoverride.obj
 0001:0001b490       _calloc                    0041c490 f   memoverride.obj
 0001:0001b510       __calloc_base              0041c510 f   memoverride.obj
 0001:0001b590       __recalloc_base            0041c590 f   memoverride.obj
 0001:0001b620       __calloc_crt               0041c620 f   memoverride.obj
 0001:0001b640       __realloc_crt              0041c640 f   memoverride.obj
 0001:0001b650       __recalloc_crt             0041c650 f   memoverride.obj
 0001:0001b670       __msize                    0041c670 f   memoverride.obj
 0001:0001b690       __heap_init                0041c690 f   memoverride.obj
 0001:0001b6a0       ??2@YAPAXI@Z               0041c6a0 f   memoverride.obj
 0001:0001b6a0       _malloc                    0041c6a0 f   memoverride.obj
 0001:0001b6a0       ??_U@YAPAXI@Z              0041c6a0 f   memoverride.obj
 0001:0001b6a0       __malloc_crt               0041c6a0 f   memoverride.obj
 0001:0001b700       __strdup                   0041c700 f   memoverride.obj
 0001:0001b780       __wcsdup                   0041c780 f   memoverride.obj
 0001:0001b780       ?sync@?$basic_streambuf@DU?$char_traits@D@std@@@std@@MAEHXZ 0041c780 f   chunkfile.obj
 0001:0001b780       ?GetBufferType@CCodecBuffer@@UBE?BW4_CodecBufferType@@XZ 0041c780 f   bitmap:CodecBuffer.obj
 0001:0001b790       ??1bad_alloc@std@@UAE@XZ   0041c790 f i mstristrip.obj
 0001:0001b7a0       ??_Gbad_alloc@std@@UAEPAXI@Z 0041c7a0 f i mstristrip.obj
 0001:0001b7a0       ??_Ebad_alloc@std@@UAEPAXI@Z 0041c7a0 f i mstristrip.obj
 0001:0001b7d0       ??0bad_alloc@std@@QAE@ABV01@@Z 0041c7d0 f i mstristrip.obj
 0001:0001b7f0       ?SaveVertexNormals@@YAXXZ  0041c7f0 f   normals.obj
 0001:0001b8e0       ?Overlay_EmitOverlayFaces@@YAXXZ 0041c8e0 f   overlay.obj
 0001:0001bc30       ?OverlayTransition_EmitOverlayFaces@@YAXXZ 0041cc30 f   overlay.obj
 0001:0001bf50       ?Overlay_UpdateSideLists@@YAXXZ 0041cf50 f   overlay.obj
 0001:0001c070       ?OverlayTransition_UpdateSideLists@@YAXXZ 0041d070 f   overlay.obj
 0001:0001c190       ?Overlay_AddFaceToLists@@YAXHPAUside_t@@@Z 0041d190 f   overlay.obj
 0001:0001c260       ?OverlayTransition_AddFaceToLists@@YAXHPAUside_t@@@Z 0041d260 f   overlay.obj
 0001:0001c330       ?RemoveAll@?$CUtlVector@Umapoverlay_t@@V?$CUtlMemory@Umapoverlay_t@@H@@@@QAEXXZ 0041d330 f i overlay.obj
 0001:0001c460       ?Overlay_GetFromEntity@@YAHPAUentity_t@@@Z 0041d460 f   overlay.obj
 0001:0001c780       ??1?$CUtlVector@Umapoverlay_t@@V?$CUtlMemory@Umapoverlay_t@@H@@@@QAE@XZ 0041d780 f i overlay.obj
 0001:0001c7e0       ?GetPhysicsFactory@@YAP6APAXPBDPAH@ZXZ 0041d7e0 f   physdll.obj
 0001:0001c820       _PhysicsDLLPath            0041d820 f   physdll.obj
 0001:0001c850       ?FreePortal@@YAXPAUportal_t@@@Z 0041d850 f   portals.obj
 0001:0001c890       ?VisibleContents@@YAHH@Z   0041d890 f   portals.obj
 0001:0001c8c0       ?ClusterContents@@YAHPAUnode_t@@@Z 0041d8c0 f   portals.obj
 0001:0001c900       ?Portal_VisFlood@@YAHPAUportal_t@@@Z 0041d900 f   portals.obj
 0001:0001c9f0       ?RemovePortalFromNode@@YAXPAUportal_t@@PAUnode_t@@@Z 0041d9f0 f   portals.obj
 0001:0001ca70       ?AreaportalBrushForNode@@YAPAUbspbrush_t@@PAUnode_t@@@Z 0041da70 f   portals.obj
 0001:0001caa0       ?BaseWindingForNode@@YAPAUwinding_t@@PAUnode_t@@@Z 0041daa0 f   portals.obj
 0001:0001cb70       ?CalcNodeBounds@@YAXPAUnode_t@@@Z 0041db70 f   portals.obj
 0001:0001cbe0       ?FloodPortals_r@@YAXPAUnode_t@@H@Z 0041dbe0 f   portals.obj
 0001:0001cc70       ?FloodAreaLeak_r@@YAXPAUnode_t@@H@Z 0041dc70 f   portals.obj
 0001:0001cd20       ?ClearOccupied_r@@YAXPAUnode_t@@@Z 0041dd20 f   portals.obj
 0001:0001cd50       ?PlaceOccupant@@YAHPAUnode_t@@AAVVector@@PAUentity_t@@@Z 0041dd50 f   portals.obj
 0001:0001cde0       ?FloodEntities@@YAHPAUtree_t@@@Z 0041dde0 f   portals.obj
 0001:0001cfb0       ?FloodAreas_r@@YAXPAUnode_t@@PAUportal_t@@@Z 0041dfb0 f   portals.obj
 0001:0001d0c0       ?FindAreas_r@@YAXPAUnode_t@@@Z 0041e0c0 f   portals.obj
 0001:0001d120       ?ReportAreaportalLeak@@YAXPAUtree_t@@PAUnode_t@@@Z 0041e120 f   portals.obj
 0001:0001d240       ?SetAreaPortalAreas_r@@YAXPAUtree_t@@PAUnode_t@@@Z 0041e240 f   portals.obj
 0001:0001d2c0       ?FindUniquePoints@@YAHPBVVector2D@@HPAHHM@Z 0041e2c0 f   portals.obj
 0001:0001d420       ?Convex2D@@YAHPBVVector2D@@HPAHH@Z 0041e420 f   portals.obj
 0001:0001d800       ?SetNodeAreaIndices_R@@YAXPAUnode_t@@@Z 0041e800 f   portals.obj
 0001:0001d840       ?FloodAreas@@YAXPAUtree_t@@@Z 0041e840 f   portals.obj
 0001:0001d8b0       ?FillOutside_r@@YAXPAUnode_t@@@Z 0041e8b0 f   portals.obj
 0001:0001d910       ?FillOutside@@YAXPAUnode_t@@@Z 0041e910 f   portals.obj
 0001:0001d970       ??0?$CFmtStrN@$0BAA@@@QAA@PBDZZ 0041e970 f i portals.obj
 0001:0001d9a0       ?MakeNodePortal@@YAXPAUnode_t@@@Z 0041e9a0 f   portals.obj
 0001:0001db70       ??4portal_t@@QAEAAU0@ABU0@@Z 0041eb70 f i portals.obj
 0001:0001dbe0       ?MakeHeadnodePortals@@YAXPAUtree_t@@@Z 0041ebe0 f   portals.obj
 0001:0001de10       ?SplitNodePortals@@YAXPAUnode_t@@@Z 0041ee10 f   portals.obj
 0001:0001e1a0       ?MakeTreePortals_r@@YAXPAUnode_t@@@Z 0041f1a0 f   portals.obj
 0001:0001e2d0       ?MakeTreePortals@@YAXPAUtree_t@@@Z 0041f2d0 f   portals.obj
 0001:0001e2f0       ?FindPortalsLeadingToArea_R@@YAXPAUnode_t@@HHPAUplane_t@@AAV?$CUtlVector@PAUportal_t@@V?$CUtlMemory@PAUportal_t@@H@@@@@Z 0041f2f0 f   portals.obj
 0001:0001e490       ?EmitClipPortalGeometry@@YAXPAUnode_t@@PAUportal_t@@HPAUdareaportal_t@@@Z 0041f490 f   portals.obj
 0001:0001e960       ?EmitAreaPortals@@YAXPAUnode_t@@@Z 0041f960 f   portals.obj
 0001:0001ed10       ?FindPortalSide@@YAXPAUportal_t@@@Z 0041fd10 f   portals.obj
 0001:0001ef00       ?MarkVisibleSides_r@@YAXPAUnode_t@@@Z 0041ff00 f   portals.obj
 0001:0001ef80       ?MarkVisibleSides@@YAXPAUtree_t@@HHH@Z 0041ff80 f   portals.obj
 0001:0001f070       ?MarkVisibleSides@@YAXPAUtree_t@@PAPAUmapbrush_t@@H@Z 00420070 f   portals.obj
 0001:0001f130       ?VolumeOfIntersection@@YAMPAUbspbrush_t@@PAUnode_t@@@Z 00420130 f   prtfile.obj
 0001:0001f1a0       ?CreateVisPortals_r@@YAXPAUnode_t@@@Z 004201a0 f   prtfile.obj
 0001:0001f1e0       ?SaveClusters_r@@YAXPAUnode_t@@@Z 004201e0 f   prtfile.obj
 0001:0001f230       ?Grow@?$CUtlMemory@Ucluster_portals_t@@H@@QAEXH@Z 00420230 f i prtfile.obj
 0001:0001f230       ?Grow@?$CUtlMemory@U?$UtlRBTreeNode_t@UNameTranslationLookup_t@@H@@H@@QAEXH@Z 00420230 f i materialpatch.obj
 0001:0001f230       ?Grow@?$CUtlMemory@VCDispVert@@H@@QAEXH@Z 00420230 f i disp_vbsp.obj
 0001:0001f230       ?Grow@?$CUtlMemory@V?$CUtlVector@HV?$CUtlMemory@HH@@@@H@@QAEXH@Z 00420230 f i cubemap.obj
 0001:0001f2d0       ?WritePortalFile@@YAXPAU_iobuf@@ABV?$CUtlVector@Ucluster_portals_t@@V?$CUtlMemory@Ucluster_portals_t@@H@@@@@Z 004202d0 f   prtfile.obj
 0001:0001f520       ?NumberLeafs@@YAXABV?$CUtlVector@PAUnode_t@@V?$CUtlMemory@PAUnode_t@@H@@@@@Z 00420520 f   prtfile.obj
 0001:0001f650       ?InsertBefore@?$CUtlVector@Uviscluster_t@@V?$CUtlMemory@Uviscluster_t@@H@@@@QAEHHABUviscluster_t@@@Z 00420650 f i prtfile.obj
 0001:0001f6d0       ?AddVisCluster@@YAXPAUentity_t@@@Z 004206d0 f   prtfile.obj
 0001:0001f750       ?BuildVisLeafList_r@@YAXPAUnode_t@@AAV?$CUtlVector@PAUnode_t@@V?$CUtlMemory@PAUnode_t@@H@@@@@Z 00420750 f   prtfile.obj
 0001:0001f7e0       ?BuildPortalList@@YAHAAV?$CUtlVector@Ucluster_portals_t@@V?$CUtlMemory@Ucluster_portals_t@@H@@@@ABV?$CUtlVector@PAUnode_t@@V?$CUtlMemory@PAUnode_t@@H@@@@@Z 004207e0 f   prtfile.obj
 0001:0001f8d0       ?RemoveAll@?$CUtlVector@V?$CUtlVector@HV?$CUtlMemory@HH@@@@V?$CUtlMemory@V?$CUtlVector@HV?$CUtlMemory@HH@@@@H@@@@QAEXXZ 004208d0 f i cubemap.obj
 0001:0001f8d0       ?RemoveAll@?$CUtlVector@Ucluster_portals_t@@V?$CUtlMemory@Ucluster_portals_t@@H@@@@QAEXXZ 004208d0 f i prtfile.obj
 0001:0001f970       ??4?$CUtlVector@PAUportal_t@@V?$CUtlMemory@PAUportal_t@@H@@@@QAEAAV0@ABV0@@Z 00420970 f i prtfile.obj
 0001:0001f9f0       ?InsertMultipleBefore@?$CUtlVector@Ucluster_portals_t@@V?$CUtlMemory@Ucluster_portals_t@@H@@@@QAEHHHPBUcluster_portals_t@@@Z 004209f0 f i prtfile.obj
 0001:0001fae0       ?WritePortalFile@@YAXPAUtree_t@@@Z 00420ae0 f   prtfile.obj
 0001:0001fc90       ?CopyArray@?$CUtlVector@DV?$CUtlMemory@DH@@@@QAEXPBDH@Z 00420c90 f i scratchpad3d.obj
 0001:0001fd00       ?Studio_ConvertStudioHdrToNewVersion@@YA_NPAUstudiohdr_t@@@Z 00420d00 f i staticprop.obj
 0001:0001fe50       ?IsStaticProp@@YA?AW4isstaticprop_ret@@PAUstudiohdr_t@@@Z 00420e50 f   staticprop.obj
 0001:0001ff00       ?CacheVertexData@mstudiomodel_t@@QAEPBUvertexFileHeader_t@@PAX@Z 00420f00 f   staticprop.obj
 0001:000200c0       ?GetVertexData@mstudiomodel_t@@QAEPBUmstudio_modelvertexdata_t@@PAX@Z 004210c0 f i staticprop.obj
 0001:00020130       ?LoadStudioModel@@YA_NPBD0AAVCUtlBuffer@@@Z 00421130 f   staticprop.obj
 0001:000204b0       ?Grow@?$CUtlMemory@UStaticPropLump_t@@H@@QAEXH@Z 004214b0 f i staticprop.obj
 0001:00020560       ?Parent@?$CUtlRBTree@UModelCollisionLookup_t@@GP6A_NABU1@0@ZV?$CUtlMemory@U?$UtlRBTreeNode_t@UModelCollisionLookup_t@@G@@G@@@@QBEGG@Z 00421560 f i staticprop.obj
 0001:000206e0       ?LeftChild@?$CUtlRBTree@UModelCollisionLookup_t@@GP6A_NABU1@0@ZV?$CUtlMemory@U?$UtlRBTreeNode_t@UModelCollisionLookup_t@@G@@G@@@@QBEGG@Z 004216e0 f i staticprop.obj
 0001:00020740       ?RightChild@?$CUtlRBTree@UModelCollisionLookup_t@@GP6A_NABU1@0@ZV?$CUtlMemory@U?$UtlRBTreeNode_t@UModelCollisionLookup_t@@G@@G@@@@QBEGG@Z 00421740 f i staticprop.obj
 0001:000207a0       ?FindInsertionPosition@?$CUtlRBTree@UModelCollisionLookup_t@@GP6A_NABU1@0@ZV?$CUtlMemory@U?$UtlRBTreeNode_t@UModelCollisionLookup_t@@G@@G@@@@IAEXABUModelCollisionLookup_t@@AAGAA_N@Z 004217a0 f i staticprop.obj
 0001:00020890       ?NewNode@?$CUtlRBTree@UModelCollisionLookup_t@@GP6A_NABU1@0@ZV?$CUtlMemory@U?$UtlRBTreeNode_t@UModelCollisionLookup_t@@G@@G@@@@QAEGXZ 00421890 f i staticprop.obj
 0001:00020990       ?RotateLeft@?$CUtlRBTree@UModelCollisionLookup_t@@GP6A_NABU1@0@ZV?$CUtlMemory@U?$UtlRBTreeNode_t@UModelCollisionLookup_t@@G@@G@@@@IAEXG@Z 00421990 f i staticprop.obj
 0001:00020a80       ?RotateRight@?$CUtlRBTree@UModelCollisionLookup_t@@GP6A_NABU1@0@ZV?$CUtlMemory@U?$UtlRBTreeNode_t@UModelCollisionLookup_t@@G@@G@@@@IAEXG@Z 00421a80 f i staticprop.obj
 0001:00020b70       ?Find@?$CUtlRBTree@UModelCollisionLookup_t@@GP6A_NABU1@0@ZV?$CUtlMemory@U?$UtlRBTreeNode_t@UModelCollisionLookup_t@@G@@G@@@@QBEGABUModelCollisionLookup_t@@@Z 00421b70 f i staticprop.obj
 0001:00020c70       ?RemoveAll@?$CUtlRBTree@UModelCollisionLookup_t@@GP6A_NABU1@0@ZV?$CUtlMemory@U?$UtlRBTreeNode_t@UModelCollisionLookup_t@@G@@G@@@@QAEXXZ 00421c70 f i staticprop.obj
 0001:00020d30       ?InsertRebalance@?$CUtlRBTree@UModelCollisionLookup_t@@GP6A_NABU1@0@ZV?$CUtlMemory@U?$UtlRBTreeNode_t@UModelCollisionLookup_t@@G@@G@@@@IAEXG@Z 00421d30 f i staticprop.obj
 0001:00021490       ?AddToTail@?$CUtlVector@UStaticPropLump_t@@V?$CUtlMemory@UStaticPropLump_t@@H@@@@QAEHXZ 00422490 f i staticprop.obj
 0001:000214e0       ?LinkToParent@?$CUtlRBTree@UModelCollisionLookup_t@@GP6A_NABU1@0@ZV?$CUtlMemory@U?$UtlRBTreeNode_t@UModelCollisionLookup_t@@G@@G@@@@IAEXGG_N@Z 004224e0 f i staticprop.obj
 0001:00021650       ?ComputeConvexHull@@YAPAVCPhysCollide@@PAUstudiohdr_t@@@Z 00422650 f   staticprop.obj
 0001:00021970       ??1?$CUtlRBTree@UModelCollisionLookup_t@@GP6A_NABU1@0@ZV?$CUtlMemory@U?$UtlRBTreeNode_t@UModelCollisionLookup_t@@G@@G@@@@QAE@XZ 00422970 f i staticprop.obj
 0001:000219e0       ?Insert@?$CUtlRBTree@UModelCollisionLookup_t@@GP6A_NABU1@0@ZV?$CUtlMemory@U?$UtlRBTreeNode_t@UModelCollisionLookup_t@@G@@G@@@@QAEGABUModelCollisionLookup_t@@@Z 004229e0 f i staticprop.obj
 0001:00021e40       ?EmitStaticProps@@YAXXZ    00422e40 f   staticprop.obj
 0001:00022170       _cosf                      00423170 f i textures.obj
 0001:00022180       ?GetTexData@@YAPAUdtexdata_t@@H@Z 00423180 f   textures.obj
 0001:000221d0       ?FindMiptex@@YAHPBD@Z      004231d0 f   textures.obj
 0001:00022970       ?TextureAxisFromPlane@@YAXPAUplane_t@@AAVVector@@1@Z 00423970 f   textures.obj
 0001:00022af0       ?GetSurfaceProperties@@YAHPAXPBD@Z 00423af0 f   textures.obj
 0001:00022b70       ?GetSurfaceProperties2@@YAHPAXPBD@Z 00423b70 f   textures.obj
 0001:00022be0       ?FindAliasedTexData@@YAHPBDPAUdtexdata_t@@@Z 00423be0 f   textures.obj
 0001:00022d70       ?FindTexData@@YAHPBD@Z     00423d70 f   textures.obj
 0001:00022dd0       ?FindOrCreateTexData@@YAHPBD@Z 00423dd0 f   textures.obj
 0001:00022ed0       ?LoadSurfacePropFile@@YAXPBD@Z 00423ed0 f   textures.obj
 0001:00022f50       ?LoadSurfaceProperties@@YAXXZ 00423f50 f   textures.obj
 0001:00023000       ?AddCloneTexData@@YAHPAUdtexdata_t@@PBD@Z 00424000 f   textures.obj
 0001:00023090       ?FindTexInfo@@YAHABUtexinfo_s@@@Z 00424090 f   textures.obj
 0001:000230f0       ?FindOrCreateTexInfo@@YAHABUtexinfo_s@@@Z 004240f0 f   textures.obj
 0001:00023140       ?TexinfoForBrushTexture@@YAHPAUplane_t@@PAUbrush_texture_t@@ABVVector@@@Z 00424140 f   textures.obj
 0001:00023520       ?NodeForPoint@@YAPAUnode_t@@PAU1@AAVVector@@@Z 00424520 f   tree.obj
 0001:00023590       ?FreeTreePortals_r@@YAXPAUnode_t@@@Z 00424590 f   tree.obj
 0001:00023600       ?FreeTree_r@@YAXPAUnode_t@@@Z 00424600 f   tree.obj
 0001:00023680       ?FreeTree@@YAXPAUtree_t@@@Z 00424680 f   tree.obj
 0001:000236b0       ?PruneNodes_r@@YAXPAUnode_t@@@Z 004246b0 f   tree.obj
 0001:00023770       ?PruneNodes@@YAXPAUnode_t@@@Z 00424770 f   tree.obj
 0001:000237b0       ??0MaterialSystem_Config_t@@QAE@XZ 004247b0 f i utilmatlib.obj
 0001:00023890       ?LoadMaterialSystemInterface@@YAXP6APAXPBDPAH@Z@Z 00424890 f   utilmatlib.obj
 0001:00023940       ?InitMaterialSystem@@YAXPBDP6APAX0PAH@Z@Z 00424940 f   utilmatlib.obj
 0001:00023980       ?ShutdownMaterialSystem@@YAXXZ 00424980 f   utilmatlib.obj
 0001:000239a0       ?FindMaterial@@YAPAXPBDPA_N_N@Z 004249a0 f   utilmatlib.obj
 0001:000239f0       ?GetMaterialDimensions@@YAXPAXPAH1@Z 004249f0 f   utilmatlib.obj
 0001:00023a30       ?GetMaterialReflectivity@@YAXPAXPAM@Z 00424a30 f   utilmatlib.obj
 0001:00023a90       ?GetMaterialShaderPropertyBool@@YAHPAXH@Z 00424a90 f   utilmatlib.obj
 0001:00023ad0       ?GetMaterialShaderPropertyInt@@YAHPAXH@Z 00424ad0 f   utilmatlib.obj
 0001:00023b10       ?GetMaterialVar@@YAPBDPAXPBD@Z 00424b10 f   utilmatlib.obj
 0001:00023b40       ?GetMaterialShaderName@@YAPBDPAX@Z 00424b40 f   utilmatlib.obj
 0001:00023b60       ?BlockTree@@YAPAUnode_t@@HHHH@Z 00424b60 f   vbsp.obj
 0001:00023c80       ?ProcessBlock_Thread@@YAXHH@Z 00424c80 f   vbsp.obj
 0001:00023da0       ?ProcessSubModel@@YAXXZ    00424da0 f   vbsp.obj
 0001:00023ea0       ?IsFuncOccluder@@YA_NH@Z   00424ea0 f   vbsp.obj
 0001:00023f00       ?FixupOnlyEntsOccluderEntities@@YAXXZ 00424f00 f   vbsp.obj
 0001:00023fc0       ?Grow@?$CUtlMemory@Udoccluderdata_t@@H@@QAEXH@Z 00424fc0 f i vbsp.obj
 0001:00024060       ?Grow@?$CUtlMemory@VVector@@H@@QAEXH@Z 00425060 f i disp_ivp.obj
 0001:00024060       ?Grow@?$CUtlMemory@Udoccluderpolydata_t@@H@@QAEXH@Z 00425060 f i vbsp.obj
 0001:00024100       ?AssignAreaToOccluder@@YAXHPAUtree_t@@_N@Z 00425100 f   vbsp.obj
 0001:000242e0       ?AssignOccluderAreas@@YAXPAUtree_t@@@Z 004252e0 f   vbsp.obj
 0001:00024330       ?MarkNoDynamicShadowSides@@YAXXZ 00425330 f   vbsp.obj
 0001:00024390       ?Is3DSkyboxArea@@YA_NH@Z   00425390 f   vbsp.obj
 0001:00024840       ?ProcessWorldModel@@YAXXZ  00425840 f   vbsp.obj
 0001:00025100       ?ProcessModels@@YAXXZ      00426100 f   vbsp.obj
 0001:000251a0       ?RunVBSP@@YAHHPAPAD@Z      004261a0 f   vbsp.obj
 0001:00025f70       _main                      00426f70 f   vbsp.obj
 0001:00025fd0       ?CreateWorldVertexTransitionPatchedMaterial@@YAXPBD0@Z 00426fd0 f   worldvertextransitionfixup.obj
 0001:00026150       ?Grow@?$CUtlMemory@Uface_vert_table_t@@H@@QAEXH@Z 00427150 f i faces.obj
 0001:00026150       ?Grow@?$CUtlMemory@VVector2D@@H@@QAEXH@Z 00427150 f i disp_vbsp.obj
 0001:00026150       ?Grow@?$CUtlMemory@UentitySideList_t@@H@@QAEXH@Z 00427150 f i worldvertextransitionfixup.obj
 0001:00026200       ?CreateBrushVersionOfWorldVertexTransitionMaterial@@YAHH@Z 00427200 f   worldvertextransitionfixup.obj
 0001:000262f0       ?WorldVertexTransitionFixup@@YAXXZ 004272f0 f   worldvertextransitionfixup.obj
 0001:00026490       ?CaselessStringLessThan@@YA_NABQBD0@Z 00427490 f i writebsp.obj
 0001:000264b0       ?SetDynamicShadowsEnabled@dface_t@@QAEX_N@Z 004274b0 f i writebsp.obj
 0001:000264e0       ?EmitPlanes@@YAXXZ         004274e0 f   writebsp.obj
 0001:00026600       ?EmitMarkFace@@YAXPAUdleaf_t@@PAUface_t@@@Z 00427600 f   writebsp.obj
 0001:000266b0       ?EmitLeaf@@YAXPAUnode_t@@@Z 004276b0 f   writebsp.obj
 0001:00026890       ?CreateOrigFace@@YAHPAUface_t@@@Z 00427890 f   writebsp.obj
 0001:00026ae0       ?FindOrigFace@@YAHPAUface_t@@@Z 00427ae0 f   writebsp.obj
 0001:00026b40       ?FindOrCreateOrigFace@@YAHPAUface_t@@@Z 00427b40 f   writebsp.obj
 0001:00026b80       ?FreeLeafFaces@@YAXPAUface_t@@@Z 00427b80 f   writebsp.obj
 0001:00026bb0       ?SetModelNumbers@@YAXXZ    00427bb0 f   writebsp.obj
 0001:00026c30       ?SetLightStyles@@YAXXZ     00427c30 f   writebsp.obj
 0001:00026db0       ?EmitBrushes@@YAXXZ        00427db0 f   writebsp.obj
 0001:00026f90       ?BeginBSPFile@@YAXXZ       00427f90 f   writebsp.obj
 0001:00026fd0       ?EnsurePresenceOfWaterLODControlEntity@@YAXXZ 00427fd0 f   writebsp.obj
 0001:00027090       ?BeginModel@@YAXXZ         00428090 f   writebsp.obj
 0001:00027180       ?EndModel@@YAXXZ           00428180 f   writebsp.obj
 0001:000271b0       ?Parent@?$CUtlRBTree@UNode_t@?$CUtlMap@PBDHH@@HVCKeyLess@2@V?$CUtlMemory@U?$UtlRBTreeNode_t@UNode_t@?$CUtlMap@PBDHH@@H@@H@@@@QBEHH@Z 004281b0 f i writebsp.obj
 0001:00027390       ?IsBoxInsideWorld@@YA_NHAAV?$CUtlVector@HV?$CUtlMemory@HH@@@@ABVVector@@1@Z 00428390 f   writebsp.obj
 0001:00027440       ?AddDispsToBounds@@YAXHAAV?$CUtlVector@HV?$CUtlMemory@HH@@@@AAVVector@@1@Z 00428440 f   writebsp.obj
 0001:00027550       ?ComputeBoundsNoSkybox@@YAXXZ 00428550 f   writebsp.obj
 0001:00027690       ?RightChild@?$CUtlRBTree@UNode_t@?$CUtlMap@PBDHH@@HVCKeyLess@2@V?$CUtlMemory@U?$UtlRBTreeNode_t@UNode_t@?$CUtlMap@PBDHH@@H@@H@@@@QBEHH@Z 00428690 f i writebsp.obj
 0001:000276f0       ?FindInsertionPosition@?$CUtlRBTree@UNode_t@?$CUtlMap@PBDHH@@HVCKeyLess@2@V?$CUtlMemory@U?$UtlRBTreeNode_t@UNode_t@?$CUtlMap@PBDHH@@H@@H@@@@IAEXABUNode_t@?$CUtlMap@PBDHH@@AAHAA_N@Z 004286f0 f i writebsp.obj
 0001:000277e0       ?NewNode@?$CUtlRBTree@UNode_t@?$CUtlMap@PBDHH@@HVCKeyLess@2@V?$CUtlMemory@U?$UtlRBTreeNode_t@UNode_t@?$CUtlMap@PBDHH@@H@@H@@@@QAEHXZ 004287e0 f i writebsp.obj
 0001:000278a0       ?FirstInorder@?$CUtlRBTree@UNode_t@?$CUtlMap@PBDHH@@HVCKeyLess@2@V?$CUtlMemory@U?$UtlRBTreeNode_t@UNode_t@?$CUtlMap@PBDHH@@H@@H@@@@QBEHXZ 004288a0 f i writebsp.obj
 0001:00027940       ?InsertMultipleBefore@?$CUtlVector@Utexinfo_s@@V?$CUtlMemory@Utexinfo_s@@H@@@@QAEHHHPBUtexinfo_s@@@Z 00428940 f i writebsp.obj
 0001:000279f0       ?IsRightChild@?$CUtlRBTree@UNode_t@?$CUtlMap@PBDHH@@HVCKeyLess@2@V?$CUtlMemory@U?$UtlRBTreeNode_t@UNode_t@?$CUtlMap@PBDHH@@H@@H@@@@QBE_NH@Z 004289f0 f i writebsp.obj
 0001:00027aa0       ?IsLeftChild@?$CUtlRBTree@UNode_t@?$CUtlMap@PBDHH@@HVCKeyLess@2@V?$CUtlMemory@U?$UtlRBTreeNode_t@UNode_t@?$CUtlMap@PBDHH@@H@@H@@@@QBE_NH@Z 00428aa0 f i writebsp.obj
 0001:00027b50       ?RotateLeft@?$CUtlRBTree@UNode_t@?$CUtlMap@PBDHH@@HVCKeyLess@2@V?$CUtlMemory@U?$UtlRBTreeNode_t@UNode_t@?$CUtlMap@PBDHH@@H@@H@@@@IAEXH@Z 00428b50 f i writebsp.obj
 0001:00027d00       ?RotateRight@?$CUtlRBTree@UNode_t@?$CUtlMap@PBDHH@@HVCKeyLess@2@V?$CUtlMemory@U?$UtlRBTreeNode_t@UNode_t@?$CUtlMap@PBDHH@@H@@H@@@@IAEXH@Z 00428d00 f i writebsp.obj
 0001:00027e70       ?Find@?$CUtlRBTree@UNode_t@?$CUtlMap@PBDHH@@HVCKeyLess@2@V?$CUtlMemory@U?$UtlRBTreeNode_t@UNode_t@?$CUtlMap@PBDHH@@H@@H@@@@QBEHABUNode_t@?$CUtlMap@PBDHH@@@Z 00428e70 f i writebsp.obj
 0001:00027f60       ?RemoveAll@?$CUtlRBTree@UNode_t@?$CUtlMap@PBDHH@@HVCKeyLess@2@V?$CUtlMemory@U?$UtlRBTreeNode_t@UNode_t@?$CUtlMap@PBDHH@@H@@H@@@@QAEXXZ 00428f60 f i writebsp.obj
 0001:00028020       ?NextInorder@?$CUtlRBTree@UNode_t@?$CUtlMap@PBDHH@@HVCKeyLess@2@V?$CUtlMemory@U?$UtlRBTreeNode_t@UNode_t@?$CUtlMap@PBDHH@@H@@H@@@@QBEHH@Z 00429020 f i writebsp.obj
 0001:00028190       ?InsertMultipleBefore@?$CUtlVector@Udtexdata_t@@V?$CUtlMemory@Udtexdata_t@@H@@@@QAEHHHPBUdtexdata_t@@@Z 00429190 f i writebsp.obj
 0001:000283a0       ?InsertRebalance@?$CUtlRBTree@UNode_t@?$CUtlMap@PBDHH@@HVCKeyLess@2@V?$CUtlMemory@U?$UtlRBTreeNode_t@UNode_t@?$CUtlMap@PBDHH@@H@@H@@@@IAEXH@Z 004293a0 f i writebsp.obj
 0001:00028800       ?LinkToParent@?$CUtlRBTree@UNode_t@?$CUtlMap@PBDHH@@HVCKeyLess@2@V?$CUtlMemory@U?$UtlRBTreeNode_t@UNode_t@?$CUtlMap@PBDHH@@H@@H@@@@IAEXHH_N@Z 00429800 f i writebsp.obj
 0001:00028870       ?AddToTail@?$CUtlVector@Udfaceid_t@@V?$CUtlMemory@Udfaceid_t@@H@@@@QAEHXZ 00429870 f i writebsp.obj
 0001:000288c0       ?EmitFace@@YAXPAUface_t@@H@Z 004298c0 f   writebsp.obj
 0001:00028ae0       ?EmitLeafFaces@@YAXPAUface_t@@@Z 00429ae0 f   writebsp.obj
 0001:00028d80       ?EmitDrawNode_r@@YAHPAUnode_t@@@Z 00429d80 f   writebsp.obj
 0001:00028ee0       ?WriteBSP@@YAXPAUnode_t@@PAUface_t@@@Z 00429ee0 f   writebsp.obj
 0001:00029000       ?CopyArray@?$CUtlVector@HV?$CUtlMemory@HH@@@@QAEXPBHH@Z 0042a000 f i writebsp.obj
 0001:00029080       ?ComapctTexinfoArray@@YAXPAUtexinfomap_t@@@Z 0042a080 f   writebsp.obj
 0001:00029190       ?CopyArray@?$CUtlVector@Udtexdata_t@@V?$CUtlMemory@Udtexdata_t@@H@@@@QAEXPBUdtexdata_t@@H@Z 0042a190 f i writebsp.obj
 0001:00029340       ?CompactTexdataArray@@YAXPAUtexdatamap_t@@@Z 0042a340 f   writebsp.obj
 0001:000294e0       ?CompactTexinfos@@YAXXZ    0042a4e0 f   writebsp.obj
 0001:000298b0       ?Insert@?$CUtlDict@HH@@QAEHPBDABH@Z 0042a8b0 f i writebsp.obj
 0001:00029960       ?DiscoverMacroTextures@@YAXXZ 0042a960 f   writebsp.obj
 0001:00029b40       ?EndBSPFile@@YAXXZ         0042ab40 f   writebsp.obj
 0001:00029c00       ?CreateTempFile@CWin32File@@SAPAXAAVCUtlString@@0@Z 0042ac00 f i zip_utils.obj
 0001:00029d10       ?FileTell@CWin32File@@SAIPAX@Z 0042ad10 f i zip_utils.obj
 0001:00029d60       ?Put@CFileStream@@UAEXPBXH@Z 0042ad60 f i zip_utils.obj
 0001:00029da0       ?Tell@CFileStream@@UAEIXZ  0042ada0 f i zip_utils.obj
 0001:00029e00       ??0CZipEntry@CZipFile@@QAE@ABV01@@Z 0042ae00 f   zip_utils.obj
 0001:00029e70       ?ZipFileLessFunc_CaselessSort@CZipEntry@CZipFile@@SA_NABV12@0@Z 0042ae70 f   zip_utils.obj
 0001:00029ed0       ?ParseXZipCommentString@CZipFile@@AAEXPBD@Z 0042aed0 f   zip_utils.obj
 0001:00029f40       ?SetBigEndian@CZip@@UAEX_N@Z 0042af40 f   zip_utils.obj
 0001:00029f70       ?ActivateByteSwapping@CZip@@UAEX_N@Z 0042af70 f   zip_utils.obj
 0001:00029fa0       ?ForceAlignment@CZip@@UAEX_N0I@Z 0042afa0 f   zip_utils.obj
 0001:00029fd0       ?GetAlignment@CZip@@UAEIXZ 0042afd0 f   zip_utils.obj
 0001:00029fe0       ?Put@CBufferStream@@UAEXPBXH@Z 0042afe0 f i zip_utils.obj
 0001:00029ff0       ?Tell@CBufferStream@@UAEIXZ 0042aff0 f i zip_utils.obj
 0001:0002a000       ?Color@?$CUtlRBTree@VCZipEntry@CZipFile@@HP6A_NABV12@0@ZV?$CUtlMemory@U?$UtlRBTreeNode_t@VCZipEntry@CZipFile@@H@@H@@@@IBE?AW4NodeColor_t@1@H@Z 0042b000 f i zip_utils.obj
 0001:0002a050       ?Grow@?$CUtlMemory@U?$UtlLinkedListElem_t@PAVCZip@@G@@G@@QAEXH@Z 0042b050 f i zip_utils.obj
 0001:0002a110       ??$PutTypeBin@D@CUtlBuffer@@IAEXD@Z 0042b110 f i zip_utils.obj
 0001:0002a140       ??$GetObjects@UZIP_EndOfCentralDirRecord@@@CUtlBuffer@@QAEXPAUZIP_EndOfCentralDirRecord@@H@Z 0042b140 f i zip_utils.obj
 0001:0002a1c0       ??$GetObjects@UZIP_FileHeader@@@CUtlBuffer@@QAEXPAUZIP_FileHeader@@H@Z 0042b1c0 f i zip_utils.obj
 0001:0002a230       ?Parent@?$CUtlRBTree@VCZipEntry@CZipFile@@HP6A_NABV12@0@ZV?$CUtlMemory@U?$UtlRBTreeNode_t@VCZipEntry@CZipFile@@H@@H@@@@QBEHH@Z 0042b230 f i zip_utils.obj
 0001:0002a280       ?LeftChild@?$CUtlRBTree@VCZipEntry@CZipFile@@HP6A_NABV12@0@ZV?$CUtlMemory@U?$UtlRBTreeNode_t@VCZipEntry@CZipFile@@H@@H@@@@QBEHH@Z 0042b280 f i zip_utils.obj
 0001:0002a2d0       ?RightChild@?$CUtlRBTree@VCZipEntry@CZipFile@@HP6A_NABV12@0@ZV?$CUtlMemory@U?$UtlRBTreeNode_t@VCZipEntry@CZipFile@@H@@H@@@@QBEHH@Z 0042b2d0 f i zip_utils.obj
 0001:0002a320       ?IsRightChild@?$CUtlRBTree@VCZipEntry@CZipFile@@HP6A_NABV12@0@ZV?$CUtlMemory@U?$UtlRBTreeNode_t@VCZipEntry@CZipFile@@H@@H@@@@QBE_NH@Z 0042b320 f i zip_utils.obj
 0001:0002a3d0       ?FindInsertionPosition@?$CUtlRBTree@VCZipEntry@CZipFile@@HP6A_NABV12@0@ZV?$CUtlMemory@U?$UtlRBTreeNode_t@VCZipEntry@CZipFile@@H@@H@@@@IAEXABVCZipEntry@CZipFile@@AAHAA_N@Z 0042b3d0 f i zip_utils.obj
 0001:0002a4c0       ?NewNode@?$CUtlRBTree@VCZipEntry@CZipFile@@HP6A_NABV12@0@ZV?$CUtlMemory@U?$UtlRBTreeNode_t@VCZipEntry@CZipFile@@H@@H@@@@QAEHXZ 0042b4c0 f i zip_utils.obj
 0001:0002a5c0       ?AllocInternal@?$CUtlLinkedList@PAVCZip@@G$0A@GV?$CUtlMemory@U?$UtlLinkedListElem_t@PAVCZip@@G@@G@@@@IAEG_N@Z 0042b5c0 f i zip_utils.obj
 0001:0002a6e0       ?IsLeftChild@?$CUtlRBTree@VCZipEntry@CZipFile@@HP6A_NABV12@0@ZV?$CUtlMemory@U?$UtlRBTreeNode_t@VCZipEntry@CZipFile@@H@@H@@@@QBE_NH@Z 0042b6e0 f i zip_utils.obj
 0001:0002a790       ?RotateLeft@?$CUtlRBTree@VCZipEntry@CZipFile@@HP6A_NABV12@0@ZV?$CUtlMemory@U?$UtlRBTreeNode_t@VCZipEntry@CZipFile@@H@@H@@@@IAEXH@Z 0042b790 f i zip_utils.obj
 0001:0002a990       ?RotateRight@?$CUtlRBTree@VCZipEntry@CZipFile@@HP6A_NABV12@0@ZV?$CUtlMemory@U?$UtlRBTreeNode_t@VCZipEntry@CZipFile@@H@@H@@@@IAEXH@Z 0042b990 f i zip_utils.obj
 0001:0002ab90       ?PutTabs@CUtlBuffer@@IAEXXZ 0042bb90 f i zip_utils.obj
 0001:0002ad00       ?Find@?$CUtlRBTree@VCZipEntry@CZipFile@@HP6A_NABV12@0@ZV?$CUtlMemory@U?$UtlRBTreeNode_t@VCZipEntry@CZipFile@@H@@H@@@@QBEHABVCZipEntry@CZipFile@@@Z 0042bd00 f i zip_utils.obj
 0001:0002adf0       ?RemoveAll@?$CUtlRBTree@VCZipEntry@CZipFile@@HP6A_NABV12@0@ZV?$CUtlMemory@U?$UtlRBTreeNode_t@VCZipEntry@CZipFile@@H@@H@@@@QAEXXZ 0042bdf0 f i zip_utils.obj
 0001:0002aed0       ?FirstInorder@?$CUtlRBTree@VCZipEntry@CZipFile@@HP6A_NABV12@0@ZV?$CUtlMemory@U?$UtlRBTreeNode_t@VCZipEntry@CZipFile@@H@@H@@@@QBEHXZ 0042bed0 f i zip_utils.obj
 0001:0002af60       ?NextInorder@?$CUtlRBTree@VCZipEntry@CZipFile@@HP6A_NABV12@0@ZV?$CUtlMemory@U?$UtlRBTreeNode_t@VCZipEntry@CZipFile@@H@@H@@@@QBEHH@Z 0042bf60 f i zip_utils.obj
 0001:0002b110       ?InsertRebalance@?$CUtlRBTree@VCZipEntry@CZipFile@@HP6A_NABV12@0@ZV?$CUtlMemory@U?$UtlRBTreeNode_t@VCZipEntry@CZipFile@@H@@H@@@@IAEXH@Z 0042c110 f i zip_utils.obj
 0001:0002b560       ?RemoveRebalance@?$CUtlRBTree@VCZipEntry@CZipFile@@HP6A_NABV12@0@ZV?$CUtlMemory@U?$UtlRBTreeNode_t@VCZipEntry@CZipFile@@H@@H@@@@IAEXH@Z 0042c560 f i zip_utils.obj
 0001:0002bf30       ?Unlink@?$CUtlLinkedList@PAVCZip@@G$0A@GV?$CUtlMemory@U?$UtlLinkedListElem_t@PAVCZip@@G@@G@@@@QAEXG@Z 0042cf30 f i zip_utils.obj
 0001:0002bfc0       ??1CDatadescGeneratedNameHolder@@QAE@XZ 0042cfc0 f i zip_utils.obj
 0001:0002c040       ?ReadFileFromZip@CZipFile@@QAE_NPBD_NAAVCUtlBuffer@@@Z 0042d040 f   zip_utils.obj
 0001:0002c150       ?ReadFileFromZip@CZipFile@@QAE_NPAXPBD_NAAVCUtlBuffer@@@Z 0042d150 f   zip_utils.obj
 0001:0002c2e0       ?FileExistsInZip@CZipFile@@QAE_NPBD@Z 0042d2e0 f   zip_utils.obj
 0001:0002c390       ?CalculateSize@CZipFile@@QAEIXZ 0042d390 f   zip_utils.obj
 0001:0002c480       ?PrintDirectory@CZipFile@@QAEXXZ 0042d480 f   zip_utils.obj
 0001:0002c4d0       ?SaveDirectory@CZipFile@@AAEXAAVIWriteStream@@@Z 0042d4d0 f   zip_utils.obj
 0001:0002c9d0       ?FileExistsInZip@CZip@@UAE_NPBD@Z 0042d9d0 f   zip_utils.obj
 0001:0002c9e0       ?ReadFileFromZip@CZip@@UAE_NPBD_NAAVCUtlBuffer@@@Z 0042d9e0 f   zip_utils.obj
 0001:0002c9f0       ?ReadFileFromZip@CZip@@UAE_NPAXPBD_NAAVCUtlBuffer@@@Z 0042d9f0 f   zip_utils.obj
 0001:0002ca00       ?GetNextFilename@CZip@@UAEHHPADHAAH@Z 0042da00 f   zip_utils.obj
 0001:0002ca70       ?PrintDirectory@CZip@@UAEXXZ 0042da70 f   zip_utils.obj
 0001:0002ca80       ?Reset@CZip@@UAEXXZ        0042da80 f   zip_utils.obj
 0001:0002cad0       ?EstimateSize@CZip@@UAEIXZ 0042dad0 f   zip_utils.obj
 0001:0002cae0       ??1?$CUtlRBTree@VCZipEntry@CZipFile@@HP6A_NABV12@0@ZV?$CUtlMemory@U?$UtlRBTreeNode_t@VCZipEntry@CZipFile@@H@@H@@@@QAE@XZ 0042dae0 f i zip_utils.obj
 0001:0002cb40       ?LinkToParent@?$CUtlRBTree@VCZipEntry@CZipFile@@HP6A_NABV12@0@ZV?$CUtlMemory@U?$UtlRBTreeNode_t@VCZipEntry@CZipFile@@H@@H@@@@IAEXHH_N@Z 0042db40 f i zip_utils.obj
 0001:0002cbb0       ?Unlink@?$CUtlRBTree@VCZipEntry@CZipFile@@HP6A_NABV12@0@ZV?$CUtlMemory@U?$UtlRBTreeNode_t@VCZipEntry@CZipFile@@H@@H@@@@IAEXH@Z 0042dbb0 f i zip_utils.obj
 0001:0002cea0       ?LinkBefore@?$CUtlLinkedList@PAVCZip@@G$0A@GV?$CUtlMemory@U?$UtlLinkedListElem_t@PAVCZip@@G@@G@@@@QAEXGG@Z 0042dea0 f i zip_utils.obj
 0001:0002cf20       ??$DataMapInit@UZIP_EndOfCentralDirRecord@@@@YAPAUdatamap_t@@PAUZIP_EndOfCentralDirRecord@@@Z 0042df20 f   zip_utils.obj
 0001:0002cfa0       ??$DataMapInit@UZIP_FileHeader@@@@YAPAUdatamap_t@@PAUZIP_FileHeader@@@Z 0042dfa0 f   zip_utils.obj
 0001:0002d020       ??$DataMapInit@UZIP_LocalFileHeader@@@@YAPAUdatamap_t@@PAUZIP_LocalFileHeader@@@Z 0042e020 f   zip_utils.obj
 0001:0002d0a0       ??$DataMapInit@UZIP_PreloadHeader@@@@YAPAUdatamap_t@@PAUZIP_PreloadHeader@@@Z 0042e0a0 f   zip_utils.obj
 0001:0002d120       ??$DataMapInit@UZIP_PreloadDirectoryEntry@@@@YAPAUdatamap_t@@PAUZIP_PreloadDirectoryEntry@@@Z 0042e120 f   zip_utils.obj
 0001:0002d1a0       ??0CZipFile@@QAE@PBD_N@Z   0042e1a0 f   zip_utils.obj
 0001:0002d250       ??1CZipFile@@QAE@XZ        0042e250 f   zip_utils.obj
 0001:0002d2f0       ??0CZip@@QAE@PBD_N@Z       0042e2f0 f   zip_utils.obj
 0001:0002d360       ?SaveToBuffer@CZip@@UAEXAAVCUtlBuffer@@@Z 0042e360 f   zip_utils.obj
 0001:0002d390       ?SaveToDisk@CZip@@UAEXPAU_iobuf@@@Z 0042e390 f   zip_utils.obj
 0001:0002d3c0       ?SaveToDisk@CZip@@UAEXPAX@Z 0042e3c0 f   zip_utils.obj
 0001:0002d3f0       ??_ECZip@@UAEPAXI@Z        0042e3f0 f i zip_utils.obj
 0001:0002d3f0       ??_GCZip@@UAEPAXI@Z        0042e3f0 f i zip_utils.obj
 0001:0002d420       ?Remove@?$CUtlRBTree@VCZipEntry@CZipFile@@HP6A_NABV12@0@ZV?$CUtlMemory@U?$UtlRBTreeNode_t@VCZipEntry@CZipFile@@H@@H@@@@QAE_NABVCZipEntry@CZipFile@@@Z 0042e420 f i zip_utils.obj
 0001:0002d490       ?FindAndRemove@?$CUtlLinkedList@PAVCZip@@G$0A@GV?$CUtlMemory@U?$UtlLinkedListElem_t@PAVCZip@@G@@G@@@@QAE_NABQAVCZip@@@Z 0042e490 f i zip_utils.obj
 0001:0002d510       ?ParseFromBuffer@CZipFile@@QAEXPAXH@Z 0042e510 f   zip_utils.obj
 0001:0002d980       ?ParseFromDisk@CZipFile@@QAEPAXPBD@Z 0042e980 f   zip_utils.obj
 0001:0002dd60       ?AddBufferToZip@CZipFile@@QAEXPBDPAXH_N@Z 0042ed60 f   zip_utils.obj
 0001:0002dfd0       ?AddFileToZip@CZipFile@@QAEXPBD0@Z 0042efd0 f   zip_utils.obj
 0001:0002e050       ?RemoveFileFromZip@CZipFile@@QAEXPBD@Z 0042f050 f   zip_utils.obj
 0001:0002e100       ?CreateZip@IZip@@SAPAV1@PBD_N@Z 0042f100 f   zip_utils.obj
 0001:0002e160       ?ReleaseZip@IZip@@SAXPAV1@@Z 0042f160 f   zip_utils.obj
 0001:0002e190       ?AddFileToZip@CZip@@UAEXPBD0@Z 0042f190 f   zip_utils.obj
 0001:0002e1a0       ?RemoveFileFromZip@CZip@@UAEXPBD@Z 0042f1a0 f   zip_utils.obj
 0001:0002e1b0       ?AddBufferToZip@CZip@@UAEXPBDPAXH_N@Z 0042f1b0 f   zip_utils.obj
 0001:0002e1c0       ?ParseFromBuffer@CZip@@UAEXPAXH@Z 0042f1c0 f   zip_utils.obj
 0001:0002e230       ?ParseFromDisk@CZip@@UAEPAXPBD@Z 0042f230 f   zip_utils.obj
 0001:0002e290       ?GetPakFile@@YAPAVIZip@@XZ 0042f290 f   bsplib.obj
 0001:0002e2b0       ?ReleasePakFileLumps@@YAXXZ 0042f2b0 f   bsplib.obj
 0001:0002e2d0       ?AddBufferToPak@@YAXPAVIZip@@PBDPAXH_N@Z 0042f2d0 f   bsplib.obj
 0001:0002e2f0       ?FileExistsInPak@@YA_NPAVIZip@@PBD@Z 0042f2f0 f   bsplib.obj
 0001:0002e310       ?ReadFileFromPak@@YA_NPAVIZip@@PBD_NAAVCUtlBuffer@@@Z 0042f310 f   bsplib.obj
 0001:0002e330       ?InvalidGameLump@CGameLump@@QAEGXZ 0042f330 f   bsplib.obj
 0001:0002e340       ?SetKeyValue@@YAXPAUentity_t@@PBD1@Z 0042f340 f   bsplib.obj
 0001:0002e3c0       ?ValueForKey@@YAPADPAUentity_t@@PAD@Z 0042f3c0 f   bsplib.obj
 0001:0002e400       ?FloatForKey@@YAMPAUentity_t@@PAD@Z 0042f400 f   bsplib.obj
 0001:0002e450       ?IntForKey@@YAHPAUentity_t@@PAD@Z 0042f450 f   bsplib.obj
 0001:0002e4a0       ?GetAnglesForKey@@YAXPAUentity_t@@PADAAVQAngle@@@Z 0042f4a0 f   bsplib.obj
 0001:0002e4a0       ?GetVectorForKey@@YAXPAUentity_t@@PADAAVVector@@@Z 0042f4a0 f   bsplib.obj
 0001:0002e520       ?GetVector2DForKey@@YAXPAUentity_t@@PADAAVVector2D@@@Z 0042f520 f   bsplib.obj
 0001:0002e590       ?CalcTextureCoordsAtPoints@@YAXQAY03$$CBMQBHPBVVector@@HPAVVector2D@@@Z 0042f590 f   bsplib.obj
 0001:0002e630       ?GetPlatformMapPath@@YAXPBDPADHH@Z 0042f630 f   bsplib.obj
 0001:0002e660       ??$SwapFieldsToTargetEndian@UStaticPropDictLump_t@@@CByteswap@@QAEXPAUStaticPropDictLump_t@@PAXI@Z 0042f660 f i bsplib.obj
 0001:0002e6b0       ??$SwapFieldsToTargetEndian@UStaticPropLeafLump_t@@@CByteswap@@QAEXPAUStaticPropLeafLump_t@@PAXI@Z 0042f6b0 f i bsplib.obj
 0001:0002e700       ??$SwapFieldsToTargetEndian@UDetailObjectDictLump_t@@@CByteswap@@QAEXPAUDetailObjectDictLump_t@@PAXI@Z 0042f700 f i bsplib.obj
 0001:0002e750       ??$SwapFieldsToTargetEndian@UDetailPropLightstylesLump_t@@@CByteswap@@QAEXPAUDetailPropLightstylesLump_t@@PAXI@Z 0042f750 f i bsplib.obj
 0001:0002e7a0       ??$SwapFieldsToTargetEndian@Udgamelumpheader_t@@@CByteswap@@QAEXPAUdgamelumpheader_t@@PAXI@Z 0042f7a0 f i bsplib.obj
 0001:0002e7f0       ??$SwapFieldsToTargetEndian@Udheader_t@@@CByteswap@@QAEXPAUdheader_t@@PAXI@Z 0042f7f0 f i bsplib.obj
 0001:0002e840       ??$SwapFieldsToTargetEndian@Udleafambientlighting_t@@@CByteswap@@QAEXPAUdleafambientlighting_t@@PAXI@Z 0042f840 f i bsplib.obj
 0001:0002e890       ??$SwapFieldsToTargetEndian@Udleafambientindex_t@@@CByteswap@@QAEXPAUdleafambientindex_t@@PAXI@Z 0042f890 f i bsplib.obj
 0001:0002e8e0       ??$SwapFieldsToTargetEndian@Udflagslump_t@@@CByteswap@@QAEXPAUdflagslump_t@@PAXI@Z 0042f8e0 f i bsplib.obj
 0001:0002e930       ??$SwapFieldsToTargetEndian@Udface_t@@@CByteswap@@QAEXPAUdface_t@@PAXI@Z 0042f930 f i bsplib.obj
 0001:0002e980       ??$SwapFieldsToTargetEndian@Udworldlight_t@@@CByteswap@@QAEXPAUdworldlight_t@@PAXI@Z 0042f980 f i bsplib.obj
 0001:0002e9d0       ??$SwapFieldsToTargetEndian@Udmodel_t@@@CByteswap@@QAEXPAUdmodel_t@@PAXI@Z 0042f9d0 f i bsplib.obj
 0001:0002ea20       ??$SwapFieldsToTargetEndian@Udvertex_t@@@CByteswap@@QAEXPAUdvertex_t@@PAXI@Z 0042fa20 f i bsplib.obj
 0001:0002ea70       ??$SwapFieldsToTargetEndian@Udplane_t@@@CByteswap@@QAEXPAUdplane_t@@PAXI@Z 0042fa70 f i bsplib.obj
 0001:0002eac0       ??$SwapFieldsToTargetEndian@Utexinfo_s@@@CByteswap@@QAEXPAUtexinfo_s@@PAXI@Z 0042fac0 f i bsplib.obj
 0001:0002eb10       ??$SwapFieldsToTargetEndian@Vddispinfo_t@@@CByteswap@@QAEXPAVddispinfo_t@@PAXI@Z 0042fb10 f i bsplib.obj
 0001:0002eb60       ??$SwapFieldsToTargetEndian@VCDispVert@@@CByteswap@@QAEXPAVCDispVert@@PAXI@Z 0042fb60 f i bsplib.obj
 0001:0002ebb0       ??$SwapFieldsToTargetEndian@VCDispTri@@@CByteswap@@QAEXPAVCDispTri@@PAXI@Z 0042fbb0 f i bsplib.obj
 0001:0002ec00       ??$SwapFieldsToTargetEndian@VCFaceMacroTextureInfo@@@CByteswap@@QAEXPAVCFaceMacroTextureInfo@@PAXI@Z 0042fc00 f i bsplib.obj
 0001:0002ec50       ??$SwapFieldsToTargetEndian@Udprimitive_t@@@CByteswap@@QAEXPAUdprimitive_t@@PAXI@Z 0042fc50 f i bsplib.obj
 0001:0002eca0       ??$SwapFieldsToTargetEndian@Udprimvert_t@@@CByteswap@@QAEXPAUdprimvert_t@@PAXI@Z 0042fca0 f i bsplib.obj
 0001:0002ecf0       ??$SwapFieldsToTargetEndian@Udbrush_t@@@CByteswap@@QAEXPAUdbrush_t@@PAXI@Z 0042fcf0 f i bsplib.obj
 0001:0002ed40       ??$SwapFieldsToTargetEndian@Udareaportal_t@@@CByteswap@@QAEXPAUdareaportal_t@@PAXI@Z 0042fd40 f i bsplib.obj
 0001:0002ed90       ??$SwapFieldsToTargetEndian@Udleafwaterdata_t@@@CByteswap@@QAEXPAUdleafwaterdata_t@@PAXI@Z 0042fd90 f i bsplib.obj
 0001:0002ede0       ??$SwapFieldsToTargetEndian@Udcubemapsample_t@@@CByteswap@@QAEXPAUdcubemapsample_t@@PAXI@Z 0042fde0 f i bsplib.obj
 0001:0002ee30       ??$SwapFieldsToTargetEndian@Udoverlay_t@@@CByteswap@@QAEXPAUdoverlay_t@@PAXI@Z 0042fe30 f i bsplib.obj
 0001:0002ee80       ??$SwapFieldsToTargetEndian@Udwateroverlay_t@@@CByteswap@@QAEXPAUdwateroverlay_t@@PAXI@Z 0042fe80 f i bsplib.obj
 0001:0002eed0       ??$SwapFieldsToTargetEndian@Udoverlayfade_t@@@CByteswap@@QAEXPAUdoverlayfade_t@@PAXI@Z 0042fed0 f i bsplib.obj
 0001:0002ef20       ??$SwapFieldsToTargetEndian@Udoccluderdata_t@@@CByteswap@@QAEXPAUdoccluderdata_t@@PAXI@Z 0042ff20 f i bsplib.obj
 0001:0002ef70       ??$SwapFieldsToTargetEndian@Udoccluderpolydata_t@@@CByteswap@@QAEXPAUdoccluderpolydata_t@@PAXI@Z 0042ff70 f i bsplib.obj
 0001:0002efc0       ??$SwapFieldsToTargetEndian@Udfaceid_t@@@CByteswap@@QAEXPAUdfaceid_t@@PAXI@Z 0042ffc0 f i bsplib.obj
 0001:0002f010       ?Grow@?$CUtlMemory@Ulistplane_t@@H@@QAEXH@Z 00430010 f i ivp.obj
 0001:0002f010       ?Grow@?$CUtlMemory@Uviscluster_t@@H@@QAEXH@Z 00430010 f i prtfile.obj
 0001:0002f010       ?Grow@?$CUtlMemory@VCUtlString@@H@@QAEXH@Z 00430010 f i bsplib.obj
 0001:0002f220       ?EnsureCapacity@?$CUtlMemory@EH@@QAEXH@Z 00430220 f i bsplib.obj
 0001:0002f270       ??$SwapBufferToTargetEndian@M@CByteswap@@QAEXPAM0H@Z 00430270 f i bsplib.obj
 0001:0002f2f0       ??$CopyLumpInternal@Udleafambientlighting_t@@@@YAHHPAUdleafambientlighting_t@@H@Z 004302f0 f i bsplib.obj
 0001:0002f3d0       ??$CopyLumpInternal@Udleafambientindex_t@@@@YAHHPAUdleafambientindex_t@@H@Z 004303d0 f i bsplib.obj
 0001:0002f480       ??$CopyLumpInternal@Udmodel_t@@@@YAHHPAUdmodel_t@@H@Z 00430480 f i bsplib.obj
 0001:0002f550       ??$CopyLumpInternal@Udvertex_t@@@@YAHHPAUdvertex_t@@H@Z 00430550 f i bsplib.obj
 0001:0002f620       ??$CopyLumpInternal@Udplane_t@@@@YAHHPAUdplane_t@@H@Z 00430620 f i bsplib.obj
 0001:0002f6f0       ??$CopyLumpInternal@Utexinfo_s@@@@YAHHPAUtexinfo_s@@H@Z 004306f0 f i bsplib.obj
 0001:0002f7c0       ??$CopyLumpInternal@Vddispinfo_t@@@@YAHHPAVddispinfo_t@@H@Z 004307c0 f i bsplib.obj
 0001:0002f890       ??$CopyLumpInternal@VCDispVert@@@@YAHHPAVCDispVert@@H@Z 00430890 f i bsplib.obj
 0001:0002f960       ??$CopyLumpInternal@Udface_t@@@@YAHHPAUdface_t@@H@Z 00430960 f i bsplib.obj
 0001:0002fa40       ??$CopyLumpInternal@Udfaceid_t@@@@YAHHPAUdfaceid_t@@H@Z 00430a40 f i bsplib.obj
 0001:0002faf0       ??$CopyLumpInternal@Udprimitive_t@@@@YAHHPAUdprimitive_t@@H@Z 00430af0 f i bsplib.obj
 0001:0002fbc0       ??$CopyLumpInternal@Udprimvert_t@@@@YAHHPAUdprimvert_t@@H@Z 00430bc0 f i bsplib.obj
 0001:0002fc90       ??$CopyLumpInternal@Udbrush_t@@@@YAHHPAUdbrush_t@@H@Z 00430c90 f i bsplib.obj
 0001:0002fd60       ??$CopyLumpInternal@Udareaportal_t@@@@YAHHPAUdareaportal_t@@H@Z 00430d60 f i bsplib.obj
 0001:0002fe30       ??$CopyLumpInternal@Udworldlight_t@@@@YAHHPAUdworldlight_t@@H@Z 00430e30 f i bsplib.obj
 0001:0002fef0       ??$CopyLumpInternal@Udleafwaterdata_t@@@@YAHHPAUdleafwaterdata_t@@H@Z 00430ef0 f i bsplib.obj
 0001:0002ffc0       ??$CopyLumpInternal@Udcubemapsample_t@@@@YAHHPAUdcubemapsample_t@@H@Z 00430fc0 f i bsplib.obj
 0001:00030070       ??$CopyLumpInternal@Udoverlay_t@@@@YAHHPAUdoverlay_t@@H@Z 00431070 f i bsplib.obj
 0001:00030140       ??$CopyLumpInternal@Udwateroverlay_t@@@@YAHHPAUdwateroverlay_t@@H@Z 00431140 f i bsplib.obj
 0001:00030210       ??$CopyLumpInternal@Udoverlayfade_t@@@@YAHHPAUdoverlayfade_t@@H@Z 00431210 f i bsplib.obj
 0001:000302c0       ??$CopyLumpInternal@Udflagslump_t@@@@YAHHPAUdflagslump_t@@H@Z 004312c0 f i bsplib.obj
 0001:00030370       ?Grow@?$CUtlMemory@U?$UtlLinkedListElem_t@UGameLump_t@@G@@G@@QAEXH@Z 00431370 f i bsplib.obj
 0001:00030420       ?GetGameLump@CGameLump@@QAEPAXG@Z 00431420 f   bsplib.obj
 0001:00030440       ?SwapGameLump@CGameLump@@QAEXHHPAE0H@Z 00431440 f   bsplib.obj
 0001:000307b0       ?TexDataStringTable_GetString@@YAPBDH@Z 004317b0 f   bsplib.obj
 0001:00030d30       ?Lumps_Write@@YAXXZ        00431d30 f   bsplib.obj
 0001:00030da0       ?OpenBSPFile@@YAXPBD@Z     00431da0 f   bsplib.obj
 0001:00030e60       ?CalcFaceExtents@@YAXPAUdface_t@@QAH1@Z 00431e60 f   bsplib.obj
 0001:00031120       ?UpdateAllFaceLightmapExtents@@YAXXZ 00432120 f   bsplib.obj
 0001:00031170       ??$GetObjects@Udoccluderdata_t@@@CUtlBuffer@@QAEXPAUdoccluderdata_t@@H@Z 00432170 f i bsplib.obj
 0001:00031200       ??$GetObjects@Udoccluderpolydata_t@@@CUtlBuffer@@QAEXPAUdoccluderpolydata_t@@H@Z 00432200 f i bsplib.obj
 0001:00031260       ??$CopyLumpInternal@E@@YAHHHPAEH@Z 00432260 f i bsplib.obj
 0001:00031260       ??$CopyLumpInternal@D@@YAHHHPADH@Z 00432260 f i bsplib.obj
 0001:000313a0       ??$CopyLumpInternal@G@@YAHHHPAGH@Z 004323a0 f i bsplib.obj
 0001:000314e0       ??$CopyLumpInternal@H@@YAHHHPAHH@Z 004324e0 f i bsplib.obj
 0001:00031620       ??$CopyLumpInternal@M@@YAHHHPAMH@Z 00432620 f i bsplib.obj
 0001:00031760       ?InsertMultipleBefore@?$CUtlVector@Udoccluderdata_t@@V?$CUtlMemory@Udoccluderdata_t@@H@@@@QAEHHHPBUdoccluderdata_t@@@Z 00432760 f i bsplib.obj
 0001:000319b0       ?InsertMultipleBefore@?$CUtlVector@Udoccluderpolydata_t@@V?$CUtlMemory@Udoccluderpolydata_t@@H@@@@QAEHHHPBUdoccluderpolydata_t@@@Z 004329b0 f i bsplib.obj
 0001:00031a60       ?AllocInternal@?$CUtlLinkedList@UGameLump_t@@G$0A@GV?$CUtlMemory@U?$UtlLinkedListElem_t@UGameLump_t@@G@@G@@@@IAEG_N@Z 00432a60 f i bsplib.obj
 0001:00031b80       ?InsertMultipleBefore@?$CUtlVector@Udleafambientlighting_t@@V?$CUtlMemory@Udleafambientlighting_t@@H@@@@QAEHHHPBUdleafambientlighting_t@@@Z 00432b80 f i bsplib.obj
 0001:00031c50       ?GetInt@CUtlBuffer@@QAEHXZ 00432c50 f i bsplib.obj
 0001:00031cd0       ?GetGameLumpHandle@CGameLump@@QAEGH@Z 00432cd0 f   bsplib.obj
 0001:00031d10       ?ComputeGameLumpSizeAndCount@CGameLump@@QAEXAAH0@Z 00432d10 f   bsplib.obj
 0001:00032220       ??1?$CUtlVector@UResourceMemorySection@CVTFTexture@@V?$CUtlMemory@UResourceMemorySection@CVTFTexture@@H@@@@QAE@XZ 00433220 f i vtf:vtf.obj
 0001:00032220       ??1?$CUtlVector@VCDispVert@@V?$CUtlMemory@VCDispVert@@H@@@@QAE@XZ 00433220 f i bsplib.obj
 0001:00032220       ??1?$CUtlVector@EV?$CUtlMemory@EH@@@@QAE@XZ 00433220 f i bsplib.obj
 0001:00032220       ??1?$CUtlVector@PADV?$CUtlMemory@PADH@@@@QAE@XZ 00433220 f i cubemap.obj
 0001:00032220       ??1?$CUtlVector@Udleafambientindex_t@@V?$CUtlMemory@Udleafambientindex_t@@H@@@@QAE@XZ 00433220 f i bsplib.obj
 0001:00032220       ??1?$CUtlVector@Udleafambientlighting_t@@V?$CUtlMemory@Udleafambientlighting_t@@H@@@@QAE@XZ 00433220 f i bsplib.obj
 0001:00032220       ??1?$CUtlVector@VS3RGBA@@V?$CUtlMemory@VS3RGBA@@H@@@@QAE@XZ 00433220 f i vtf:vtf.obj
 0001:00032220       ??1?$CUtlVector@UStaticPropLeafLump_t@@V?$CUtlMemory@UStaticPropLeafLump_t@@H@@@@QAE@XZ 00433220 f i staticprop.obj
 0001:00032220       ??1?$CUtlVector@Uwatermodel_t@@V?$CUtlMemory@Uwatermodel_t@@H@@@@QAE@XZ 00433220 f i ivp.obj
 0001:00032220       ??1?$CUtlVector@UOccluderInfo_t@@V?$CUtlMemory@UOccluderInfo_t@@H@@@@QAE@XZ 00433220 f i vbsp.obj
 0001:00032220       ??1?$CUtlVector@Udoccluderpolydata_t@@V?$CUtlMemory@Udoccluderpolydata_t@@H@@@@QAE@XZ 00433220 f i bsplib.obj
 0001:00032220       ??1?$CUtlVector@Udfaceid_t@@V?$CUtlMemory@Udfaceid_t@@H@@@@QAE@XZ 00433220 f i bsplib.obj
 0001:00032220       ??1?$CUtlVector@Udoccluderdata_t@@V?$CUtlMemory@Udoccluderdata_t@@H@@@@QAE@XZ 00433220 f i bsplib.obj
 0001:00032220       ??1?$CUtlVector@VCFaceMacroTextureInfo@@V?$CUtlMemory@VCFaceMacroTextureInfo@@H@@@@QAE@XZ 00433220 f i bsplib.obj
 0001:00032220       ??1?$CUtlVector@Vddispinfo_t@@V?$CUtlMemory@Vddispinfo_t@@H@@@@QAE@XZ 00433220 f i bsplib.obj
 0001:00032220       ??1?$CUtlVector@PAVCCoreDispInfo@@V?$CUtlMemory@PAVCCoreDispInfo@@H@@@@QAE@XZ 00433220 f i disp_vbsp.obj
 0001:00032220       ??1?$CUtlVector@DV?$CUtlMemory@DH@@@@QAE@XZ 00433220 f i disp_ivp.obj
 0001:00032220       ??1?$CUtlVector@VCDispTri@@V?$CUtlMemory@VCDispTri@@H@@@@QAE@XZ 00433220 f i bsplib.obj
 0001:00032220       ??1?$CUtlVector@PAUStringPool_t@CUtlSymbolTable@@V?$CUtlMemory@PAUStringPool_t@CUtlSymbolTable@@H@@@@QAE@XZ 00433220 f i tier1:utlsymbol.obj
 0001:00032220       ??1?$CUtlVector@Uviscluster_t@@V?$CUtlMemory@Uviscluster_t@@H@@@@QAE@XZ 00433220 f i prtfile.obj
 0001:00032220       ??1?$CUtlVector@UResourceEntryInfo@@V?$CUtlMemory@UResourceEntryInfo@@H@@@@QAE@XZ 00433220 f i vtf:vtf.obj
 0001:00032220       ??1?$CUtlVector@UStaticPropDictLump_t@@V?$CUtlMemory@UStaticPropDictLump_t@@H@@@@QAE@XZ 00433220 f i staticprop.obj
 0001:00032220       ??1?$CUtlVector@UStaticPropLump_t@@V?$CUtlMemory@UStaticPropLump_t@@H@@@@QAE@XZ 00433220 f i staticprop.obj
 0001:00032220       ??1?$CUtlVector@UDetailObjectDictLump_t@@V?$CUtlMemory@UDetailObjectDictLump_t@@H@@@@QAE@XZ 00433220 f i detailobjects.obj
 0001:00032220       ??1?$CUtlVector@PAUnode_t@@V?$CUtlMemory@PAUnode_t@@H@@@@QAE@XZ 00433220 f i ivp.obj
 0001:00032220       ??1?$CUtlVector@Utexinfo_s@@V?$CUtlMemory@Utexinfo_s@@H@@@@QAE@XZ 00433220 f i writebsp.obj
 0001:00032220       ??1?$CUtlVector@UDetailSpriteDictLump_t@@V?$CUtlMemory@UDetailSpriteDictLump_t@@H@@@@QAE@XZ 00433220 f i detailobjects.obj
 0001:00032220       ??1?$CUtlVector@HV?$CUtlMemory@HH@@@@QAE@XZ 00433220 f i cubemap.obj
 0001:00032220       ??1?$CUtlVector@GV?$CUtlMemory@GH@@@@QAE@XZ 00433220 f i disp_ivp.obj
 0001:00032220       ??1?$CUtlVector@Uvariable_t@@V?$CUtlMemory@Uvariable_t@@H@@@@QAE@XZ 00433220 f i scriplib.obj
 0001:00032220       ??1?$CUtlVector@UDetailObjectLump_t@@V?$CUtlMemory@UDetailObjectLump_t@@H@@@@QAE@XZ 00433220 f i detailobjects.obj
 0001:00032290       ?Unlink@?$CUtlLinkedList@UGameLump_t@@G$0A@GV?$CUtlMemory@U?$UtlLinkedListElem_t@UGameLump_t@@G@@G@@@@QAEXG@Z 00433290 f i bsplib.obj
 0001:000323e0       ?TexDataStringTable_AddOrFindString@@YAHPBD@Z 004333e0 f   bsplib.obj
 0001:000324b0       ?Lumps_Parse@@YAXXZ        004334b0 f   bsplib.obj
 0001:00032510       ?LoadBSPFile_FileSystemOnly@@YAXPBD@Z 00433510 f   bsplib.obj
 0001:00032690       ?WriteBSPFile@@YAXPBDPAD@Z 00433690 f   bsplib.obj
 0001:00032d00       ?SetCount@?$CUtlVector@Udleafambientindex_t@@V?$CUtlMemory@Udleafambientindex_t@@H@@@@QAEXH@Z 00433d00 f i bsplib.obj
 0001:00032d60       ??$CopyLump@D@@YAXHHAAV?$CUtlVector@DV?$CUtlMemory@DH@@@@H@Z 00433d60 f i bsplib.obj
 0001:00032de0       ??$CopyLump@H@@YAXHHAAV?$CUtlVector@HV?$CUtlMemory@HH@@@@H@Z 00433de0 f i bsplib.obj
 0001:00032e60       ?LinkBefore@?$CUtlLinkedList@UGameLump_t@@G$0A@GV?$CUtlMemory@U?$UtlLinkedListElem_t@UGameLump_t@@G@@G@@@@QAEXGG@Z 00433e60 f i bsplib.obj
 0001:00032ef0       ??$DataMapInit@Udheader_t@@@@YAPAUdatamap_t@@PAUdheader_t@@@Z 00433ef0 f   bsplib.obj
 0001:00032f70       ??$DataMapInit@Ulump_t@@@@YAPAUdatamap_t@@PAUlump_t@@@Z 00433f70 f   bsplib.obj
 0001:00032ff0       ??$DataMapInit@Udflagslump_t@@@@YAPAUdatamap_t@@PAUdflagslump_t@@@Z 00433ff0 f   bsplib.obj
 0001:00033070       ??$DataMapInit@Udplane_t@@@@YAPAUdatamap_t@@PAUdplane_t@@@Z 00434070 f   bsplib.obj
 0001:000330f0       ??$DataMapInit@Udleaf_version_0_t@@@@YAPAUdatamap_t@@PAUdleaf_version_0_t@@@Z 004340f0 f   bsplib.obj
 0001:00033170       ??$DataMapInit@Udleaf_t@@@@YAPAUdatamap_t@@PAUdleaf_t@@@Z 00434170 f   bsplib.obj
 0001:000331f0       ??$DataMapInit@UCompressedLightCube@@@@YAPAUdatamap_t@@PAUCompressedLightCube@@@Z 004341f0 f   bsplib.obj
 0001:00033270       ??$DataMapInit@Udleafambientindex_t@@@@YAPAUdatamap_t@@PAUdleafambientindex_t@@@Z 00434270 f   bsplib.obj
 0001:000332f0       ??$DataMapInit@Udleafambientlighting_t@@@@YAPAUdatamap_t@@PAUdleafambientlighting_t@@@Z 004342f0 f   bsplib.obj
 0001:00033370       ??$DataMapInit@Udvertex_t@@@@YAPAUdatamap_t@@PAUdvertex_t@@@Z 00434370 f   bsplib.obj
 0001:000333f0       ??$DataMapInit@Udnode_t@@@@YAPAUdatamap_t@@PAUdnode_t@@@Z 004343f0 f   bsplib.obj
 0001:00033470       ??$DataMapInit@Utexinfo_s@@@@YAPAUdatamap_t@@PAUtexinfo_s@@@Z 00434470 f   bsplib.obj
 0001:000334f0       ??$DataMapInit@Udtexdata_t@@@@YAPAUdatamap_t@@PAUdtexdata_t@@@Z 004344f0 f   bsplib.obj
 0001:00033570       ??$DataMapInit@Vddispinfo_t@@@@YAPAUdatamap_t@@PAVddispinfo_t@@@Z 00434570 f   bsplib.obj
 0001:000335f0       ??$DataMapInit@VCDispNeighbor@@@@YAPAUdatamap_t@@PAVCDispNeighbor@@@Z 004345f0 f   bsplib.obj
 0001:00033670       ??$DataMapInit@VCDispCornerNeighbors@@@@YAPAUdatamap_t@@PAVCDispCornerNeighbors@@@Z 00434670 f   bsplib.obj
 0001:000336f0       ??$DataMapInit@UCDispSubNeighbor@@@@YAPAUdatamap_t@@PAUCDispSubNeighbor@@@Z 004346f0 f   bsplib.obj
 0001:00033770       ??$DataMapInit@VCDispVert@@@@YAPAUdatamap_t@@PAVCDispVert@@@Z 00434770 f   bsplib.obj
 0001:000337f0       ??$DataMapInit@VCDispTri@@@@YAPAUdatamap_t@@PAVCDispTri@@@Z 004347f0 f   bsplib.obj
 0001:00033870       ??$DataMapInit@VCFaceMacroTextureInfo@@@@YAPAUdatamap_t@@PAVCFaceMacroTextureInfo@@@Z 00434870 f   bsplib.obj
 0001:000338f0       ??$DataMapInit@Udprimitive_t@@@@YAPAUdatamap_t@@PAUdprimitive_t@@@Z 004348f0 f   bsplib.obj
 0001:00033970       ??$DataMapInit@Udprimvert_t@@@@YAPAUdatamap_t@@PAUdprimvert_t@@@Z 00434970 f   bsplib.obj
 0001:000339f0       ??$DataMapInit@Udface_t@@@@YAPAUdatamap_t@@PAUdface_t@@@Z 004349f0 f   bsplib.obj
 0001:00033a70       ??$DataMapInit@Udfaceid_t@@@@YAPAUdatamap_t@@PAUdfaceid_t@@@Z 00434a70 f   bsplib.obj
 0001:00033af0       ??$DataMapInit@Udbrush_t@@@@YAPAUdatamap_t@@PAUdbrush_t@@@Z 00434af0 f   bsplib.obj
 0001:00033b70       ??$DataMapInit@Udbrushside_t@@@@YAPAUdatamap_t@@PAUdbrushside_t@@@Z 00434b70 f   bsplib.obj
 0001:00033bf0       ??$DataMapInit@Udedge_t@@@@YAPAUdatamap_t@@PAUdedge_t@@@Z 00434bf0 f   bsplib.obj
 0001:00033c70       ??$DataMapInit@Udmodel_t@@@@YAPAUdatamap_t@@PAUdmodel_t@@@Z 00434c70 f   bsplib.obj
 0001:00033cf0       ??$DataMapInit@Udphysmodel_t@@@@YAPAUdatamap_t@@PAUdphysmodel_t@@@Z 00434cf0 f   bsplib.obj
 0001:00033d70       ??$DataMapInit@Udphysdisp_t@@@@YAPAUdatamap_t@@PAUdphysdisp_t@@@Z 00434d70 f   bsplib.obj
 0001:00033df0       ??$DataMapInit@Udarea_t@@@@YAPAUdatamap_t@@PAUdarea_t@@@Z 00434df0 f   bsplib.obj
 0001:00033e70       ??$DataMapInit@Udareaportal_t@@@@YAPAUdatamap_t@@PAUdareaportal_t@@@Z 00434e70 f   bsplib.obj
 0001:00033ef0       ??$DataMapInit@Udworldlight_t@@@@YAPAUdatamap_t@@PAUdworldlight_t@@@Z 00434ef0 f   bsplib.obj
 0001:00033f70       ??$DataMapInit@Udleafwaterdata_t@@@@YAPAUdatamap_t@@PAUdleafwaterdata_t@@@Z 00434f70 f   bsplib.obj
 0001:00033ff0       ??$DataMapInit@Udoccluderdata_t@@@@YAPAUdatamap_t@@PAUdoccluderdata_t@@@Z 00434ff0 f   bsplib.obj
 0001:00034070       ??$DataMapInit@Udoccluderpolydata_t@@@@YAPAUdatamap_t@@PAUdoccluderpolydata_t@@@Z 00435070 f   bsplib.obj
 0001:000340f0       ??$DataMapInit@Udcubemapsample_t@@@@YAPAUdatamap_t@@PAUdcubemapsample_t@@@Z 004350f0 f   bsplib.obj
 0001:00034170       ??$DataMapInit@Udoverlay_t@@@@YAPAUdatamap_t@@PAUdoverlay_t@@@Z 00435170 f   bsplib.obj
 0001:000341f0       ??$DataMapInit@Udwateroverlay_t@@@@YAPAUdatamap_t@@PAUdwateroverlay_t@@@Z 004351f0 f   bsplib.obj
 0001:00034270       ??$DataMapInit@Udoverlayfade_t@@@@YAPAUdatamap_t@@PAUdoverlayfade_t@@@Z 00435270 f   bsplib.obj
 0001:000342f0       ??$DataMapInit@Udgamelumpheader_t@@@@YAPAUdatamap_t@@PAUdgamelumpheader_t@@@Z 004352f0 f   bsplib.obj
 0001:00034370       ??$DataMapInit@Udgamelump_t@@@@YAPAUdatamap_t@@PAUdgamelump_t@@@Z 00435370 f   bsplib.obj
 0001:000343f0       ??$DataMapInit@UStaticPropDictLump_t@@@@YAPAUdatamap_t@@PAUStaticPropDictLump_t@@@Z 004353f0 f   bsplib.obj
 0001:00034470       ??$DataMapInit@UStaticPropLump_t@@@@YAPAUdatamap_t@@PAUStaticPropLump_t@@@Z 00435470 f   bsplib.obj
 0001:000344f0       ??$DataMapInit@UStaticPropLumpV4_t@@@@YAPAUdatamap_t@@PAUStaticPropLumpV4_t@@@Z 004354f0 f   bsplib.obj
 0001:00034570       ??$DataMapInit@UStaticPropLumpV5_t@@@@YAPAUdatamap_t@@PAUStaticPropLumpV5_t@@@Z 00435570 f   bsplib.obj
 0001:000345f0       ??$DataMapInit@UStaticPropLeafLump_t@@@@YAPAUdatamap_t@@PAUStaticPropLeafLump_t@@@Z 004355f0 f   bsplib.obj
 0001:00034670       ??$DataMapInit@UDetailObjectDictLump_t@@@@YAPAUdatamap_t@@PAUDetailObjectDictLump_t@@@Z 00435670 f   bsplib.obj
 0001:000346f0       ??$DataMapInit@UDetailObjectLump_t@@@@YAPAUdatamap_t@@PAUDetailObjectLump_t@@@Z 004356f0 f   bsplib.obj
 0001:00034770       ??$DataMapInit@UDetailSpriteDictLump_t@@@@YAPAUdatamap_t@@PAUDetailSpriteDictLump_t@@@Z 00435770 f   bsplib.obj
 0001:000347f0       ??$DataMapInit@UDetailPropLightstylesLump_t@@@@YAPAUdatamap_t@@PAUDetailPropLightstylesLump_t@@@Z 004357f0 f   bsplib.obj
 0001:00034870       ??$DataMapInit@UMeshHeader_t@HardwareVerts@@@HardwareVerts@@YAPAUdatamap_t@@PAUMeshHeader_t@0@@Z 00435870 f   bsplib.obj
 0001:000348f0       ??$DataMapInit@UFileHeader_t@HardwareVerts@@@HardwareVerts@@YAPAUdatamap_t@@PAUFileHeader_t@0@@Z 004358f0 f   bsplib.obj
 0001:00034b30       ??$DataMapInit@Uswapcollideheader_t@@@@YAPAUdatamap_t@@PAUswapcollideheader_t@@@Z 00435b30 f   bsplib.obj
 0001:00034bb0       ??$DataMapInit@Uswapcompactsurfaceheader_t@@@@YAPAUdatamap_t@@PAUswapcompactsurfaceheader_t@@@Z 00435bb0 f   bsplib.obj
 0001:00034c30       ??$DataMapInit@Uswapmoppsurfaceheader_t@@@@YAPAUdatamap_t@@PAUswapmoppsurfaceheader_t@@@Z 00435c30 f   bsplib.obj
 0001:00034ca0       ?LoadLeafs@@YAHXZ          00435ca0 f   bsplib.obj
 0001:00034e90       ?UnparseEntities@@YAXXZ    00435e90 f   bsplib.obj
 0001:000350a0       ?RemoveAll@?$CUtlLinkedList@UGameLump_t@@G$0A@GV?$CUtlMemory@U?$UtlLinkedListElem_t@UGameLump_t@@G@@G@@@@QAEXXZ 004360a0 f i bsplib.obj
 0001:00035150       ??$CopyOptionalLump@Udleafambientlighting_t@@@@YAXHAAV?$CUtlVector@Udleafambientlighting_t@@V?$CUtlMemory@Udleafambientlighting_t@@H@@@@H@Z 00436150 f i bsplib.obj
 0001:000351b0       ??$CopyOptionalLump@Udleafambientindex_t@@@@YAXHAAV?$CUtlVector@Udleafambientindex_t@@V?$CUtlMemory@Udleafambientindex_t@@H@@@@H@Z 004361b0 f i bsplib.obj
 0001:00035230       ?LoadLeafAmbientLighting@@YAXH@Z 00436230 f   bsplib.obj
 0001:00035460       ??$CopyOptionalLump@Udfaceid_t@@@@YAXHAAV?$CUtlVector@Udfaceid_t@@V?$CUtlMemory@Udfaceid_t@@H@@@@H@Z 00436460 f i bsplib.obj
 0001:000354e0       ?RemoveAll@?$CUtlVector@VCUtlString@@V?$CUtlMemory@VCUtlString@@H@@@@QAEXXZ 004364e0 f i bsplib.obj
 0001:00035540       ?CreateGameLump@CGameLump@@QAEGHHHH@Z 00436540 f   bsplib.obj
 0001:000355f0       ?DestroyGameLump@CGameLump@@QAEXG@Z 004365f0 f   bsplib.obj
 0001:00035650       ?ParseGameLump@CGameLump@@QAEXPAUdheader_t@@@Z 00436650 f   bsplib.obj
 0001:00035750       ?LoadBSPFile@@YAXPBD@Z     00436750 f   bsplib.obj
 0001:00036730       ??1?$CUtlVector@VCUtlString@@V?$CUtlMemory@VCUtlString@@H@@@@QAE@XZ 00437730 f i bsplib.obj
 0001:00036790       ?Vector2DClear@@YAXAAVVector2D@@@Z 00437790 f i builddisp.obj
 0001:000367a0       ?Vector2DAdd@@YAXABVVector2D@@0AAV1@@Z 004377a0 f i builddisp.obj
 0001:000367c0       ?Vector2DMultiply@@YAXABVVector2D@@MAAV1@@Z 004377c0 f i builddisp.obj
 0001:000367e0       ?GetCornerNeighbors@CCoreDispSurface@@QAEPAVCDispCornerNeighbors@@H@Z 004377e0 f i builddisp.obj
 0001:00036800       ?GetEdgeNeighbor@CCoreDispSurface@@QAEPAVCDispNeighbor@@H@Z 00437800 f i builddisp.obj
 0001:00036820       ?GetTexCoord@CCoreDispSurface@@QBEXHAAVVector2D@@@Z 00437820 f i builddisp.obj
 0001:00036840       ?GetLuxelCoord@CCoreDispSurface@@QBEXHHAAVVector2D@@@Z 00437840 f i builddisp.obj
 0001:00036870       ?SetFlags@CCoreDispSurface@@QAEXH@Z 00437870 f i builddisp.obj
 0001:00036880       ?GetSAxis@CCoreDispSurface@@QAEXAAVVector@@@Z 00437880 f i builddisp.obj
 0001:000368b0       ?GetTAxis@CCoreDispSurface@@QAEXAAVVector@@@Z 004378b0 f i builddisp.obj
 0001:000368e0       ?GetPointStartIndex@CCoreDispSurface@@QAEHXZ 004378e0 f i builddisp.obj
 0001:000368f0       ?GetNormal@CCoreDispSurface@@QAEXAAVVector@@@Z 004378f0 f i builddisp.obj
 0001:00036950       ?SetBoundingBox@CCoreDispNode@@QAEXABVVector@@0@Z 00437950 f i builddisp.obj
 0001:00036980       ?SetErrorTerm@CCoreDispNode@@QAEXM@Z 00437980 f i builddisp.obj
 0001:00036990       ?GetErrorTerm@CCoreDispNode@@QAEMXZ 00437990 f i builddisp.obj
 0001:000369a0       ?ChainKeyValue@KeyValues@@QAEXPAV1@@Z 004379a0 f i tier1:KeyValues.obj
 0001:000369a0       ?SetCenterVertIndex@CCoreDispNode@@QAEXH@Z 004379a0 f i builddisp.obj
 0001:000369b0       ?SetNeighborVertIndex@CCoreDispNode@@QAEXHH@Z 004379b0 f i builddisp.obj
 0001:000369d0       ?GetNeighborVertIndex@CCoreDispNode@@QAEHH@Z 004379d0 f i builddisp.obj
 0001:000369e0       ?SetTriBoundingBox@CCoreDispNode@@QAEXHABVVector@@0@Z 004379e0 f i builddisp.obj
 0001:00036a20       ?GetTriBoundingBox@CCoreDispNode@@QAEXHAAVVector@@0@Z 00437a20 f i builddisp.obj
 0001:00036a60       ?SetTriPlane@CCoreDispNode@@QAEXHABVVector@@M@Z 00437a60 f i builddisp.obj
 0001:00036aa0       ?SetRayBoundingBox@CCoreDispNode@@QAEXHABVVector@@0@Z 00437aa0 f i builddisp.obj
 0001:00036af0       ?GetPostSpacing@CCoreDispInfo@@QAEHXZ 00437af0 f i builddisp.obj
 0001:00036b00       ?GetNodeLevel@@YAHH@Z      00437b00 f   builddisp.obj
 0001:00036b40       ?GetNodeCount@@YAHH@Z      00437b40 f   builddisp.obj
 0001:00036b60       ?GetNodeChild@@YAHHHH@Z    00437b60 f   builddisp.obj
 0001:00036b70       ?CalcBarycentricCooefs@@YA_NABVVector@@000AAM11@Z 00437b70 f   builddisp.obj
 0001:00036d60       ?Init@CCoreDispSurface@@QAEXXZ 00437d60 f   builddisp.obj
 0001:00036f20       ?FindSurfPointStartIndex@CCoreDispSurface@@QAEHXZ 00437f20 f   builddisp.obj
 0001:00037010       ?AdjustSurfPointData@CCoreDispSurface@@QAEXXZ 00438010 f   builddisp.obj
 0001:000372c0       ?LongestInU@CCoreDispSurface@@IAE_NABVVector@@0@Z 004382c0 f   builddisp.obj
 0001:00037420       ?CalcLuxelCoords@CCoreDispSurface@@QAE_NH_NABVVector@@1@Z 00438420 f   builddisp.obj
 0001:00037830       ?Init@CCoreDispNode@@QAEXXZ 00438830 f   builddisp.obj
 0001:00037960       ??1CCoreDispInfo@@QAE@XZ   00438960 f   builddisp.obj
 0001:00037a00       ??0CoreDispVert_t@@QAE@XZ  00438a00 f i builddisp.obj
 0001:00037a90       ?SetDispUtilsHelperInfo@CCoreDispInfo@@QAEXPAPAV1@H@Z 00438a90 f   builddisp.obj
 0001:00037ac0       ?GetPowerInfo@CCoreDispInfo@@UBEPBVCPowerInfo@@XZ 00438ac0 f   builddisp.obj
 0001:00037ae0       ?GetEdgeNeighbor@CCoreDispInfo@@UAEPAVCDispNeighbor@@H@Z 00438ae0 f   builddisp.obj
 0001:00037b00       ?GetCornerNeighbors@CCoreDispInfo@@UAEPAVCDispCornerNeighbors@@H@Z 00438b00 f   builddisp.obj
 0001:00037b20       ?GetDispUtilsByIndex@CCoreDispInfo@@UAEPAVCDispUtilsHelper@@H@Z 00438b20 f   builddisp.obj
 0001:00037b60       ?BuildTriTLtoBR@CCoreDispInfo@@AAEXH@Z 00438b60 f   builddisp.obj
 0001:00037c60       ?BuildTriBLtoTR@CCoreDispInfo@@AAEXH@Z 00438c60 f   builddisp.obj
 0001:00037d60       ?GenerateCollisionSurface@CCoreDispInfo@@AAEXXZ 00438d60 f   builddisp.obj
 0001:00037e30       ?GenerateCollisionData@CCoreDispInfo@@AAEXXZ 00438e30 f   builddisp.obj
 0001:00037e50       ?CalcTriSurfPlanes@CCoreDispInfo@@AAEXHQAY02H@Z 00438e50 f   builddisp.obj
 0001:00038040       ?CalcRayBoundingBoxes@CCoreDispInfo@@AAEXHQAY02H@Z 00439040 f   builddisp.obj
 0001:000387a0       ?CalcTriSurfBoundingBoxes@CCoreDispInfo@@AAEXHQAY02H@Z 004397a0 f   builddisp.obj
 0001:00038b20       ?CalcTriSurfIndices@CCoreDispInfo@@AAEXHQAY02H@Z 00439b20 f   builddisp.obj
 0001:00038d80       ?CalcTriSurfInfoAtNode@CCoreDispInfo@@AAEXH@Z 00439d80 f   builddisp.obj
 0001:00038dd0       ?CalcMinMaxBoundingBoxAtNode@CCoreDispInfo@@AAEXHAAVVector@@0@Z 00439dd0 f   builddisp.obj
 0001:00038ff0       ?CalcBoundingBoxAtNode@CCoreDispInfo@@AAEXH@Z 00439ff0 f   builddisp.obj
 0001:000395a0       ?GetMaxErrorFromChildren@CCoreDispInfo@@AAEMHH@Z 0043a5a0 f   builddisp.obj
 0001:00039630       ?CalcErrorTermAtNode@CCoreDispInfo@@AAEXHH@Z 0043a630 f   builddisp.obj
 0001:00039c40       ?CalcNeighborVertIndicesAtNode@CCoreDispInfo@@AAEXHH@Z 0043ac40 f   builddisp.obj
 0001:00039dd0       ?CalcNodeInfo@CCoreDispInfo@@AAEXHH@Z 0043add0 f   builddisp.obj
 0001:00039e80       ?GetNodeVertIndexFromParentIndex@CCoreDispInfo@@AAEHHHH@Z 0043ae80 f   builddisp.obj
 0001:00039f60       ?CalcVertIndicesAtNodes@CCoreDispInfo@@AAEXH@Z 0043af60 f   builddisp.obj
 0001:0003a040       ?GenerateLODTree@CCoreDispInfo@@AAEXXZ 0043b040 f   builddisp.obj
 0001:0003a0b0       ?CalcDispSurfCoords@CCoreDispInfo@@QAEX_NH@Z 0043b0b0 f   builddisp.obj
 0001:0003a3c0       ?GenerateDispSurfTangentSpaces@CCoreDispInfo@@AAEXXZ 0043b3c0 f   builddisp.obj
 0001:0003a630       ?CalcNormalFromEdges@CCoreDispInfo@@AAEXHHQA_NAAVVector@@@Z 0043b630 f   builddisp.obj
 0001:0003b240       ?DoesEdgeExist@CCoreDispInfo@@AAE_NHHHH@Z 0043c240 f   builddisp.obj
 0001:0003b2d0       ?GenerateDispSurfNormals@CCoreDispInfo@@AAEXXZ 0043c2d0 f   builddisp.obj
 0001:0003b3d0       ?GenerateDispSurf@CCoreDispInfo@@AAEXXZ 0043c3d0 f   builddisp.obj
 0001:0003b910       ?DispUVToSurf_TriTLToBR_2@CCoreDispInfo@@AAEXABVVector@@HHHHAAV2@PAV2@PAM_N@Z 0043c910 f   builddisp.obj
 0001:0003be60       ?DispUVToSurf_TriBLToTR_2@CCoreDispInfo@@AAEXABVVector@@HHHHAAV2@PAV2@PAM_N@Z 0043ce60 f   builddisp.obj
 0001:0003c390       ?GetTriCount@CCoreDispInfo@@QAEHXZ 0043d390 f   builddisp.obj
 0001:0003c3a0       ?InitTris@CCoreDispInfo@@AAEXXZ 0043d3a0 f   builddisp.obj
 0001:0003c3e0       ?CreateTris@CCoreDispInfo@@AAEXXZ 0043d3e0 f   builddisp.obj
 0001:0003c460       ??0CCoreDispSurface@@QAE@XZ 0043d460 f   builddisp.obj
 0001:0003c500       ??0CCoreDispNode@@QAE@XZ   0043d500 f i builddisp.obj
 0001:0003c570       ?Create@CCoreDispInfo@@QAE_NXZ 0043d570 f   builddisp.obj
 0001:0003c600       ?DispUVToSurf_TriTLToBR_1@CCoreDispInfo@@AAEXABVVector@@HHHHAAV2@PAV2@PAM_N@Z 0043d600 f   builddisp.obj
 0001:0003cb00       ?DispUVToSurf_TriTLToBR@CCoreDispInfo@@AAEXAAVVector@@PAV2@PAMMMABV2@@Z 0043db00 f   builddisp.obj
 0001:0003cba0       ?DispUVToSurf_TriBLToTR_1@CCoreDispInfo@@AAEXABVVector@@HHHHAAV2@PAV2@PAM_N@Z 0043dba0 f   builddisp.obj
 0001:0003d0b0       ?DispUVToSurf_TriBLToTR@CCoreDispInfo@@AAEXAAVVector@@PAV2@PAMMMABV2@@Z 0043e0b0 f   builddisp.obj
 0001:0003d140       ?DispUVToSurf@CCoreDispInfo@@QAEXABVVector2D@@AAVVector@@PAV3@PAM@Z 0043e140 f   builddisp.obj
 0001:0003d260       ?InitDispInfo@CCoreDispInfo@@QAEXHHMPAMPAVVector@@0@Z 0043e260 f   builddisp.obj
 0001:0003d750       ?GetPositionOnSurface@CCoreDispInfo@@QAEXMMAAVVector@@PAV2@PAM@Z 0043e750 f   builddisp.obj
 0001:0003d780       ??0?$CBitVec@$0BCB@@@QAE@XZ 0043e780 f i builddisp.obj
 0001:0003d7b0       ??0CCoreDispInfo@@QAE@XZ   0043e7b0 f   builddisp.obj
 0001:0003d890       ?_Decref@facet@locale@std@@QAEPAV123@XZ 0043e890 f i chunkfile.obj
 0001:0003d8d0       ??1locale@std@@QAE@XZ      0043e8d0 f i chunkfile.obj
 0001:0003d920       ??_G?$basic_ios@DU?$char_traits@D@std@@@std@@UAEPAXI@Z 0043e920 f i tier1:tokenreader.obj
 0001:0003d920       ??_Eios_base@std@@UAEPAXI@Z 0043e920 f i chunkfile.obj
 0001:0003d920       ??_Gios_base@std@@UAEPAXI@Z 0043e920 f i chunkfile.obj
 0001:0003d920       ??_E?$basic_ios@DU?$char_traits@D@std@@@std@@UAEPAXI@Z 0043e920 f i tier1:tokenreader.obj
 0001:0003d950       ??0CChunkHandlerMap@@QAE@XZ 0043e950 f   chunkfile.obj
 0001:0003d960       ??1CChunkHandlerMap@@QAE@XZ 0043e960 f   chunkfile.obj
 0001:0003d980       ?AddHandler@CChunkHandlerMap@@QAEXPBDP6A?AW4ChunkFileResult_t@@PAVCChunkFile@@PAX@Z2@Z 0043e980 f   chunkfile.obj
 0001:0003d9e0       ?GetHandler@CChunkHandlerMap@@QAEP6A?AW4ChunkFileResult_t@@PAVCChunkFile@@PAX@ZPBDPAPAX@Z 0043e9e0 f   chunkfile.obj
 0001:0003da20       ?GetErrorText@CChunkFile@@QAEPBDW4ChunkFileResult_t@@@Z 0043ea20 f   chunkfile.obj
 0001:0003db20       ?Open@CChunkFile@@QAE?AW4ChunkFileResult_t@@PBDW4ChunkFileOpenMode_t@@@Z 0043eb20 f   chunkfile.obj
 0001:0003db80       ?PopHandlers@CChunkFile@@QAEXXZ 0043eb80 f   chunkfile.obj
 0001:0003dba0       ?PushHandlers@CChunkFile@@QAEXPAVCChunkHandlerMap@@@Z 0043eba0 f   chunkfile.obj
 0001:0003dbd0       ?ReadNext@CChunkFile@@QAE?AW4ChunkFileResult_t@@PAD0HAAW4ChunkType_t@@@Z 0043ebd0 f   chunkfile.obj
 0001:0003dd70       ?ReadKeyValueFloat@CChunkFile@@SA_NPBDAAM@Z 0043ed70 f   chunkfile.obj
 0001:0003dd90       ?ReadKeyValueInt@CChunkFile@@SA_NPBDAAH@Z 0043ed90 f   chunkfile.obj
 0001:0003ddb0       ?ReadKeyValueVector3@CChunkFile@@SA_NPBDAAVVector@@@Z 0043edb0 f   chunkfile.obj
 0001:0003ddf0       ?HandleChunk@CChunkFile@@QAE?AW4ChunkFileResult_t@@PBD@Z 0043edf0 f   chunkfile.obj
 0001:0003dee0       ?ReadChunk@CChunkFile@@QAE?AW4ChunkFileResult_t@@P6A?AW42@PBD0PAX@Z1@Z 0043eee0 f   chunkfile.obj
 0001:0003df60       ??1?$basic_streambuf@DU?$char_traits@D@std@@@std@@UAE@XZ 0043ef60 f i chunkfile.obj
 0001:0003dfe0       ?_Lock@?$basic_streambuf@DU?$char_traits@D@std@@@std@@UAEXXZ 0043efe0 f i chunkfile.obj
 0001:0003dff0       ?_Unlock@?$basic_streambuf@DU?$char_traits@D@std@@@std@@UAEXXZ 0043eff0 f i chunkfile.obj
 0001:0003e000       ?overflow@?$basic_streambuf@DU?$char_traits@D@std@@@std@@MAEHH@Z 0043f000 f i chunkfile.obj
 0001:0003e000       ?pbackfail@?$basic_streambuf@DU?$char_traits@D@std@@@std@@MAEHH@Z 0043f000 f i chunkfile.obj
 0001:0003e010       ?showmanyc@?$basic_streambuf@DU?$char_traits@D@std@@@std@@MAE_JXZ 0043f010 f i chunkfile.obj
 0001:0003e020       ?underflow@?$basic_streambuf@DU?$char_traits@D@std@@@std@@MAEHXZ 0043f020 f i chunkfile.obj
 0001:0003e030       ?setbuf@?$basic_streambuf@DU?$char_traits@D@std@@@std@@MAEPAV12@PAD_J@Z 0043f030 f i chunkfile.obj
 0001:0003e040       ?imbue@?$basic_streambuf@DU?$char_traits@D@std@@@std@@MAEXABVlocale@2@@Z 0043f040 f i chunkfile.obj
 0001:0003e050       ?_Gnavail@?$basic_streambuf@DU?$char_traits@D@std@@@std@@IBE_JXZ 0043f050 f i chunkfile.obj
 0001:0003e070       ?_Pnavail@?$basic_streambuf@DU?$char_traits@D@std@@@std@@IBE_JXZ 0043f070 f i chunkfile.obj
 0001:0003e090       ?uflow@?$basic_streambuf@DU?$char_traits@D@std@@@std@@MAEHXZ 0043f090 f i chunkfile.obj
 0001:0003e0c0       ?xsgetn@?$basic_streambuf@DU?$char_traits@D@std@@@std@@MAE_JPAD_J@Z 0043f0c0 f i chunkfile.obj
 0001:0003e190       ?xsputn@?$basic_streambuf@DU?$char_traits@D@std@@@std@@MAE_JPBD_J@Z 0043f190 f i chunkfile.obj
 0001:0003e260       ?seekoff@?$basic_streambuf@DU?$char_traits@D@std@@@std@@MAE?AV?$fpos@H@2@_JHH@Z 0043f260 f i chunkfile.obj
 0001:0003e290       ?seekpos@?$basic_streambuf@DU?$char_traits@D@std@@@std@@MAE?AV?$fpos@H@2@V32@H@Z 0043f290 f i chunkfile.obj
 0001:0003e2c0       ??_G?$basic_istream@DU?$char_traits@D@std@@@std@@UAEPAXI@Z 0043f2c0 f i chunkfile.obj
 0001:0003e2c0       ??_E?$basic_istream@DU?$char_traits@D@std@@@std@@UAEPAXI@Z 0043f2c0 f i chunkfile.obj
 0001:0003e300       ??_E?$basic_streambuf@DU?$char_traits@D@std@@@std@@UAEPAXI@Z 0043f300 f i chunkfile.obj
 0001:0003e300       ??_G?$basic_streambuf@DU?$char_traits@D@std@@@std@@UAEPAXI@Z 0043f300 f i chunkfile.obj
 0001:0003e330       ?_Reset_back@?$basic_filebuf@DU?$char_traits@D@std@@@std@@AAEXXZ 0043f330 f i chunkfile.obj
 0001:0003e360       ?_Chassign@?$basic_string@DU?$char_traits@D@std@@V?$allocator@D@2@@std@@QAEXIID@Z 0043f360 f i chunkfile.obj
 0001:0003e3a0       ?_Init@?$basic_streambuf@DU?$char_traits@D@std@@@std@@IAEXXZ 0043f3a0 f i chunkfile.obj
 0001:0003e400       ?allocate@?$allocator@D@std@@QAEPADI@Z 0043f400 f i chunkfile.obj
 0001:0003e450       ?_Init@?$basic_filebuf@DU?$char_traits@D@std@@@std@@IAEXPAU_iobuf@@W4_Initfl@12@@Z 0043f450 f i chunkfile.obj
 0001:0003e4f0       ?_Copy@?$basic_string@DU?$char_traits@D@std@@V?$allocator@D@2@@std@@QAEXII@Z 0043f4f0 f i chunkfile.obj
 0001:0003e630       ??1?$basic_string@DU?$char_traits@D@std@@V?$allocator@D@2@@std@@QAE@XZ 0043f630 f i chunkfile.obj
 0001:0003e660       ?_Grow@?$basic_string@DU?$char_traits@D@std@@V?$allocator@D@2@@std@@QAE_NI_N@Z 0043f660 f i chunkfile.obj
 0001:0003e710       ?append@?$basic_string@DU?$char_traits@D@std@@V?$allocator@D@2@@std@@QAEAAV12@ID@Z 0043f710 f i chunkfile.obj
 0001:0003e7c0       ?_Endwrite@?$basic_filebuf@DU?$char_traits@D@std@@@std@@IAE_NXZ 0043f7c0 f i chunkfile.obj
 0001:0003e8f0       ?close@?$basic_filebuf@DU?$char_traits@D@std@@@std@@QAEPAV12@XZ 0043f8f0 f i chunkfile.obj
 0001:0003e980       ?_Incref@facet@locale@std@@QAEXXZ 0043f980 f i chunkfile.obj
 0001:0003e9b0       ??1facet@locale@std@@UAE@XZ 0043f9b0 f i chunkfile.obj
 0001:0003e9c0       ?do_always_noconv@codecvt_base@std@@MBE_NXZ 0043f9c0 f i chunkfile.obj
 0001:0003e9d0       ??$_Fputc@D@std@@YA_NDPAU_iobuf@@@Z 0043f9d0 f i chunkfile.obj
 0001:0003e9f0       ?_Lock@?$basic_filebuf@DU?$char_traits@D@std@@@std@@UAEXXZ 0043f9f0 f i chunkfile.obj
 0001:0003ea00       ?_Unlock@?$basic_filebuf@DU?$char_traits@D@std@@@std@@UAEXXZ 0043fa00 f i chunkfile.obj
 0001:0003ea10       ?sync@?$basic_filebuf@DU?$char_traits@D@std@@@std@@MAEHXZ 0043fa10 f i chunkfile.obj
 0001:0003ea40       ??1?$_Yarn@D@std@@QAE@XZ   0043fa40 f i chunkfile.obj
 0001:0003ea60       ?underflow@?$basic_filebuf@DU?$char_traits@D@std@@@std@@MAEHXZ 0043fa60 f i chunkfile.obj
 0001:0003eab0       ?_Set_back@?$basic_filebuf@DU?$char_traits@D@std@@@std@@AAEXXZ 0043fab0 f i chunkfile.obj
 0001:0003eaf0       ?do_out@?$codecvt@DDH@std@@MBEHAAHPBD1AAPBDPAD3AAPAD@Z 0043faf0 f i chunkfile.obj
 0001:0003eaf0       ?do_in@?$codecvt@DDH@std@@MBEHAAHPBD1AAPBDPAD3AAPAD@Z 0043faf0 f i chunkfile.obj
 0001:0003eb10       ?do_unshift@?$codecvt@DDH@std@@MBEHAAHPAD1AAPAD@Z 0043fb10 f i chunkfile.obj
 0001:0003eb30       ?do_length@?$codecvt@DDH@std@@MBEHABHPBD1I@Z 0043fb30 f i chunkfile.obj
 0001:0003eb50       ??_Gfacet@locale@std@@UAEPAXI@Z 0043fb50 f i chunkfile.obj
 0001:0003eb50       ??_Efacet@locale@std@@UAEPAXI@Z 0043fb50 f i chunkfile.obj
 0001:0003eb50       ??_G?$codecvt@DDH@std@@MAEPAXI@Z 0043fb50 f i chunkfile.obj
 0001:0003eb50       ??_E?$codecvt@DDH@std@@MAEPAXI@Z 0043fb50 f i chunkfile.obj
 0001:0003eb80       ??0_Locinfo@std@@QAE@PBD@Z 0043fb80 f i chunkfile.obj
 0001:0003ebf0       ??0runtime_error@std@@QAE@ABV01@@Z 0043fbf0 f i chunkfile.obj
 0001:0003ec10       ??1_Locinfo@std@@QAE@XZ    0043fc10 f i chunkfile.obj
 0001:0003ec80       ?pbackfail@?$basic_filebuf@DU?$char_traits@D@std@@@std@@MAEHH@Z 0043fc80 f i chunkfile.obj
 0001:0003ed10       ?erase@?$basic_string@DU?$char_traits@D@std@@V?$allocator@D@2@@std@@QAEAAV12@II@Z 0043fd10 f i chunkfile.obj
 0001:0003eda0       ?_Getcat@?$codecvt@DDH@std@@SAIPAPBVfacet@locale@2@PBV42@@Z 0043fda0 f i chunkfile.obj
 0001:0003ee20       ?setbuf@?$basic_filebuf@DU?$char_traits@D@std@@@std@@MAEPAV?$basic_streambuf@DU?$char_traits@D@std@@@2@PAD_J@Z 0043fe20 f i chunkfile.obj
 0001:0003ee80       ??$use_facet@V?$codecvt@DDH@std@@@std@@YAABV?$codecvt@DDH@0@ABVlocale@0@@Z 0043fe80 f i chunkfile.obj
 0001:0003ef80       ?imbue@?$basic_filebuf@DU?$char_traits@D@std@@@std@@MAEXABVlocale@2@@Z 0043ff80 f i chunkfile.obj
 0001:0003efc0       ?uflow@?$basic_filebuf@DU?$char_traits@D@std@@@std@@MAEHXZ 0043ffc0 f i chunkfile.obj
 0001:0003f190       ?overflow@?$basic_filebuf@DU?$char_traits@D@std@@@std@@MAEHH@Z 00440190 f i chunkfile.obj
 0001:0003f370       ?seekoff@?$basic_filebuf@DU?$char_traits@D@std@@@std@@MAE?AV?$fpos@H@2@_JHH@Z 00440370 f i chunkfile.obj
 0001:0003f460       ?seekpos@?$basic_filebuf@DU?$char_traits@D@std@@@std@@MAE?AV?$fpos@H@2@V32@H@Z 00440460 f i chunkfile.obj
 0001:0003f540       ??_G?$basic_filebuf@DU?$char_traits@D@std@@@std@@UAEPAXI@Z 00440540 f i chunkfile.obj
 0001:0003f540       ??_E?$basic_filebuf@DU?$char_traits@D@std@@@std@@UAEPAXI@Z 00440540 f i chunkfile.obj
 0001:0003f5a0       ??1?$basic_ifstream@DU?$char_traits@D@std@@@std@@UAE@XZ 004405a0 f i chunkfile.obj
 0001:0003f600       ??_G?$basic_ifstream@DU?$char_traits@D@std@@@std@@UAEPAXI@Z 00440600 f i chunkfile.obj
 0001:0003f600       ??_E?$basic_ifstream@DU?$char_traits@D@std@@@std@@UAEPAXI@Z 00440600 f i chunkfile.obj
 0001:0003f640       ??0CChunkFile@@QAE@XZ      00440640 f   chunkfile.obj
 0001:0003f670       ??1CChunkFile@@QAE@XZ      00440670 f   chunkfile.obj
 0001:0003f730       ?SetConsoleTextColor@@YAGHHHH@Z 00440730 f   cmdlib.obj
 0001:0003f7c0       ?CmdLib_Exit@@YAXH@Z       004407c0 f   cmdlib.obj
 0001:0003f7d0       ?qprintf@@YAXPADZZ         004407d0 f   cmdlib.obj
 0001:0003f820       ?ExpandArg@@YAPADPAD@Z     00440820 f   cmdlib.obj
 0001:0003f8a0       ?copystring@@YAPADPBD@Z    004408a0 f   cmdlib.obj
 0001:0003f8e0       ?GetHourMinuteSecondsString@@YAXHPADH@Z 004408e0 f   cmdlib.obj
 0001:0003f9f0       ?CmdLib_InitFileSystem@@YAXPBDH@Z 004409f0 f   cmdlib.obj
 0001:0003fa20       ?CmdLib_GetFileSystemFactory@@YAP6APAXPBDPAH@ZXZ 00440a20 f   cmdlib.obj
 0001:0003fa30       ?SafeOpenWrite@@YAPAXPBD@Z 00440a30 f   cmdlib.obj
 0001:0003fa70       ?CmdLib_HasBasePath@@YA_NPBDAAH@Z 00440a70 f   cmdlib.obj
 0001:0003fb30       ?SafeOpenRead@@YAPAXPBD@Z  00440b30 f   cmdlib.obj
 0001:0003fc50       ?SafeWrite@@YAXPAX0H@Z     00440c50 f   cmdlib.obj
 0001:0003fc90       ?FileExists@@YAHPBD@Z      00440c90 f   cmdlib.obj
 0001:0003fcd0       ?LoadFile@@YAHPBDPAPAX@Z   00440cd0 f   cmdlib.obj
 0001:0003fd60       ?RemoveAll@?$CUtlLinkedList@P6AXXZG$0A@GV?$CUtlMemory@U?$UtlLinkedListElem_t@P6AXXZG@@G@@@@QAEXXZ 00440d60 f i cmdlib.obj
 0001:0003fd60       ?RemoveAll@?$CUtlLinkedList@P6AXPBD@ZG$0A@GV?$CUtlMemory@U?$UtlLinkedListElem_t@P6AXPBD@ZG@@G@@@@QAEXXZ 00440d60 f i cmdlib.obj
 0001:0003fd60       ?RemoveAll@?$CUtlLinkedList@PAVCZip@@G$0A@GV?$CUtlMemory@U?$UtlLinkedListElem_t@PAVCZip@@G@@G@@@@QAEXXZ 00440d60 f i zip_utils.obj
 0001:0003fdd0       ?CmdLib_Cleanup@@YAXXZ     00440dd0 f   cmdlib.obj
 0001:0003fe40       ?CmdLib_FPrintf@@YAXPAXPBDZZ 00440e40 f   cmdlib.obj
 0001:0003ffd0       ?CmdLib_SpewOutputFunc@@YA?AW4SpewRetval_t@@W4SpewType_t@@PBD@Z 00440fd0 f   cmdlib.obj
 0001:000402a0       ?InstallSpewFunction@@YAXXZ 004412a0 f   cmdlib.obj
 0001:000402e0       ?SetSpewFunctionLogFile@@YAXPBD@Z 004412e0 f   cmdlib.obj
 0001:00040330       ?SetValue@CTempEnvVar@@QAAXPBDZZ 00441330 f i filesystem_init.obj
 0001:00040390       ?Q_getwd@@YAXPADH@Z        00441390 f   filesystem_init.obj
 0001:000403c0       ??0CFSSearchPathsInit@@QAE@XZ 004413c0 f   filesystem_init.obj
 0001:000403d0       ??0CFSLoadModuleInfo@@QAE@XZ 004413d0 f   filesystem_init.obj
 0001:00040400       ??0CFSMountContentInfo@@QAE@XZ 00441400 f   filesystem_init.obj
 0001:00040410       ?AddLanguageGameDir@@YAXPAVIFileSystem@@PBD1@Z 00441410 f   filesystem_init.obj
 0001:000404e0       ?GetVProjectCmdLineValue@@YAPBDXZ 004414e0 f   filesystem_init.obj
 0001:00040520       ?IsLowViolenceBuild@@YA_NXZ 00441520 f   filesystem_init.obj
 0001:00040780       ?DoesFileExistIn@@YA_NPBD0@Z 00441780 f   filesystem_init.obj
 0001:000407f0       ?DoesPathExistAlready@@YA_NPBD0@Z 004417f0 f   filesystem_init.obj
 0001:000408f0       ?FileSystem_AddSearchPath_Platform@@YAXPAVIFileSystem@@PBD@Z 004418f0 f   filesystem_init.obj
 0001:00040980       ?FileSystem_GetExecutableDir@@YA_NPADH@Z 00441980 f   filesystem_init.obj
 0001:00040a90       ?LaunchVConfig@@YAXXZ      00441a90 f   filesystem_init.obj
 0001:00040b00       ?SetupFileSystemError@@YA?AW4FSReturnCode_t@@_NW41@PBDZZ 00441b00 f   filesystem_init.obj
 0001:00040b90       ?FileSystem_IsHldsUpdateToolDedicatedServer@@YA_NXZ 00441b90 f   filesystem_init.obj
 0001:00040c20       ?SetSteamInstallPath@@YA?AW4FSReturnCode_t@@PADHAAVCSteamEnvVars@@_N@Z 00441c20 f   filesystem_init.obj
 0001:00040da0       ?FileSystem_SetBasePaths@@YA?AW4FSReturnCode_t@@PAVIFileSystem@@@Z 00441da0 f   filesystem_init.obj
 0001:00040e10       ?FileSystem_GetFileSystemDLLName@@YA?AW4FSReturnCode_t@@PADHAA_N@Z 00441e10 f   filesystem_init.obj
 0001:00040ed0       ??1CTempEnvVar@@QAE@XZ     00441ed0 f i filesystem_init.obj
 0001:000410f0       ?LocateGameInfoFile@@YA?AW4FSReturnCode_t@@ABVCFSSteamSetupInfo@@PADH@Z 004420f0 f   filesystem_init.obj
 0001:000412e0       ??1CSteamEnvVars@@QAE@XZ   004422e0 f i filesystem_init.obj
 0001:00041310       ??0CTempEnvVar@@QAE@PBD@Z  00442310 f i filesystem_init.obj
 0001:000413e0       ?ReadKeyValuesFile@@YAPAVKeyValues@@PBD@Z 004423e0 f   filesystem_init.obj
 0001:000414f0       ?LoadGameInfoFile@@YA?AW4FSReturnCode_t@@PBDAAPAVKeyValues@@11@Z 004424f0 f   filesystem_init.obj
 0001:000415e0       ?FileSystem_LoadSearchPaths@@YA?AW4FSReturnCode_t@@AAVCFSSearchPathsInit@@@Z 004425e0 f   filesystem_init.obj
 0001:000417e0       ?SetSteamAppUser@@YAXPAVKeyValues@@PBDAAVCSteamEnvVars@@@Z 004427e0 f   filesystem_init.obj
 0001:00041900       ?SetupSteamStartupEnvironment@@YA?AW4FSReturnCode_t@@PAVKeyValues@@PBDAAVCSteamEnvVars@@@Z 00442900 f   filesystem_init.obj
 0001:00041a20       ?FileSystem_SetupSteamInstallPath@@YA?AW4FSReturnCode_t@@XZ 00442a20 f   filesystem_init.obj
 0001:00041ab0       ?FileSystem_SetupSteamEnvironment@@YA?AW4FSReturnCode_t@@AAVCFSSteamSetupInfo@@@Z 00442ab0 f   filesystem_init.obj
 0001:00041c10       ?FileSystem_LoadFileSystemModule@@YA?AW4FSReturnCode_t@@AAVCFSLoadModuleInfo@@@Z 00442c10 f   filesystem_init.obj
 0001:00041cd0       ?FileSystem_MountContent@@YA?AW4FSReturnCode_t@@AAVCFSMountContentInfo@@@Z 00442cd0 f   filesystem_init.obj
 0001:00041e10       ?FileSystem_SetupStandardDirectories@@YAXPBD0@Z 00442e10 f   filesystem_tools.obj
 0001:00041e90       ?FileSystem_Init_Normal@@YA_NPBDW4FSInitType_t@@_N@Z 00442e90 f   filesystem_tools.obj
 0001:00042090       ?FileSystem_Init@@YA_NPBDHW4FSInitType_t@@_N@Z 00443090 f   filesystem_tools.obj
 0001:000420b0       ?FileSystem_Term@@YAXXZ    004430b0 f   filesystem_tools.obj
 0001:00042100       ?FileSystem_GetFactory@@YAP6APAXPBDPAH@ZXZ 00443100 f   filesystem_tools.obj
 0001:00042110       ?LoadEntityKeyCallback@@YA?AW4ChunkFileResult_t@@PBD0PAULoadEntity_t@@@Z 00443110 f   map_shared.obj
 0001:00042230       ?UpdatePacifier@@YAXM@Z    00443230 f   pacifier.obj
 0001:000422c0       ?EndPacifier@@YAX_N@Z      004432c0 f   pacifier.obj
 0001:000422f0       ?StartPacifier@@YAXPBD@Z   004432f0 f   pacifier.obj
 0001:00042330       ?AllocWinding@@YAPAUwinding_t@@H@Z 00443330 f   polylib.obj
 0001:000423c0       ?FreeWinding@@YAXPAUwinding_t@@@Z 004433c0 f   polylib.obj
 0001:00042410       ?WindingPlane@@YAXPAUwinding_t@@AAVVector@@PAM@Z 00443410 f   polylib.obj
 0001:000424b0       ?WindingArea@@YAMPAUwinding_t@@@Z 004434b0 f   polylib.obj
 0001:00042550       ?WindingCenter@@YAXPAUwinding_t@@AAVVector@@@Z 00443550 f   polylib.obj
 0001:000425d0       ?BaseWindingForPlane@@YAPAUwinding_t@@ABVVector@@M@Z 004435d0 f   polylib.obj
 0001:00042820       ?CopyWinding@@YAPAUwinding_t@@PAU1@@Z 00443820 f   polylib.obj
 0001:00042860       ?ReverseWinding@@YAPAUwinding_t@@PAU1@@Z 00443860 f   polylib.obj
 0001:000428c0       ?ClipWindingEpsilon@@YAXPAUwinding_t@@ABVVector@@MMPAPAU1@2@Z 004438c0 f   polylib.obj
 0001:00042ec0       ?ClassifyWindingEpsilon@@YAXPAUwinding_t@@ABVVector@@MMPAPAU1@22@Z 00443ec0 f   polylib.obj
 0001:00043280       ?ChopWindingInPlace@@YAXPAPAUwinding_t@@ABVVector@@MM@Z 00444280 f   polylib.obj
 0001:00043560       ?WindingOnPlaneSide@@YAHPAUwinding_t@@ABVVector@@M@Z 00444560 f   polylib.obj
 0001:00043610       ?TranslateWinding@@YAXPAUwinding_t@@ABVVector@@@Z 00444610 f   polylib.obj
 0001:00043650       ?ClipWindingEpsilon_Offset@@YAXPAUwinding_t@@ABVVector@@MMPAPAU1@21@Z 00444650 f   polylib.obj
 0001:00043730       ?ClassifyWindingEpsilon_Offset@@YAXPAUwinding_t@@ABVVector@@MMPAPAU1@221@Z 00444730 f   polylib.obj
 0001:00043840       ?DefaultScriptLoadedCallback@@YAXPBD0H@Z 00444840 f   scriplib.obj
 0001:00043850       ?DoesFileExist@CScriptLib@@UAE_NPBD@Z 00444850 f   scriplib.obj
 0001:00043870       ?ReadFileToBuffer@CScriptLib@@UAE_NPBDAAVCUtlBuffer@@_N2@Z 00444870 f   scriplib.obj
 0001:000438f0       ?WriteBufferToFile@CScriptLib@@UAE_NPBDAAVCUtlBuffer@@W4DiskWriteMode_t@@@Z 004448f0 f   scriplib.obj
 0001:000439b0       ?CompareFileTime@CScriptLib@@UAEHPBD0@Z 004449b0 f   scriplib.obj
 0001:00043a10       ?MakeTemporaryFilename@CScriptLib@@UAEPADPBDPADH@Z 00444a10 f   scriplib.obj
 0001:00043a80       ?InsertBefore@?$CUtlVector@VCUtlString@@V?$CUtlMemory@VCUtlString@@H@@@@QAEHH@Z 00444a80 f i scriplib.obj
 0001:00043af0       ?InsertBefore@?$CUtlVector@UfileList_t@@V?$CUtlMemory@UfileList_t@@H@@@@QAEHH@Z 00444af0 f i scriplib.obj
 0001:00043b60       ?InsertMultipleBefore@?$CUtlVector@UfileList_t@@V?$CUtlMemory@UfileList_t@@H@@@@QAEHHHPBUfileList_t@@@Z 00444b60 f i scriplib.obj
 0001:00043c60       ?RemoveAll@?$CUtlVector@UfileList_t@@V?$CUtlMemory@UfileList_t@@H@@@@QAEXXZ 00444c60 f i scriplib.obj
 0001:00043cd0       ?GetFileList@CScriptLib@@AAEHPBD0AAV?$CUtlVector@UfileList_t@@V?$CUtlMemory@UfileList_t@@H@@@@@Z 00444cd0 f   scriplib.obj
 0001:00043f30       ??1?$CUtlVector@UfileList_t@@V?$CUtlMemory@UfileList_t@@H@@@@QAE@XZ 00444f30 f i scriplib.obj
 0001:00043f90       ?DeleteTemporaryFiles@CScriptLib@@UAEXPBD@Z 00444f90 f   scriplib.obj
 0001:000440c0       ?RecurseFileTree_r@CScriptLib@@AAEXPBDHAAV?$CUtlVector@VCUtlString@@V?$CUtlMemory@VCUtlString@@H@@@@@Z 004450c0 f   scriplib.obj
 0001:000441e0       ?FindFiles@CScriptLib@@UAEHPAD_NAAV?$CUtlVector@UfileList_t@@V?$CUtlMemory@UfileList_t@@H@@@@@Z 004451e0 f   scriplib.obj
 0001:000444b0       ?SetLowPriority@@YAXXZ     004454b0 f   threads.obj
 0001:000444c0       ?ThreadSetDefault@@YAXXZ   004454c0 f   threads.obj
 0001:00044510       ?ThreadLock@@YAXXZ         00445510 f   threads.obj
 0001:00044550       ?ThreadUnlock@@YAXXZ       00445550 f   threads.obj
 0001:00044590       ?InternalRunThreadsFn@@YGKPAX@Z 00445590 f   threads.obj
 0001:000445b0       ?RunThreads_Start@@YAXP6AXHPAX@Z0W4ERunThreadsPriority@@@Z 004455b0 f   threads.obj
 0001:00044640       ?RunThreads_End@@YAXXZ     00445640 f   threads.obj
 0001:000446a0       ?RunThreadsOn@@YAXHHP6AXHPAX@Z0@Z 004456a0 f   threads.obj
 0001:00044720       ?ThreadWorkerFunction@@YAXHPAX@Z 00445720 f   threads.obj
 0001:00044820       ?RunThreadsOnIndividual@@YAXHHP6AXHH@Z@Z 00445820 f   threads.obj
 0001:000448c0       ?EnableFullMinidumps@@YAX_N@Z 004458c0 f   tools_minidump.obj
 0001:000448d0       ?SetupDefaultToolsMinidumpHandler@@YAXXZ 004458d0 f   tools_minidump.obj
 0001:000448e0       ?SinCos@@YAXMPAM0@Z        004458e0 f i mathlib:mathlib_base.obj
 0001:00044900       ?_sqrtf@@YAMM@Z            00445900 f   mathlib:mathlib_base.obj
 0001:00044910       ?_rsqrtf@@YAMM@Z           00445910 f   mathlib:mathlib_base.obj
 0001:00044920       ?_VectorNormalize@@YIMAAVVector@@@Z 00445920 f   mathlib:mathlib_base.obj
 0001:00044960       ?_VectorNormalizeFast@@YIXAAVVector@@@Z 00445960 f   mathlib:mathlib_base.obj
 0001:000449a0       ?_InvRSquared@@YAMPBM@Z    004459a0 f   mathlib:mathlib_base.obj
 0001:000449e0       ?InitSinCosTable@@YAXXZ    004459e0 f   mathlib:mathlib_base.obj
 0001:00044a30       ?AngleVectors@@YAXABVQAngle@@PAVVector@@11@Z 00445a30 f   mathlib:mathlib_base.obj
 0001:00044b60       ?VectorAngles@@YAXABVVector@@AAVQAngle@@@Z 00445b60 f   mathlib:mathlib_base.obj
 0001:00044c50       ?ClearBounds@@YAXAAVVector@@0@Z 00445c50 f   mathlib:mathlib_base.obj
 0001:00044c80       ?AddPointToBounds@@YAXABVVector@@AAV1@1@Z 00445c80 f   mathlib:mathlib_base.obj
 0001:00044cf0       ?MathLib_Init@@YAXMMMH_N000@Z 00445cf0 f   mathlib:mathlib_base.obj
 0001:00044e90       ??4VMatrix@@QAEAAV0@ABV0@@Z 00445e90 f   mathlib:vmatrix.obj
 0001:00044f00       ?MatrixMul@VMatrix@@QBEXABV1@AAV1@@Z 00445f00 f   mathlib:vmatrix.obj
 0001:00045160       ??DVMatrix@@QBE?AV0@ABV0@@Z 00446160 f   mathlib:vmatrix.obj
 0001:00045180       ?MatrixSetIdentity@@YAXAAVVMatrix@@@Z 00446180 f   mathlib:vmatrix.obj
 0001:000451c0       ?MatrixToAngles@@YAXABVVMatrix@@AAVQAngle@@@Z 004461c0 f   mathlib:vmatrix.obj
 0001:00045270       ?SetupMatrixAxisRot@@YA?AVVMatrix@@ABVVector@@M@Z 00446270 f   mathlib:vmatrix.obj
 0001:00045330       ?Transpose@VMatrix@@QBE?AV1@XZ 00446330 f   mathlib:vmatrix.obj
 0001:000453a0       ?TextureToLinear@@YAMH@Z   004463a0 f   mathlib:color_conversion.obj
 0001:000453d0       ?BuildGammaTable@@YAXMMMH@Z 004463d0 f   mathlib:color_conversion.obj
 0001:00045670       ?_SSE_Sqrt@@YAMM@Z         00446670 f   mathlib:sse.obj
 0001:00045690       ?_SSE_RSqrtAccurate@@YAMM@Z 00446690 f   mathlib:sse.obj
 0001:000456e0       ?_SSE_RSqrtFast@@YAMM@Z    004466e0 f   mathlib:sse.obj
 0001:00045700       ?_SSE_VectorNormalizeFast@@YIXAAVVector@@@Z 00446700 f   mathlib:sse.obj
 0001:00045790       ?_SSE_InvRSquared@@YAMPBM@Z 00446790 f   mathlib:sse.obj
 0001:000457e0       ?_SSE_SinCos@@YAXMPAM0@Z   004467e0 f   mathlib:sse.obj
 0001:00045920       ?_SSE_cos@@YAMM@Z          00446920 f   mathlib:sse.obj
 0001:000459f0       ?_SSE2_SinCos@@YAXMPAM0@Z  004469f0 f   mathlib:sse.obj
 0001:00045b10       ?_SSE2_cos@@YAMM@Z         00446b10 f   mathlib:sse.obj
 0001:00045be0       ?_3DNow_Sqrt@@YAMM@Z       00446be0 f   mathlib:3dnow.obj
 0001:00045c10       ?_3DNow_RSqrt@@YAMM@Z      00446c10 f   mathlib:3dnow.obj
 0001:00045c30       ?_3DNow_VectorNormalize@@YIMAAVVector@@@Z 00446c30 f   mathlib:3dnow.obj
 0001:00045cc0       ?_3DNow_VectorNormalizeFast@@YIXAAVVector@@@Z 00446cc0 f   mathlib:3dnow.obj
 0001:00045cd0       ?_3DNow_InvRSquared@@YAMPBM@Z 00446cd0 f   mathlib:3dnow.obj
 0001:00045d10       ?V_strncmp@@YAHPBD0H@Z     00446d10 f   tier1:strtools.obj
 0001:00045d60       ?V_strncasecmp@@YAHPBD0H@Z 00446d60 f   tier1:strtools.obj
 0001:00045de0       ?V_strcasecmp@@YAHPBD0@Z   00446de0 f   tier1:strtools.obj
 0001:00045e20       ?V_strnicmp@@YAHPBD0H@Z    00446e20 f   tier1:strtools.obj
 0001:00045e60       ?V_stristr@@YAPBDPBD0@Z    00446e60 f   tier1:strtools.obj
 0001:00045f20       ?V_stristr@@YAPADPADPBD@Z  00446f20 f   tier1:strtools.obj
 0001:00045f60       ?V_strncat@@YAPADPADPBDIH@Z 00446f60 f   tier1:strtools.obj
 0001:00045ff0       ?V_StripTrailingSlash@@YAXPAD@Z 00446ff0 f   tier1:strtools.obj
 0001:00046030       ?V_DefaultExtension@@YAXPADPBDH@Z 00447030 f   tier1:strtools.obj
 0001:000460e0       ?V_StripFilename@@YAXPAD@Z 004470e0 f   tier1:strtools.obj
 0001:00046120       ?V_FixSlashes@@YAXPADD@Z   00447120 f   tier1:strtools.obj
 0001:00046150       ?V_UnqualifiedFileName@@YAPBDPBD@Z 00447150 f   tier1:strtools.obj
 0001:00046190       ?V_RemoveDotSlashes@@YA_NPADD@Z 00447190 f   tier1:strtools.obj
 0001:000462e0       ?V_AppendSlash@@YAXPADH@Z  004472e0 f   tier1:strtools.obj
 0001:00046330       ?V_IsAbsolutePath@@YA_NPBD@Z 00447330 f   tier1:strtools.obj
 0001:00046360       ?V_StrSlice@@YAXPBDHHPADH@Z 00447360 f   tier1:strtools.obj
 0001:00046410       ?V_strncpy@@YAXPADPBDH@Z   00447410 f   tier1:strtools.obj
 0001:00046450       ?V_snprintf@@YAHPADHPBDZZ  00447450 f   tier1:strtools.obj
 0001:000464a0       ?V_vsnprintf@@YAHPADHPBD0@Z 004474a0 f   tier1:strtools.obj
 0001:000464f0       ?V_FileBase@@YAXPBDPADH@Z  004474f0 f   tier1:strtools.obj
 0001:000465c0       ?V_StripExtension@@YAXPBDPADH@Z 004475c0 f   tier1:strtools.obj
 0001:00046670       ?V_StripLastDir@@YA_NPADH@Z 00447670 f   tier1:strtools.obj
 0001:00046720       ?V_ComposeFileName@@YAXPBD0PADH@Z 00447720 f   tier1:strtools.obj
 0001:00046820       ?V_ExtractFileExtension@@YAXPBDPADH@Z 00447820 f   tier1:strtools.obj
 0001:000468a0       ?V_MakeAbsolutePath@@YAXPADHPBD1@Z 004478a0 f   tier1:strtools.obj
 0001:00046a40       ?V_StrRight@@YAXPBDHPADH@Z 00447a40 f   tier1:strtools.obj
 0001:00046ad0       ?GetCStringCharConversion@@YAPAVCUtlCharConversion@@XZ 00447ad0 f   tier1:utlbuffer.obj
 0001:00046ae0       ?GetNoEscCharConversion@@YAPAVCUtlCharConversion@@XZ 00447ae0 f   tier1:utlbuffer.obj
 0001:00046af0       ?FindConversion@CUtlCStringConversion@@UAEDPBDPAH@Z 00447af0 f   tier1:utlbuffer.obj
 0001:00046b10       ??0CUtlCharConversion@@QAE@DPBDHPAUConversionArray_t@0@@Z 00447b10 f   tier1:utlbuffer.obj
 0001:00046bb0       ?FindConversion@CUtlCharConversion@@UAEDPBDPAH@Z 00447bb0 f   tier1:utlbuffer.obj
 0001:00046c30       ?SetBufferType@CUtlBuffer@@QAEX_N0@Z 00447c30 f   tier1:utlbuffer.obj
 0001:00046c60       ?GetOverflow@CUtlBuffer@@IAE_NH@Z 00447c60 f   tier1:utlbuffer.obj
 0001:00046c70       ?ActivateByteSwapping@CUtlBuffer@@QAEX_N@Z 00447c70 f   tier1:utlbuffer.obj
 0001:00046ca0       ?FindConversion@CUtlNoEscConversion@@UAEDPBDPAH@Z 00447ca0 f i tier1:utlbuffer.obj
 0001:00046cc0       ?CheckGet@CUtlBuffer@@IAE_NH@Z 00447cc0 f   tier1:utlbuffer.obj
 0001:00046d20       ?CheckArbitraryPeekGet@CUtlBuffer@@IAE_NHAAH@Z 00447d20 f   tier1:utlbuffer.obj
 0001:00046d90       ?PeekGet@CUtlBuffer@@QAEPBXHH@Z 00447d90 f   tier1:utlbuffer.obj
 0001:00046dd0       ?SeekGet@CUtlBuffer@@QAEXW4SeekType_t@1@H@Z 00447dd0 f   tier1:utlbuffer.obj
 0001:00046e30       ?CheckPut@CUtlBuffer@@IAE_NH@Z 00447e30 f   tier1:utlbuffer.obj
 0001:00046e80       ?AddNullTermination@CUtlBuffer@@IAEXXZ 00447e80 f   tier1:utlbuffer.obj
 0001:00046ed0       ?ConvertToGrowableMemory@?$CUtlMemory@EH@@QAEXH@Z 00447ed0 f i tier1:utlbuffer.obj
 0001:00046f20       ?EnsureCapacity@CUtlBuffer@@QAEXH@Z 00447f20 f   tier1:utlbuffer.obj
 0001:00046f80       ?Get@CUtlBuffer@@QAEXPAXH@Z 00447f80 f   tier1:utlbuffer.obj
 0001:00046ff0       ?EatWhiteSpace@CUtlBuffer@@QAEXXZ 00447ff0 f   tier1:utlbuffer.obj
 0001:00047050       ?PeekWhiteSpace@CUtlBuffer@@IAEHH@Z 00448050 f   tier1:utlbuffer.obj
 0001:000470f0       ?PeekStringLength@CUtlBuffer@@QAEHXZ 004480f0 f   tier1:utlbuffer.obj
 0001:00047240       ?PeekStringMatch@CUtlBuffer@@IAE_NHPBDH@Z 00448240 f   tier1:utlbuffer.obj
 0001:000472a0       ?Put@CUtlBuffer@@QAEXPBXH@Z 004482a0 f   tier1:utlbuffer.obj
 0001:00047310       ?PutOverflow@CUtlBuffer@@IAE_NH@Z 00448310 f   tier1:utlbuffer.obj
 0001:00047360       ?SeekPut@CUtlBuffer@@QAEXW4SeekType_t@1@H@Z 00448360 f   tier1:utlbuffer.obj
 0001:000473e0       ??$GetTypeBin@D@CUtlBuffer@@IAEXAAD@Z 004483e0 f i tier1:utlbuffer.obj
 0001:00047450       ??0CUtlBuffer@@QAE@HHH@Z   00448450 f   tier1:utlbuffer.obj
 0001:000474d0       ??0CUtlBuffer@@QAE@PBXHH@Z 004484d0 f   tier1:utlbuffer.obj
 0001:00047550       ?PutString@CUtlBuffer@@QAEXPBD@Z 00448550 f   tier1:utlbuffer.obj
 0001:00047630       ?Printf@CUtlBuffer@@QAAXPBDZZ 00448630 f   tier1:utlbuffer.obj
 0001:00047670       ?GetChar@CUtlBuffer@@QAEDXZ 00448670 f i tier1:utlbuffer.obj
 0001:000476b0       ?EatCPPComment@CUtlBuffer@@QAE_NXZ 004486b0 f   tier1:utlbuffer.obj
 0001:00047720       ?GetString@CUtlBuffer@@QAEXPADH@Z 00448720 f   tier1:utlbuffer.obj
 0001:000477f0       ?GetDelimitedCharInternal@CUtlBuffer@@IAEDPAVCUtlCharConversion@@@Z 004487f0 f   tier1:utlbuffer.obj
 0001:000478b0       ?GetDelimitedString@CUtlBuffer@@QAEXPAVCUtlCharConversion@@PADH@Z 004488b0 f   tier1:utlbuffer.obj
 0001:00047a20       ?VaScanf@CUtlBuffer@@QAEHPBDPAD@Z 00448a20 f   tier1:utlbuffer.obj
 0001:00047cd0       ?Scanf@CUtlBuffer@@QAAHPBDZZ 00448cd0 f   tier1:utlbuffer.obj
 0001:00047cf0       ?NewNode@?$CUtlRBTree@VCStringPoolIndex@CUtlSymbolTable@@GVCLess@2@V?$CUtlMemory@U?$UtlRBTreeNode_t@VCStringPoolIndex@CUtlSymbolTable@@G@@G@@@@QAEGXZ 00448cf0 f i tier1:utlsymbol.obj
 0001:00047de0       ?Parent@?$CUtlRBTree@VCStringPoolIndex@CUtlSymbolTable@@GVCLess@2@V?$CUtlMemory@U?$UtlRBTreeNode_t@VCStringPoolIndex@CUtlSymbolTable@@G@@G@@@@QBEGG@Z 00448de0 f i tier1:utlsymbol.obj
 0001:00047e50       ??RCLess@CUtlSymbolTable@@QBE_NABVCStringPoolIndex@1@0@Z 00448e50 f   tier1:utlsymbol.obj
 0001:00047f00       ?LeftChild@?$CUtlRBTree@VCStringPoolIndex@CUtlSymbolTable@@GVCLess@2@V?$CUtlMemory@U?$UtlRBTreeNode_t@VCStringPoolIndex@CUtlSymbolTable@@G@@G@@@@QBEGG@Z 00448f00 f i tier1:utlsymbol.obj
 0001:00047f60       ?RightChild@?$CUtlRBTree@VCStringPoolIndex@CUtlSymbolTable@@GVCLess@2@V?$CUtlMemory@U?$UtlRBTreeNode_t@VCStringPoolIndex@CUtlSymbolTable@@G@@G@@@@QBEGG@Z 00448f60 f i tier1:utlsymbol.obj
 0001:00047fd0       ?FindInsertionPosition@?$CUtlRBTree@VCStringPoolIndex@CUtlSymbolTable@@GVCLess@2@V?$CUtlMemory@U?$UtlRBTreeNode_t@VCStringPoolIndex@CUtlSymbolTable@@G@@G@@@@IAEXABVCStringPoolIndex@CUtlSymbolTable@@AAGAA_N@Z 00448fd0 f i tier1:utlsymbol.obj
 0001:000480c0       ?RotateLeft@?$CUtlRBTree@VCStringPoolIndex@CUtlSymbolTable@@GVCLess@2@V?$CUtlMemory@U?$UtlRBTreeNode_t@VCStringPoolIndex@CUtlSymbolTable@@G@@G@@@@IAEXG@Z 004490c0 f i tier1:utlsymbol.obj
 0001:000481c0       ?RotateRight@?$CUtlRBTree@VCStringPoolIndex@CUtlSymbolTable@@GVCLess@2@V?$CUtlMemory@U?$UtlRBTreeNode_t@VCStringPoolIndex@CUtlSymbolTable@@G@@G@@@@IAEXG@Z 004491c0 f i tier1:utlsymbol.obj
 0001:000482c0       ?String@CUtlSymbolTable@@QBEPBDVCUtlSymbol@@@Z 004492c0 f   tier1:utlsymbol.obj
 0001:00048300       ?Find@?$CUtlRBTree@VCStringPoolIndex@CUtlSymbolTable@@GVCLess@2@V?$CUtlMemory@U?$UtlRBTreeNode_t@VCStringPoolIndex@CUtlSymbolTable@@G@@G@@@@QBEGABVCStringPoolIndex@CUtlSymbolTable@@@Z 00449300 f i tier1:utlsymbol.obj
 0001:00048400       ?RemoveAll@?$CUtlRBTree@VCStringPoolIndex@CUtlSymbolTable@@GVCLess@2@V?$CUtlMemory@U?$UtlRBTreeNode_t@VCStringPoolIndex@CUtlSymbolTable@@G@@G@@@@QAEXXZ 00449400 f i tier1:utlsymbol.obj
 0001:000484c0       ?InsertRebalance@?$CUtlRBTree@VCStringPoolIndex@CUtlSymbolTable@@GVCLess@2@V?$CUtlMemory@U?$UtlRBTreeNode_t@VCStringPoolIndex@CUtlSymbolTable@@G@@G@@@@IAEXG@Z 004494c0 f i tier1:utlsymbol.obj
 0001:00048a70       ?String@CUtlSymbolTableMT@@QBEPBDVCUtlSymbol@@@Z 00449a70 f i tier1:utlsymbol.obj
 0001:00048ae0       ?LinkToParent@?$CUtlRBTree@VCStringPoolIndex@CUtlSymbolTable@@GVCLess@2@V?$CUtlMemory@U?$UtlRBTreeNode_t@VCStringPoolIndex@CUtlSymbolTable@@G@@G@@@@IAEXGG_N@Z 00449ae0 f i tier1:utlsymbol.obj
 0001:00048b60       ?RemoveAll@CUtlSymbolTable@@QAEXXZ 00449b60 f   tier1:utlsymbol.obj
 0001:00048be0       ??1?$CUtlRBTree@VCStringPoolIndex@CUtlSymbolTable@@GVCLess@2@V?$CUtlMemory@U?$UtlRBTreeNode_t@VCStringPoolIndex@CUtlSymbolTable@@G@@G@@@@QAE@XZ 00449be0 f i tier1:utlsymbol.obj
 0001:00048c50       ??1CUtlSymbolTable@@QAE@XZ 00449c50 f   tier1:utlsymbol.obj
 0001:00048c70       ?Insert@?$CUtlRBTree@VCStringPoolIndex@CUtlSymbolTable@@GVCLess@2@V?$CUtlMemory@U?$UtlRBTreeNode_t@VCStringPoolIndex@CUtlSymbolTable@@G@@G@@@@QAEGABVCStringPoolIndex@CUtlSymbolTable@@@Z 00449c70 f i tier1:utlsymbol.obj
 0001:00048cd0       ??0CUtlSymbolTable@@QAE@HH_N@Z 00449cd0 f   tier1:utlsymbol.obj
 0001:00048d40       ?AddString@CUtlSymbolTable@@QAE?AVCUtlSymbol@@PBD@Z 00449d40 f   tier1:utlsymbol.obj
 0001:00048ec0       ?Initialize@CUtlSymbol@@KAXXZ 00449ec0 f   tier1:utlsymbol.obj
 0001:00048f60       ??0CUtlSymbol@@QAE@PBD@Z   00449f60 f   tier1:utlsymbol.obj
 0001:00048fb0       ?String@CUtlSymbol@@QBEPBDXZ 00449fb0 f   tier1:utlsymbol.obj
 0001:00048fd0       ?ReportError@CKeyValuesErrorStack@@QAEXPBD@Z 00449fd0 f i tier1:KeyValues.obj
 0001:00049070       ?GetName@KeyValues@@QBEPBDXZ 0044a070 f   tier1:KeyValues.obj
 0001:00049090       ?ReadToken@KeyValues@@AAEPBDAAVCUtlBuffer@@AA_N1@Z 0044a090 f   tier1:KeyValues.obj
 0001:00049220       ?InternalWrite@KeyValues@@AAEXPAVIBaseFileSystem@@PAXPAVCUtlBuffer@@PBXH@Z 0044a220 f   tier1:KeyValues.obj
 0001:00049260       ?RemoveSubKey@KeyValues@@QAEXPAV1@@Z 0044a260 f   tier1:KeyValues.obj
 0001:000492c0       ?Format@CVTFTexture@@UBE?AW4ImageFormat@@XZ 0044a2c0 f   vtf:vtf.obj
 0001:000492c0       ?GetFirstSubKey@KeyValues@@QAEPAV1@XZ 0044a2c0 f   tier1:KeyValues.obj
 0001:000492d0       ?Depth@CVTFTexture@@UBEHXZ 0044a2d0 f   vtf:vtf.obj
 0001:000492d0       ?GetNextKey@KeyValues@@QAEPAV1@XZ 0044a2d0 f   tier1:KeyValues.obj
 0001:000492e0       ?GetFirstTrueSubKey@KeyValues@@QAEPAV1@XZ 0044a2e0 f   tier1:KeyValues.obj
 0001:00049300       ?GetNextTrueSubKey@KeyValues@@QAEPAV1@XZ 0044a300 f   tier1:KeyValues.obj
 0001:00049320       ?GetFirstValue@KeyValues@@QAEPAV1@XZ 0044a320 f   tier1:KeyValues.obj
 0001:00049340       ?GetNextValue@KeyValues@@QAEPAV1@XZ 0044a340 f   tier1:KeyValues.obj
 0001:00049360       ?SetName@KeyValues@@QAEXPBD@Z 0044a360 f   tier1:KeyValues.obj
 0001:00049390       ??2KeyValues@@SAPAXI@Z     0044a390 f   tier1:KeyValues.obj
 0001:000493b0       ??0KeyValues@@QAE@PBD@Z    0044a3b0 f   tier1:KeyValues.obj
 0001:00049400       ?LoadFromFile@KeyValues@@QAE_NPAVIBaseFileSystem@@PBD1@Z 0044a400 f   tier1:KeyValues.obj
 0001:00049530       ?WriteIndents@KeyValues@@AAEXPAVIBaseFileSystem@@PAXPAVCUtlBuffer@@H@Z 0044a530 f   tier1:KeyValues.obj
 0001:00049590       ?WriteConvertedString@KeyValues@@AAEXPAVIBaseFileSystem@@PAXPAVCUtlBuffer@@PBD@Z 0044a590 f   tier1:KeyValues.obj
 0001:00049630       ?RecursiveSaveToFile@KeyValues@@AAEXPAVIBaseFileSystem@@PAXPAVCUtlBuffer@@H@Z 0044a630 f   tier1:KeyValues.obj
 0001:00049d30       ?FindKey@KeyValues@@QAEPAV1@PBD_N@Z 0044ad30 f   tier1:KeyValues.obj
 0001:00049e50       ?GetInt@KeyValues@@QAEHPBDH@Z 0044ae50 f   tier1:KeyValues.obj
 0001:00049ed0       ?GetPtr@KeyValues@@QAEPAXPBDPAX@Z 0044aed0 f   tier1:KeyValues.obj
 0001:00049f00       ?GetFloat@KeyValues@@QAEMPBDM@Z 0044af00 f   tier1:KeyValues.obj
 0001:00049fd0       ?SetString@KeyValues@@QAEXPBD0@Z 0044afd0 f   tier1:KeyValues.obj
 0001:0004a040       ?SetInt@KeyValues@@QAEXPBDH@Z 0044b040 f   tier1:KeyValues.obj
 0001:0004a060       ?SetFloat@KeyValues@@QAEXPBDM@Z 0044b060 f   tier1:KeyValues.obj
 0001:0004a080       ?SetPtr@KeyValues@@QAEXPBDPAX@Z 0044b080 f   tier1:KeyValues.obj
 0001:0004a0a0       ?RecursiveCopyKeyValues@KeyValues@@AAEXAAV1@@Z 0044b0a0 f   tier1:KeyValues.obj
 0001:0004a300       ?MakeCopy@KeyValues@@QBEPAV1@XZ 0044b300 f   tier1:KeyValues.obj
 0001:0004a4b0       ?GetDataType@KeyValues@@QAE?AW4types_t@1@PBD@Z 0044b4b0 f   tier1:KeyValues.obj
 0001:0004a4d0       ?deleteThis@KeyValues@@QAEXXZ 0044b4d0 f   tier1:KeyValues.obj
 0001:0004a4f0       ?RecursiveMergeKeyValues@KeyValues@@AAEXPAV1@@Z 0044b4f0 f   tier1:KeyValues.obj
 0001:0004a5c0       ?RemoveEverything@KeyValues@@AAEXXZ 0044b5c0 f   tier1:KeyValues.obj
 0001:0004a660       ?RecursiveSaveToFile@KeyValues@@QAEXAAVCUtlBuffer@@H@Z 0044b660 f   tier1:KeyValues.obj
 0001:0004a680       ?CreateKey@KeyValues@@AAEPAV1@PBD@Z 0044b680 f   tier1:KeyValues.obj
 0001:0004a710       ?GetString@KeyValues@@QAEPBDPBD0@Z 0044b710 f   tier1:KeyValues.obj
 0001:0004a850       ??4KeyValues@@QAEAAV0@AAV0@@Z 0044b850 f   tier1:KeyValues.obj
 0001:0004a890       ?AppendIncludedKeys@KeyValues@@AAEXAAV?$CUtlVector@PAVKeyValues@@V?$CUtlMemory@PAVKeyValues@@H@@@@@Z 0044b890 f   tier1:KeyValues.obj
 0001:0004a8e0       ?MergeBaseKeys@KeyValues@@AAEXAAV?$CUtlVector@PAVKeyValues@@V?$CUtlMemory@PAVKeyValues@@H@@@@@Z 0044b8e0 f   tier1:KeyValues.obj
 0001:0004a9e0       ?RecursiveLoadFromBuffer@KeyValues@@AAEXPBDAAVCUtlBuffer@@@Z 0044b9e0 f   tier1:KeyValues.obj
 0001:0004adc0       ?ParseIncludedKeys@KeyValues@@AAEXPBD0PAVIBaseFileSystem@@0AAV?$CUtlVector@PAVKeyValues@@V?$CUtlMemory@PAVKeyValues@@H@@@@@Z 0044bdc0 f   tier1:KeyValues.obj
 0001:0004af50       ?LoadFromBuffer@KeyValues@@QAE_NPBDAAVCUtlBuffer@@PAVIBaseFileSystem@@0@Z 0044bf50 f   tier1:KeyValues.obj
 0001:0004b290       ?LoadFromBuffer@KeyValues@@QAE_NPBD0PAVIBaseFileSystem@@0@Z 0044c290 f   tier1:KeyValues.obj
 0001:0004b310       ?SwapFieldsToTargetEndian@CByteswap@@QAEXPAX0PAUdatamap_t@@@Z 0044c310 f   tier1:byteswap.obj
 0001:0004b4d0       _CreateInterface           0044c4d0 f   tier1:interface.obj
 0001:0004b540       ?ThreadedLoadLibraryFunc@@YAIPAX@Z 0044c540 f   tier1:interface.obj
 0001:0004b560       ?Sys_LoadLibrary@@YAPAUHINSTANCE__@@PBD@Z 0044c560 f   tier1:interface.obj
 0001:0004b660       ?Sys_LoadModule@@YAPAVCSysModule@@PBD@Z 0044c660 f   tier1:interface.obj
 0001:0004b780       ?Sys_UnloadModule@@YAXPAVCSysModule@@@Z 0044c780 f   tier1:interface.obj
 0001:0004b7a0       ?Sys_GetFactory@@YAP6APAXPBDPAH@ZPAVCSysModule@@@Z 0044c7a0 f   tier1:interface.obj
 0001:0004b7c0       ?Sys_GetFactoryThis@@YAP6APAXPBDPAH@ZXZ 0044c7c0 f   tier1:interface.obj
 0001:0004b7d0       ?Sys_LoadInterface@@YA_NPBD0PAPAVCSysModule@@PAPAX@Z 0044c7d0 f   tier1:interface.obj
 0001:0004b830       ?Length@CUtlString@@QBEHXZ 0044c830 f   tier1:utlstring.obj
 0001:0004b840       ?Get@CUtlString@@QBEPBDXZ  0044c840 f   tier1:utlstring.obj
 0001:0004b850       ?Set@CUtlBinaryBlock@@QAEXPBXH@Z 0044c850 f   tier1:utlstring.obj
 0001:0004b8d0       ?Set@CUtlString@@QAEXPBD@Z 0044c8d0 f   tier1:utlstring.obj
 0001:0004b910       ??4CUtlString@@QAEAAV0@ABV0@@Z 0044c910 f   tier1:utlstring.obj
 0001:0004b930       ??4CUtlString@@QAEAAV0@PBD@Z 0044c930 f   tier1:utlstring.obj
 0001:0004b980       ??0CUtlString@@QAE@XZ      0044c980 f   tier1:utlstring.obj
 0001:0004b990       ?CRC32_Init@@YAXPAK@Z      0044c990 f   tier1:checksum_crc.obj
 0001:0004b9a0       ?CRC32_Final@@YAXPAK@Z     0044c9a0 f   tier1:checksum_crc.obj
 0001:0004b9b0       ?CRC32_ProcessBuffer@@YAXPAKPBXH@Z 0044c9b0 f   tier1:checksum_crc.obj
 0001:0004bb80       ?Error@TokenReader@@QAAPBDPADZZ 0044cb80 f   tier1:tokenreader.obj
 0001:0004bbd0       ?do_tolower@?$ctype@D@std@@MBEDD@Z 0044cbd0 f i tier1:tokenreader.obj
 0001:0004bbf0       ?do_tolower@?$ctype@D@std@@MBEPBDPADPBD@Z 0044cbf0 f i tier1:tokenreader.obj
 0001:0004bc20       ?do_toupper@?$ctype@D@std@@MBEDD@Z 0044cc20 f i tier1:tokenreader.obj
 0001:0004bc40       ?do_toupper@?$ctype@D@std@@MBEPBDPADPBD@Z 0044cc40 f i tier1:tokenreader.obj
 0001:0004bc70       ?do_widen@?$ctype@D@std@@MBEDD@Z 0044cc70 f i tier1:tokenreader.obj
 0001:0004bc80       ?do_widen@?$ctype@D@std@@MBEPBDPBD0PAD@Z 0044cc80 f i tier1:tokenreader.obj
 0001:0004bcb0       ?do_narrow@?$ctype@D@std@@MBEDDD@Z 0044ccb0 f i tier1:tokenreader.obj
 0001:0004bcc0       ?do_narrow@?$ctype@D@std@@MBEPBDPBD0DPAD@Z 0044ccc0 f i tier1:tokenreader.obj
 0001:0004bcf0       ??_G?$ctype@D@std@@MAEPAXI@Z 0044ccf0 f i tier1:tokenreader.obj
 0001:0004bcf0       ??_E?$ctype@D@std@@MAEPAXI@Z 0044ccf0 f i tier1:tokenreader.obj
 0001:0004bd40       ??_Gruntime_error@std@@UAEPAXI@Z 0044cd40 f i chunkfile.obj
 0001:0004bd40       ??_Eruntime_error@std@@UAEPAXI@Z 0044cd40 f i chunkfile.obj
 0001:0004bd40       ??_Esystem_error@std@@UAEPAXI@Z 0044cd40 f i tier1:tokenreader.obj
 0001:0004bd40       ??_Gsystem_error@std@@UAEPAXI@Z 0044cd40 f i tier1:tokenreader.obj
 0001:0004bd40       ??_Gfailure@ios_base@std@@UAEPAXI@Z 0044cd40 f i tier1:tokenreader.obj
 0001:0004bd40       ??_Efailure@ios_base@std@@UAEPAXI@Z 0044cd40 f i tier1:tokenreader.obj
 0001:0004bd70       ??1failure@ios_base@std@@UAE@XZ 0044cd70 f i tier1:tokenreader.obj
 0001:0004bd70       ??1runtime_error@std@@UAE@XZ 0044cd70 f i chunkfile.obj
 0001:0004bd80       ?clear@ios_base@std@@QAEXH_N@Z 0044cd80 f i tier1:tokenreader.obj
 0001:0004be60       ??0system_error@std@@QAE@ABV01@@Z 0044ce60 f i tier1:tokenreader.obj
 0001:0004be90       ?_Init@ios_base@std@@IAEXXZ 0044ce90 f i tier1:tokenreader.obj
 0001:0004bf20       ??0failure@ios_base@std@@QAE@ABV012@@Z 0044cf20 f i tier1:tokenreader.obj
 0001:0004bf50       ?setstate@?$basic_ios@DU?$char_traits@D@std@@@std@@QAEXH_N@Z 0044cf50 f i tier1:tokenreader.obj
 0001:0004bf80       ?sgetc@?$basic_streambuf@DU?$char_traits@D@std@@@std@@QAEHXZ 0044cf80 f i tier1:tokenreader.obj
 0001:0004bfa0       ?sbumpc@?$basic_streambuf@DU?$char_traits@D@std@@@std@@QAEHXZ 0044cfa0 f i tier1:tokenreader.obj
 0001:0004bfd0       ?sputbackc@?$basic_streambuf@DU?$char_traits@D@std@@@std@@QAEHD@Z 0044cfd0 f i tier1:tokenreader.obj
 0001:0004c010       ?_Getcat@?$ctype@D@std@@SAIPAPBVfacet@locale@2@PBV42@@Z 0044d010 f i tier1:tokenreader.obj
 0001:0004c0b0       ?flush@?$basic_ostream@DU?$char_traits@D@std@@@std@@QAEAAV12@XZ 0044d0b0 f i tier1:tokenreader.obj
 0001:0004c100       ?snextc@?$basic_streambuf@DU?$char_traits@D@std@@@std@@QAEHXZ 0044d100 f i tier1:tokenreader.obj
 0001:0004c180       ??0?$basic_streambuf@DU?$char_traits@D@std@@@std@@IAE@XZ 0044d180 f i tier1:tokenreader.obj
 0001:0004c240       ??$use_facet@V?$ctype@D@std@@@std@@YAABV?$ctype@D@0@ABVlocale@0@@Z 0044d240 f i tier1:tokenreader.obj
 0001:0004c340       ?_Ipfx@?$basic_istream@DU?$char_traits@D@std@@@std@@QAE_N_N@Z 0044d340 f i tier1:tokenreader.obj
 0001:0004c4c0       ?widen@?$basic_ios@DU?$char_traits@D@std@@@std@@QBEDD@Z 0044d4c0 f i tier1:tokenreader.obj
 0001:0004c550       ?open@?$basic_filebuf@DU?$char_traits@D@std@@@std@@QAEPAV12@PBDHH@Z 0044d550 f i tier1:tokenreader.obj
 0001:0004c600       ?get@?$basic_istream@DU?$char_traits@D@std@@@std@@QAEHXZ 0044d600 f i tier1:tokenreader.obj
 0001:0004c730       ?get@?$basic_istream@DU?$char_traits@D@std@@@std@@QAEAAV12@PAD_JD@Z 0044d730 f i tier1:tokenreader.obj
 0001:0004c8a0       ?ignore@?$basic_istream@DU?$char_traits@D@std@@@std@@QAEAAV12@_JH@Z 0044d8a0 f i tier1:tokenreader.obj
 0001:0004c9f0       ?peek@?$basic_istream@DU?$char_traits@D@std@@@std@@QAEHXZ 0044d9f0 f i tier1:tokenreader.obj
 0001:0004cb10       ?putback@?$basic_istream@DU?$char_traits@D@std@@@std@@QAEAAV12@D@Z 0044db10 f i tier1:tokenreader.obj
 0001:0004cc20       ?Open@TokenReader@@QAE_NPBD@Z 0044dc20 f   tier1:tokenreader.obj
 0001:0004ccb0       ?SkipWhiteSpace@TokenReader@@AAE_NXZ 0044dcb0 f   tier1:tokenreader.obj
 0001:0004cd40       ?GetString@TokenReader@@AAE?AW4trtoken_t@@PADH@Z 0044dd40 f   tier1:tokenreader.obj
 0001:0004ce90       ?NextToken@TokenReader@@QAE?AW4trtoken_t@@PADH@Z 0044de90 f   tier1:tokenreader.obj
 0001:0004d0b0       ??0?$basic_ifstream@DU?$char_traits@D@std@@@std@@QAE@XZ 0044e0b0 f i tier1:tokenreader.obj
 0001:0004d1a0       ??0TokenReader@@QAE@XZ     0044e1a0 f   tier1:tokenreader.obj
 0001:0004d200       ??_ETokenReader@@UAEPAXI@Z 0044e200 f i tier1:tokenreader.obj
 0001:0004d200       ??_GTokenReader@@UAEPAXI@Z 0044e200 f i tier1:tokenreader.obj
 0001:0004d240       ?SizeInBytes@ImageLoader@@YAHW4ImageFormat@@@Z 0044e240 f i vtf:vtf.obj
 0001:0004d260       ?DestroyVTFTexture@@YAXPAVIVTFTexture@@@Z 0044e260 f   vtf:vtf.obj
 0001:0004d280       ?ComputeMipCount@CVTFTexture@@ABEHXZ 0044e280 f   vtf:vtf.obj
 0001:0004d2a0       ?AllocateImageData@CVTFTexture@@AAEXH@Z 0044e2a0 f   vtf:vtf.obj
 0001:0004d2d0       ?SetBumpScale@CVTFTexture@@UAEXM@Z 0044e2d0 f   vtf:vtf.obj
 0001:0004d2e0       ?SetReflectivity@CVTFTexture@@UAEXABVVector@@@Z 0044e2e0 f   vtf:vtf.obj
 0001:0004d300       ?SetAlphaTestThreshholds@CVTFTexture@@UAEXMM@Z 0044e300 f   vtf:vtf.obj
 0001:0004d320       ?LoadLowResData@CVTFTexture@@AAE_NAAVCUtlBuffer@@@Z 0044e320 f   vtf:vtf.obj
 0001:0004d370       ?LoadImageData@CVTFTexture@@AAE_NAAVCUtlBuffer@@ABUVTFFileHeader_t@@H@Z 0044e370 f   vtf:vtf.obj
 0001:0004d4b0       ?WriteData@ResourceMemorySection@CVTFTexture@@QBE_NAAVCUtlBuffer@@@Z 0044e4b0 f   vtf:vtf.obj
 0001:0004d550       ?WriteImageData@CVTFTexture@@AAE_NAAVCUtlBuffer@@@Z 0044e550 f   vtf:vtf.obj
 0001:0004d5d0       ?GetPower@CCoreDispInfo@@QBEHXZ 0044e5d0 f   disp_vbsp.obj
 0001:0004d5d0       ?Width@CVTFTexture@@UBEHXZ 0044e5d0 f   vtf:vtf.obj
 0001:0004d5e0       ?Height@CVTFTexture@@UBEHXZ 0044e5e0 f   vtf:vtf.obj
 0001:0004d5f0       ?GetBufferType@CCodecBuffer_Block@@UBE?BW4_CodecBufferType@@XZ 0044e5f0 f   bitmap:CodecBuffer_Block.obj
 0001:0004d5f0       ?MipCount@CVTFTexture@@UBEHXZ 0044e5f0 f   vtf:vtf.obj
 0001:0004d5f0       ?GetCenterVertIndex@CCoreDispNode@@QAEHXZ 0044e5f0 f   builddisp.obj
 0001:0004d600       ?FaceCount@CVTFTexture@@UBEHXZ 0044e600 f   vtf:vtf.obj
 0001:0004d610       ?FrameCount@CVTFTexture@@UBEHXZ 0044e610 f   vtf:vtf.obj
 0001:0004d620       ?Flags@CVTFTexture@@UBEHXZ 0044e620 f   vtf:vtf.obj
 0001:0004d630       ?IsCubeMap@CVTFTexture@@UBE_NXZ 0044e630 f   vtf:vtf.obj
 0001:0004d640       ?IsNormalMap@CVTFTexture@@UBE_NXZ 0044e640 f   vtf:vtf.obj
 0001:0004d650       ?IsVolumeTexture@CVTFTexture@@UBE_NXZ 0044e650 f   vtf:vtf.obj
 0001:0004d660       ?BumpScale@CVTFTexture@@UBEMXZ 0044e660 f   vtf:vtf.obj
 0001:0004d670       ?Reflectivity@CVTFTexture@@UBEABVVector@@XZ 0044e670 f   vtf:vtf.obj
 0001:0004d680       ?ImageData@CVTFTexture@@UAEPAEXZ 0044e680 f   vtf:vtf.obj
 0001:0004d690       ?LowResWidth@CVTFTexture@@UBEHXZ 0044e690 f   vtf:vtf.obj
 0001:0004d6a0       ?LowResHeight@CVTFTexture@@UBEHXZ 0044e6a0 f   vtf:vtf.obj
 0001:0004d6b0       ?LowResFormat@CVTFTexture@@UBE?AW4ImageFormat@@XZ 0044e6b0 f   vtf:vtf.obj
 0001:0004d6c0       ?LowResImageData@CVTFTexture@@UAEPAEXZ 0044e6c0 f   vtf:vtf.obj
 0001:0004d6d0       ?RowSizeInBytes@CVTFTexture@@UBEHH@Z 0044e6d0 f   vtf:vtf.obj
 0001:0004d700       ?FaceSizeInBytes@CVTFTexture@@UBEHH@Z 0044e700 f   vtf:vtf.obj
 0001:0004d740       ?ImageData@CVTFTexture@@UAEPAEHHHHHH@Z 0044e740 f   vtf:vtf.obj
 0001:0004d7b0       ?ComputeMipSize@CVTFTexture@@UBEHH@Z 0044e7b0 f   vtf:vtf.obj
 0001:0004d800       ?ComputeFaceSize@CVTFTexture@@ABEHHW4ImageFormat@@@Z 0044e800 f i vtf:vtf.obj
 0001:0004d890       ?ComputeFaceSize@CVTFTexture@@UBEHH@Z 0044e890 f   vtf:vtf.obj
 0001:0004d8b0       ?ComputeTotalSize@CVTFTexture@@UBEHXZ 0044e8b0 f   vtf:vtf.obj
 0001:0004d8d0       ?GetImageOffset@CVTFTexture@@ABEHHHHW4ImageFormat@@@Z 0044e8d0 f   vtf:vtf.obj
 0001:0004d950       ?ComputeMipLevelDimensions@CVTFTexture@@UBEXHPAH00@Z 0044e950 f   vtf:vtf.obj
 0001:0004d9a0       ?ComputeMipLevelSubRect@CVTFTexture@@UBEXPAURect_t@@H0@Z 0044e9a0 f   vtf:vtf.obj
 0001:0004da60       ?ConvertImageFormat@CVTFTexture@@UAEXW4ImageFormat@@_N@Z 0044ea60 f   vtf:vtf.obj
 0001:0004e1c0       ?ComputeHemispheremapFrame@CVTFTexture@@AAEXPAPAEPAEW4LookDir_t@@@Z 0044f1c0 f   vtf:vtf.obj
 0001:0004e390       ?GenerateHemisphereMap@CVTFTexture@@UAEXPAEHHW4LookDir_t@@H@Z 0044f390 f   vtf:vtf.obj
 0001:0004e490       ?FixCubemapFaceOrientation@CVTFTexture@@UAEXXZ 0044f490 f   vtf:vtf.obj
 0001:0004e560       ?NormalizeTopMipLevel@CVTFTexture@@UAEXXZ 0044f560 f   vtf:vtf.obj
 0001:0004e5f0       ?PutOneOverMipLevelInAlpha@CVTFTexture@@UAEXXZ 0044f5f0 f   vtf:vtf.obj
 0001:0004e6e0       ?ComputeReflectivity@CVTFTexture@@UAEXXZ 0044f6e0 f   vtf:vtf.obj
 0001:0004e830       ?ComputeAlphaFlags@CVTFTexture@@UAEXXZ 0044f830 f   vtf:vtf.obj
 0001:0004e980       ?PostProcess@CVTFTexture@@UAEX_NW4LookDir_t@@0@Z 0044f980 f   vtf:vtf.obj
 0001:0004ea10       ?SetPostProcessingSettings@CVTFTexture@@UAEXPBUVtfProcessingOptions@@@Z 0044fa10 f   vtf:vtf.obj
 0001:0004ea60       ?SetupFaceVert@CVTFTexture@@AAEXHHAAVCEdgePos@@@Z 0044fa60 f   vtf:vtf.obj
 0001:0004eac0       ?SetupTextureEdgeIncrements@CVTFTexture@@AAEXHHH_NPAVCEdgeIncrements@@@Z 0044fac0 f   vtf:vtf.obj
 0001:0004ebe0       ?BlendTexels@@YAXPAPAEH@Z  0044fbe0 f   vtf:vtf.obj
 0001:0004ec90       ?BlendCubeMapFaceCorners@CVTFTexture@@AAEXHHPBVCCornerMatch@@@Z 0044fc90 f   vtf:vtf.obj
 0001:0004ee70       ?BuildCubeMapMatchLists@CVTFTexture@@AAEXQAVCEdgeMatch@@QAVCCornerMatch@@_N@Z 0044fe70 f   vtf:vtf.obj
 0001:0004f0f0       ?Grow@?$CUtlMemory@VS3RGBA@@H@@QAEXH@Z 004500f0 f i vtf:vtf.obj
 0001:0004f1a0       ??9CEdgePos@@QAE_NABV0@@Z  004501a0 f i vtf:vtf.obj
 0001:0004f1e0       ?ImageData@CVTFTexture@@UAEPAEHHH@Z 004501e0 f   vtf:vtf.obj
 0001:0004f210       ?ComputeSpheremapFrame@CVTFTexture@@AAEXPAPAEPAEW4LookDir_t@@@Z 00450210 f   vtf:vtf.obj
 0001:0004f3e0       ?GenerateSpheremap@CVTFTexture@@UAEXW4LookDir_t@@@Z 004503e0 f   vtf:vtf.obj
 0001:0004f4c0       ?GenerateMipmaps@CVTFTexture@@UAEXXZ 004504c0 f   vtf:vtf.obj
 0001:0004f910       ?BlendCubeMapFaceEdges@CVTFTexture@@AAEXHHPBVCEdgeMatch@@@Z 00450910 f   vtf:vtf.obj
 0001:0004fae0       ?Grow@?$CUtlMemory@UResourceEntryInfo@@H@@QAEXH@Z 00450ae0 f i vtf:vtf.obj
 0001:0004fb90       ?Grow@?$CUtlMemory@UResourceMemorySection@CVTFTexture@@H@@QAEXH@Z 00450b90 f i vtf:vtf.obj
 0001:0004fc30       ?ReleaseResources@CVTFTexture@@AAEXXZ 00450c30 f   vtf:vtf.obj
 0001:0004fcb0       ?GetResourceTypes@CVTFTexture@@UBEIPAIH@Z 00450cb0 f   vtf:vtf.obj
 0001:0004fd00       ?LoadData@ResourceMemorySection@CVTFTexture@@QAE_NAAVCUtlBuffer@@AAVCByteswap@@@Z 00450d00 f   vtf:vtf.obj
 0001:0004fda0       ?ReadHeader@CVTFTexture@@AAE_NAAVCUtlBuffer@@AAUVTFFileHeader_t@@@Z 00450da0 f   vtf:vtf.obj
 0001:0004fe80       ?LoadNewResources@CVTFTexture@@AAE_NAAVCUtlBuffer@@@Z 00450e80 f   vtf:vtf.obj
 0001:0004ff00       ?FindResourceEntryInfo@CVTFTexture@@ABEPBUResourceEntryInfo@@I@Z 00450f00 f   vtf:vtf.obj
 0001:0004ff70       ?BlendCubeMapEdgePalettes@CVTFTexture@@AAEXHHPBVCEdgeMatch@@@Z 00450f70 f   vtf:vtf.obj
 0001:00050190       ?BlendCubeMapCornerPalettes@CVTFTexture@@AAEXHHPBVCCornerMatch@@@Z 00451190 f   vtf:vtf.obj
 0001:000502f0       ?MatchCubeMapS3TCPalettes@CVTFTexture@@AAEXQAVCEdgeMatch@@QAVCCornerMatch@@@Z 004512f0 f   vtf:vtf.obj
 0001:00050370       ?EnsureCapacity@?$CUtlVector@UResourceMemorySection@CVTFTexture@@V?$CUtlMemory@UResourceMemorySection@CVTFTexture@@H@@@@QAEXH@Z 00451370 f i vtf:vtf.obj
 0001:000503d0       ?InsertMultipleBefore@?$CUtlVector@UResourceEntryInfo@@V?$CUtlMemory@UResourceEntryInfo@@H@@@@QAEHHHPBUResourceEntryInfo@@@Z 004513d0 f i vtf:vtf.obj
 0001:00050470       ?InsertMultipleBefore@?$CUtlVector@UResourceMemorySection@CVTFTexture@@V?$CUtlMemory@UResourceMemorySection@CVTFTexture@@H@@@@QAEHHHPBUResourceMemorySection@CVTFTexture@@@Z 00451470 f i vtf:vtf.obj
 0001:00050550       ?InsertMultipleBefore@?$CUtlVector@VS3RGBA@@V?$CUtlMemory@VS3RGBA@@H@@@@QAEHHHPBVS3RGBA@@@Z 00451550 f i vtf:vtf.obj
 0001:000505f0       ?LowResFileInfo@CVTFTexture@@UBEXPAH0@Z 004515f0 f   vtf:vtf.obj
 0001:00050650       ?ImageFileInfo@CVTFTexture@@UBEXHHHPAH0@Z 00451650 f   vtf:vtf.obj
 0001:00050750       ?FileSize@CVTFTexture@@UBEHH@Z 00451750 f   vtf:vtf.obj
 0001:00050790       ?GetResourceData@CVTFTexture@@UBEPAXIPAI@Z 00451790 f   vtf:vtf.obj
 0001:00050800       ?HasResourceEntry@CVTFTexture@@UBE_NI@Z 00451800 f   vtf:vtf.obj
 0001:00050820       ?ConstructLowResImage@CVTFTexture@@UAE_NXZ 00451820 f   vtf:vtf.obj
 0001:00050960       ?InsertBefore@?$CUtlVector@UResourceMemorySection@CVTFTexture@@V?$CUtlMemory@UResourceMemorySection@CVTFTexture@@H@@@@QAEHHABUResourceMemorySection@CVTFTexture@@@Z 00451960 f i vtf:vtf.obj
 0001:000509e0       ?InsertBefore@?$CUtlVector@UResourceMemorySection@CVTFTexture@@V?$CUtlMemory@UResourceMemorySection@CVTFTexture@@H@@@@QAEHH@Z 004519e0 f i vtf:vtf.obj
 0001:00050a50       ??0CVTFTexture@@QAE@XZ     00451a50 f   vtf:vtf.obj
 0001:00050b50       ??1CVTFTexture@@UAE@XZ     00451b50 f   vtf:vtf.obj
 0001:00050bb0       ?FindOrCreateResourceEntryInfo@CVTFTexture@@AAEPAUResourceEntryInfo@@I@Z 00451bb0 f   vtf:vtf.obj
 0001:00050ce0       ?Serialize@CVTFTexture@@UAE_NAAVCUtlBuffer@@@Z 00451ce0 f   vtf:vtf.obj
 0001:00050f10       ??$DataMapInit@UVTFFileBaseHeader_t@@@@YAPAUdatamap_t@@PAUVTFFileBaseHeader_t@@@Z 00451f10 f   vtf:vtf.obj
 0001:00050f90       ??$DataMapInit@UVTFFileHeaderV7_1_t@@@@YAPAUdatamap_t@@PAUVTFFileHeaderV7_1_t@@@Z 00451f90 f   vtf:vtf.obj
 0001:00051020       ??$DataMapInit@UVTFFileHeaderV7_2_t@@@@YAPAUdatamap_t@@PAUVTFFileHeaderV7_2_t@@@Z 00452020 f   vtf:vtf.obj
 0001:000510b0       ??$DataMapInit@UVTFFileHeaderV7_3_t@@@@YAPAUdatamap_t@@PAUVTFFileHeaderV7_3_t@@@Z 004520b0 f   vtf:vtf.obj
 0001:00051140       ??$DataMapInit@UVTFFileHeader_t@@@@YAPAUdatamap_t@@PAUVTFFileHeader_t@@@Z 00452140 f   vtf:vtf.obj
 0001:000511d0       ??$DataMapInit@UVTFFileHeaderX360_t@@@@YAPAUdatamap_t@@PAUVTFFileHeaderX360_t@@@Z 004521d0 f   vtf:vtf.obj
 0001:00051260       ?CreateVTFTexture@@YAPAVIVTFTexture@@XZ 00452260 f   vtf:vtf.obj
 0001:00051280       ??_GCVTFTexture@@UAEPAXI@Z 00452280 f i vtf:vtf.obj
 0001:00051280       ??_ECVTFTexture@@UAEPAXI@Z 00452280 f i vtf:vtf.obj
 0001:000512a0       ?Unserialize@CVTFTexture@@UAE_NAAVCUtlBuffer@@_NH@Z 004522a0 f   vtf:vtf.obj
 0001:00051580       ?RemoveResourceEntryInfo@CVTFTexture@@AAE_NI@Z 00452580 f   vtf:vtf.obj
 0001:00051670       ?Init@CVTFTexture@@UAE_NHHHW4ImageFormat@@HHH@Z 00452670 f   vtf:vtf.obj
 0001:000517c0       ?InitLowResImage@CVTFTexture@@UAEXHHW4ImageFormat@@@Z 004527c0 f   vtf:vtf.obj
 0001:00051830       ?SetResourceData@CVTFTexture@@UAEPAXIPBXI@Z 00452830 f   vtf:vtf.obj
 0001:000518d0       ?MatchCubeMapBorders@CVTFTexture@@UAEXHW4ImageFormat@@_N@Z 004528d0 f   vtf:vtf.obj
 0001:00051a60       ?WriteBitInt@@YAXPADHHH@Z  00452a60 f   vtf:s3tc_decode.obj
 0001:00051ab0       ?S3TC_GetPixelPaletteIndex@@YA?AVS3PaletteIndex@@W4ImageFormat@@PBDHH@Z 00452ab0 f   vtf:s3tc_decode.obj
 0001:00051b10       ?S3TC_SetPixelPaletteIndex@@YAXW4ImageFormat@@PADHHVS3PaletteIndex@@@Z 00452b10 f   vtf:s3tc_decode.obj
 0001:00051b80       ?S3TC_GetBlock@@YAPADPAXW4ImageFormat@@HHH@Z 00452b80 f   vtf:s3tc_decode.obj
 0001:00051bb0       ?S3TC_MergeBlocks@@YAXPAPADPAPAVS3RGBA@@HHW4ImageFormat@@@Z 00452bb0 f   vtf:s3tc_decode.obj
 0001:00051ef0       ?S3TC_GetPaletteIndex@@YA?AVS3PaletteIndex@@PAEW4ImageFormat@@HHH@Z 00452ef0 f   vtf:s3tc_decode.obj
 0001:00051f50       ?S3TC_SetPaletteIndex@@YAXPAEW4ImageFormat@@HHHVS3PaletteIndex@@@Z 00452f50 f   vtf:s3tc_decode.obj
 0001:00051fa9       __cfltcvt_init             00452fa9 f   LIBCMT:_fpinit_.obj
 0001:00052009       __fpmath                   00453009 f   LIBCMT:_fpinit_.obj
 0001:00052030       _memmove                   00453030 f   LIBCMT:memmove.obj
 0001:000523a0       _memset                    004533a0 f   LIBCMT:memset.obj
 0001:00052420       _memcpy                    00453420 f   LIBCMT:memcpy.obj
 0001:00052790       __ftol2_sse                00453790 f   LIBCMT:ftol2.obj
 0001:00052799       __ftol2_pentium4           00453799 f   LIBCMT:ftol2.obj
 0001:000527ac       __ftol2_sse_excpt          004537ac f   LIBCMT:ftol2.obj
 0001:000527c6       __ftol2                    004537c6 f   LIBCMT:ftol2.obj
 0001:0005283b       __fclose_nolock            0045383b f   LIBCMT:fclose.obj
 0001:000528a8       _fclose                    004538a8 f   LIBCMT:fclose.obj
 0001:0005291c       _fprintf                   0045391c f   LIBCMT:fprintf.obj
 0001:00052a28       __fsopen                   00453a28 f   LIBCMT:fopen.obj
 0001:00052ae4       _fopen                     00453ae4 f   LIBCMT:fopen.obj
 0001:00052afb       _sprintf                   00453afb f   LIBCMT:sprintf.obj
 0001:00052bed       _sscanf                    00453bed f   LIBCMT:sscanf.obj
 0001:00052c0f       _strtok                    00453c0f f   LIBCMT:strtok.obj
 0001:00052cd0       __alloca_probe_16          00453cd0 f   LIBCMT:alloca16.obj
 0001:00052ce6       __alloca_probe_8           00453ce6     LIBCMT:alloca16.obj
 0001:00052db2       ___onexitinit              00453db2 f   LIBCMT:onexit.obj
 0001:00052de3       __onexit                   00453de3 f   LIBCMT:onexit.obj
 0001:00052e1f       _atexit                    00453e1f f   LIBCMT:onexit.obj
 0001:00052e36       _srand                     00453e36 f   LIBCMT:rand.obj
 0001:00052e48       _rand                      00453e48 f   LIBCMT:rand.obj
 0001:00052f00       _qsort                     00453f00 f   LIBCMT:qsort.obj
 0001:00053190       _strncpy                   00454190 f   LIBCMT:strncpy.obj
 0001:000532b4       ??1type_info@@UAE@XZ       004542b4 f   LIBCMT:typinfo.obj
 0001:000532c4       ??_Gtype_info@@UAEPAXI@Z   004542c4 f i LIBCMT:typinfo.obj
 0001:000532c4       ??_Etype_info@@UAEPAXI@Z   004542c4 f i LIBCMT:typinfo.obj
 0001:000532e5       ??8type_info@@QBE_NABV0@@Z 004542e5 f   LIBCMT:typinfo.obj
 0001:00053305       __purecall                 00454305 f   LIBCMT:purevirt.obj
 0001:00053330       __chkstk                   00454330 f   LIBCMT:chkstk.obj
 0001:00053330       __alloca_probe             00454330     LIBCMT:chkstk.obj
 0001:0005335b       ??0_LocaleUpdate@@QAE@PAUlocaleinfo_struct@@@Z 0045435b f i LIBCMT:atof.obj
 0001:000533e2       __atof_l                   004543e2 f   LIBCMT:atof.obj
 0001:0005348d       _atof                      0045448d f   LIBCMT:atof.obj
 0001:000534a0       __fwrite_nolock            004544a0 f   LIBCMT:fwrite.obj
 0001:000535f7       _fwrite                    004545f7 f   LIBCMT:fwrite.obj
 0001:00053680       _floor                     00454680 f   LIBCMT:_floor_pentium4_.obj
 0001:000536c0       __floor_pentium4           004546c0 f   LIBCMT:_floor_pentium4_.obj
 0001:000537a1       _printf                    004547a1 f   LIBCMT:printf.obj
 0001:00053848       __get_printf_count_output  00454848 f   LIBCMT:printf.obj
 0001:0005385e       _atol                      0045485e f   LIBCMT:atox.obj
 0001:00053874       _atoi                      00454874 f   LIBCMT:atox.obj
 0001:00053880       _strrchr                   00454880 f   LIBCMT:strrchr.obj
 0001:000538ad       __vsnprintf_l              004548ad f   LIBCMT:vsnprint.obj
 0001:00053959       __vsnprintf                00454959 f   LIBCMT:vsnprint.obj
 0001:00053976       ?what@exception@std@@UBEPBDXZ 00454976 f   LIBCMT:stdexcpt.obj
 0001:00053983       ?_Copy_str@exception@std@@AAEXPBD@Z 00454983 f   LIBCMT:stdexcpt.obj
 0001:000539c3       ?_Tidy@exception@std@@AAEXXZ 004549c3 f   LIBCMT:stdexcpt.obj
 0001:000539e1       ??0exception@std@@QAE@ABQBD@Z 004549e1 f   LIBCMT:stdexcpt.obj
 0001:00053a08       ??4exception@std@@QAEAAV01@ABV01@@Z 00454a08 f   LIBCMT:stdexcpt.obj
 0001:00053a3d       ??1exception@std@@UAE@XZ   00454a3d f   LIBCMT:stdexcpt.obj
 0001:00053a3d       ??1bad_cast@std@@UAE@XZ    00454a3d f   LIBCMT:stdexcpt.obj
 0001:00053a48       ??0bad_cast@std@@QAE@PBD@Z 00454a48 f   LIBCMT:stdexcpt.obj
 0001:00053a66       ??_Gexception@std@@UAEPAXI@Z 00454a66 f i LIBCMT:stdexcpt.obj
 0001:00053a66       ??_Gbad_cast@std@@UAEPAXI@Z 00454a66 f i LIBCMT:stdexcpt.obj
 0001:00053a66       ??_Ebad_cast@std@@UAEPAXI@Z 00454a66 f i LIBCMT:stdexcpt.obj
 0001:00053a66       ??_Eexception@std@@UAEPAXI@Z 00454a66 f i LIBCMT:stdexcpt.obj
 0001:00053a8d       ??0exception@std@@QAE@ABV01@@Z 00454a8d f   LIBCMT:stdexcpt.obj
 0001:00053ab2       ??0bad_cast@std@@QAE@ABV01@@Z 00454ab2 f   LIBCMT:stdexcpt.obj
 0001:00053acf       __CxxThrowException@8      00454acf f   LIBCMT:throw.obj
 0001:00053b1b       ?_JumpToContinuation@@YGXPAXPAUEHRegistrationNode@@@Z 00454b1b f   LIBCMT:_trnsctrl_.obj
 0001:00053b4d       ?_CallMemberFunction0@@YGXPAX0@Z 00454b4d f   LIBCMT:_trnsctrl_.obj
 0001:00053b4d       ?_CallMemberFunction1@@YGXPAX00@Z 00454b4d f   LIBCMT:_trnsctrl_.obj
 0001:00053b4d       ?_CallMemberFunction2@@YGXPAX00H@Z 00454b4d f   LIBCMT:_trnsctrl_.obj
 0001:00053b54       ?_UnwindNestedFrames@@YGXPAUEHRegistrationNode@@PAUEHExceptionRecord@@@Z 00454b54 f   LIBCMT:_trnsctrl_.obj
 0001:00053ba8       ___CxxFrameHandler3        00454ba8 f   LIBCMT:_trnsctrl_.obj
 0001:00053c11       ?_CallSETranslator@@YAHPAUEHExceptionRecord@@PAUEHRegistrationNode@@PAX2PBU_s_FuncInfo@@H1@Z 00454c11 f   LIBCMT:_trnsctrl_.obj
 0001:00053d87       ?_GetRangeOfTrysToCheck@@YAPBU_s_TryBlockMapEntry@@PBU_s_FuncInfo@@HHPAI1@Z 00454d87 f   LIBCMT:_trnsctrl_.obj
 0001:00053dfa       __CreateFrameInfo          00454dfa f   LIBCMT:_trnsctrl_.obj
 0001:00053e26       __IsExceptionObjectToBeDestroyed 00454e26 f   LIBCMT:_trnsctrl_.obj
 0001:00053e4d       __FindAndUnlinkFrame       00454e4d f   LIBCMT:_trnsctrl_.obj
 0001:00053e9f       ?_CallCatchBlock2@@YAPAXPAUEHRegistrationNode@@PBU_s_FuncInfo@@PAXHK@Z 00454e9f f   LIBCMT:_trnsctrl_.obj
 0001:00053f00       _fmod                      00454f00 f   LIBCMT:_87fmod_.obj
 0001:00053f0a       __CIfmod                   00454f0a f   LIBCMT:_87fmod_.obj
 0001:00053f40       _strchr                    00454f40 f   LIBCMT:strchr.obj
 0001:00053f46       ___from_strstr_to_strchr   00454f46     LIBCMT:strchr.obj
 0001:00053ffe       _strncmp                   00454ffe f   LIBCMT:strncmp.obj
 0001:000540be       __freea                    004550be f i LIBCMT:strlwr.obj
 0001:000540de       ?_strlwr_s_l_stat@@YAHPADIPAUlocaleinfo_struct@@@Z 004550de f   LIBCMT:strlwr.obj
 0001:0005425c       __strlwr_s_l               0045525c f   LIBCMT:strlwr.obj
 0001:00054290       __strlwr                   00455290 f   LIBCMT:strlwr.obj
 0001:00054290       _strlwr                    00455290 f   LIBCMT:strlwr.obj
 0001:000542ed       ___crtCorExitProcess       004552ed f   LIBCMT:crt0dat.obj
 0001:00054318       ___crtExitProcess          00455318 f   LIBCMT:crt0dat.obj
 0001:00054330       __lockexit                 00455330 f   LIBCMT:crt0dat.obj
 0001:00054339       __unlockexit               00455339 f   LIBCMT:crt0dat.obj
 0001:00054342       __init_pointers            00455342 f   LIBCMT:crt0dat.obj
 0001:00054375       __initterm_e               00455375 f   LIBCMT:crt0dat.obj
 0001:00054399       __cinit                    00455399 f   LIBCMT:crt0dat.obj
 0001:00054570       _exit                      00455570 f   LIBCMT:crt0dat.obj
 0001:00054586       __exit                     00455586 f   LIBCMT:crt0dat.obj
 0001:0005459c       __cexit                    0045559c f   LIBCMT:crt0dat.obj
 0001:000545ab       __c_exit                   004555ab f   LIBCMT:crt0dat.obj
 0001:000545ba       __amsg_exit                004555ba f   LIBCMT:crt0dat.obj
 0001:000545d8       _remove                    004555d8 f   LIBCMT:unlink.obj
 0001:00054608       __unlink                   00455608 f   LIBCMT:unlink.obj
 0001:00054613       __snprintf                 00455613 f   LIBCMT:snprintf.obj
 0001:00054801       __tmpnam_helper            00455801 f   LIBCMT:tmpfile.obj
 0001:0005493d       _tmpnam                    0045593d f   LIBCMT:tmpfile.obj
 0001:00054964       __ftell_nolock             00455964 f   LIBCMT:ftell.obj
 0001:00054af8       _ftell                     00455af8 f   LIBCMT:ftell.obj
 0001:00054b5d       __fread_nolock_s           00455b5d f   LIBCMT:fread.obj
 0001:00054d19       _fread_s                   00455d19 f   LIBCMT:fread.obj
 0001:00054da7       _fread                     00455da7 f   LIBCMT:fread.obj
 0001:00054dc4       __fseek_nolock             00455dc4 f   LIBCMT:fseek.obj
 0001:00054e4e       _fseek                     00455e4e f   LIBCMT:fseek.obj
 0001:00054ed0       _ceil                      00455ed0 f   LIBCMT:_ceil_pentium4_.obj
 0001:00054f10       __ceil_pentium4            00455f10 f   LIBCMT:_ceil_pentium4_.obj
 0001:00054fed       ___iob_func                00455fed f   LIBCMT:_file.obj
 0001:00054ff3       ___initstdio               00455ff3 f   LIBCMT:_file.obj
 0001:000550a4       ___endstdio                004560a4 f   LIBCMT:_file.obj
 0001:000550c4       __lock_file                004560c4 f   LIBCMT:_file.obj
 0001:00055105       __lock_file2               00456105 f   LIBCMT:_file.obj
 0001:00055137       __unlock_file              00456137 f   LIBCMT:_file.obj
 0001:00055173       __unlock_file2             00456173 f   LIBCMT:_file.obj
 0001:000551a2       __get_sys_err_msg          004561a2 f i LIBCMT:strerror.obj
 0001:000551ca       _strerror                  004561ca f   LIBCMT:strerror.obj
 0001:00055234       __get_errno_from_oserr     00456234 f   LIBCMT:dosmap.obj
 0001:00055276       __errno                    00456276 f   LIBCMT:dosmap.obj
 0001:00055289       ___doserrno                00456289 f   LIBCMT:dosmap.obj
 0001:0005529c       __dosmaperr                0045629c f   LIBCMT:dosmap.obj
 0001:000552bf       _fgetc                     004562bf f   LIBCMT:fgetc.obj
 0001:000553b3       _fputc                     004563b3 f   LIBCMT:fputc.obj
 0001:000554af       __ungetc_nolock            004564af f   LIBCMT:ungetc.obj
 0001:00055592       _ungetc                    00456592 f   LIBCMT:ungetc.obj
 0001:000555fb       __flush                    004565fb f   LIBCMT:fflush.obj
 0001:00055663       __fflush_nolock            00456663 f   LIBCMT:fflush.obj
 0001:00055785       _fflush                    00456785 f   LIBCMT:fflush.obj
 0001:000557d8       __flushall                 004567d8 f   LIBCMT:fflush.obj
 0001:000557e1       _setvbuf                   004567e1 f   LIBCMT:setvbuf.obj
 0001:000558d7       _memcpy_s                  004568d7 f   LIBCMT:memcpy_s.obj
 0001:0005594c       _fgetpos                   0045694c f   LIBCMT:fgetpos.obj
 0001:000559a7       __fseeki64_nolock          004569a7 f   LIBCMT:fseeki64.obj
 0001:00055a43       __fseeki64                 00456a43 f   LIBCMT:fseeki64.obj
 0001:00055ac2       _fsetpos                   00456ac2 f   LIBCMT:fsetpos.obj
 0001:00055b00       _strstr                    00456b00 f   LIBCMT:strstr.obj
 0001:00055b86       __initp_heap_handler       00456b86 f   LIBCMT:handler.obj
 0001:00055b95       __validdrive               00456b95 f   LIBCMT:getcwd.obj
 0001:00055bef       __getdcwd_nolock           00456bef f   LIBCMT:getcwd.obj
 0001:00055d13       __getcwd                   00456d13 f   LIBCMT:getcwd.obj
 0001:00055d5c       _mkdir                     00456d5c f   LIBCMT:mkdir.obj
 0001:00055d5c       __mkdir                    00456d5c f   LIBCMT:mkdir.obj
 0001:00055d8e       __findclose                00456d8e f   LIBCMT:findfile.obj
 0001:00055db4       ___time64_t_from_ft        00456db4 f   LIBCMT:findfi32.obj
 0001:00055e30       __findfirst64i32           00456e30 f   LIBCMT:findfi32.obj
 0001:00055f57       __findnext64i32            00456f57 f   LIBCMT:findfi32.obj
 0001:00056282       __putenv                   00457282 f   LIBCMT:putenv.obj
 0001:000562c7       __access_s                 004572c7 f   LIBCMT:access.obj
 0001:00056346       __access                   00457346 f   LIBCMT:access.obj
 0001:0005635e       __getenv_helper_nolock     0045735e f   LIBCMT:getenv.obj
 0001:000563e5       _getenv                    004573e5 f   LIBCMT:getenv.obj
 0001:0005645f       __dupenv_s                 0045745f f   LIBCMT:getenv.obj
 0001:00056536       __spawnv                   00457536 f   LIBCMT:spawnv.obj
 0001:00056580       __chdir                    00457580 f   LIBCMT:chdir.obj
 0001:000566a9       __tempnam                  004576a9 f   LIBCMT:tempnam.obj
 0001:00056914       __isalpha_l                00457914 f i LIBCMT:_ctype.obj
 0001:0005696a       _isalpha                   0045796a f i LIBCMT:_ctype.obj
 0001:0005699a       __isupper_l                0045799a f i LIBCMT:_ctype.obj
 0001:000569eb       _isupper                   004579eb f i LIBCMT:_ctype.obj
 0001:00056a19       __islower_l                00457a19 f i LIBCMT:_ctype.obj
 0001:00056a6a       _islower                   00457a6a f i LIBCMT:_ctype.obj
 0001:00056a98       __isdigit_l                00457a98 f i LIBCMT:_ctype.obj
 0001:00056ae9       _isdigit                   00457ae9 f i LIBCMT:_ctype.obj
 0001:00056b17       __isxdigit_l               00457b17 f i LIBCMT:_ctype.obj
 0001:00056b6d       _isxdigit                  00457b6d f i LIBCMT:_ctype.obj
 0001:00056b9d       __isspace_l                00457b9d f i LIBCMT:_ctype.obj
 0001:00056bee       _isspace                   00457bee f i LIBCMT:_ctype.obj
 0001:00056da6       _mainCRTStartup            00457da6 f   LIBCMT:crt0.obj
 0001:00056db0       _acos                      00457db0 f   LIBCMT:_acos_.obj
 0001:00056df0       __CIacos                   00457df0 f   LIBCMT:_acos_.obj
 0001:00056e2b       __CIacos_default           00457e2b f   LIBCMT:_acos_.obj
 0001:00056e3f       __acos_default             00457e3f     LIBCMT:_acos_.obj
 0001:00056f00       _asin                      00457f00 f   LIBCMT:_asin_.obj
 0001:00056f40       __CIasin                   00457f40 f   LIBCMT:_asin_.obj
 0001:00056f7b       __CIasin_default           00457f7b f   LIBCMT:_asin_.obj
 0001:00056f8f       __asin_default             00457f8f     LIBCMT:_asin_.obj
 0001:00057050       _pow                       00458050 f   LIBCMT:_pow_.obj
 0001:00057090       __CIpow                    00458090 f   LIBCMT:_pow_.obj
 0001:000570cb       __CIpow_default            004580cb f   LIBCMT:_pow_.obj
 0001:000570e4       __pow_default              004580e4     LIBCMT:_pow_.obj
 0001:000572da       __tolower_l                004582da f   LIBCMT:tolower.obj
 0001:000573ef       _tolower                   004583ef f   LIBCMT:tolower.obj
 0001:00057420       _strncat                   00458420 f   LIBCMT:strncat.obj
 0001:00057560       __allmul                   00458560 f   LIBCMT:llmul.obj
 0001:000575a0       __allrem                   004585a0 f   LIBCMT:llrem.obj
 0001:00057660       __alldiv                   00458660 f   LIBCMT:lldiv.obj
 0001:0005770a       __strtod_l                 0045870a f   LIBCMT:strtod.obj
 0001:0005782d       _strtod                    0045882d f   LIBCMT:strtod.obj
 0001:00057a6f       _strtol                    00458a6f f   LIBCMT:strtol.obj
 0001:00057a9a       _strtoul                   00458a9a f   LIBCMT:strtol.obj
 0001:00057ac6       __wtol                     00458ac6 f   LIBCMT:wtox.obj
 0001:00057adc       __wtoi                     00458adc f   LIBCMT:wtox.obj
 0001:00057ae7       __wtof_l                   00458ae7 f   LIBCMT:wtof.obj
 0001:00057b6f       __wtof                     00458b6f f   LIBCMT:wtof.obj
 0001:00057b90       __allshr                   00458b90 f   LIBCMT:llshr.obj
 0001:00057bb1       __forcdecpt_l              00458bb1 f   LIBCMT:cvt.obj
 0001:00057c25       __cropzeros_l              00458c25 f   LIBCMT:cvt.obj
 0001:00057ca7       __positive                 00458ca7 f   LIBCMT:cvt.obj
 0001:00057cc3       __fassign_l                00458cc3 f   LIBCMT:cvt.obj
 0001:00057d05       __fassign                  00458d05 f   LIBCMT:cvt.obj
 0001:00057d3e       __forcdecpt                00458d3e f   LIBCMT:cvt.obj
 0001:00057d51       __cropzeros                00458d51 f   LIBCMT:cvt.obj
 0001:00057ec5       __cftoe_l                  00458ec5 f   LIBCMT:cvt.obj
 0001:00057f8c       __cftoe                    00458f8c f   LIBCMT:cvt.obj
 0001:00057fac       __cftoa_l                  00458fac f   LIBCMT:cvt.obj
 0001:00058425       __cftof_l                  00459425 f   LIBCMT:cvt.obj
 0001:000584e6       __cftog_l                  004594e6 f   LIBCMT:cvt.obj
 0001:000585d3       __cfltcvt_l                004595d3 f   LIBCMT:cvt.obj
 0001:0005865b       __cfltcvt                  0045965b f   LIBCMT:cvt.obj
 0001:0005867e       __initp_misc_cfltcvt_tab   0045967e f   LIBCMT:cmiscdat.obj
 0001:000586a1       __setdefaultprecision      004596a1 f   LIBCMT:fp8.obj
 0001:000586c9       __VEC_memcpy               004596c9 f   LIBCMT:p4_memcpy.obj
 0001:000587cc       ___sse2_available_init     004597cc f   LIBCMT:cpu_disp.obj
 0001:000587dc       __VEC_memzero              004597dc f   LIBCMT:p4_memset.obj
 0001:00058896       __close_nolock             00459896 f   LIBCMT:close.obj
 0001:00058932       __close                    00459932 f   LIBCMT:close.obj
 0001:000589f6       __fileno                   004599f6 f   LIBCMT:fileno.obj
 0001:00058a1c       __freebuf                  00459a1c f   LIBCMT:_freebuf.obj
 0001:00058a4d       __initp_misc_invarg        00459a4d f   LIBCMT:invarg.obj
 0001:00058a5c       __call_reportfault         00459a5c f   LIBCMT:invarg.obj
 0001:00058b85       __invoke_watson            00459b85 f   LIBCMT:invarg.obj
 0001:00058baa       __invalid_parameter        00459baa f   LIBCMT:invarg.obj
 0001:00058bd7       __invalid_parameter_noinfo 00459bd7 f   LIBCMT:invarg.obj
 0001:00058bf0       __SEH_prolog4              00459bf0 f   LIBCMT:sehprolg4.obj
 0001:00058c35       __SEH_epilog4              00459c35 f   LIBCMT:sehprolg4.obj
 0001:00058c50       __except_handler4          00459c50 f   LIBCMT:chandler4.obj
 0001:00058ddf       __stbuf                    00459ddf f   LIBCMT:_sftbuf.obj
 0001:00058e7b       __ftbuf                    00459e7b f   LIBCMT:_sftbuf.obj
 0001:00058f56       __output_l                 00459f56 f   LIBCMT:output.obj
 0001:00059b02       __ioinit                   0045ab02 f   LIBCMT:ioinit.obj
 0001:00059d47       __openfile                 0045ad47 f   LIBCMT:_open.obj
 0001:00059fde       __getstream                0045afde f   LIBCMT:stream.obj
 0001:0005a120       __local_unwind4            0045b120 f   LIBCMT:exsup4.obj
 0001:0005a1f6       __seh_longjmp_unwind4@4    0045b1f6 f   LIBCMT:exsup4.obj
 0001:0005a212       @_EH4_CallFilterFunc@8     0045b212 f   LIBCMT:exsup4.obj
 0001:0005a229       @_EH4_TransferToHandler@8  0045b229 f   LIBCMT:exsup4.obj
 0001:0005a242       @_EH4_GlobalUnwind2@8      0045b242 f   LIBCMT:exsup4.obj
 0001:0005a25b       @_EH4_LocalUnwind@16       0045b25b f   LIBCMT:exsup4.obj
 0001:0005a272       __flsbuf                   0045b272 f   LIBCMT:_flsbuf.obj
 0001:0005a3e0       _strlen                    0045b3e0 f   LIBCMT:strlen.obj
 0001:0005a522       __input_l                  0045b522 f   LIBCMT:input.obj
 0001:0005b526       __encoded_null             0045c526 f   LIBCMT:tidtable.obj
 0001:0005b52f       ___crtTlsAlloc@4           0045c52f f   LIBCMT:tidtable.obj
 0001:0005b538       ___set_flsgetvalue         0045c538 f   LIBCMT:tidtable.obj
 0001:0005b56c       __mtterm                   0045c56c f   LIBCMT:tidtable.obj
 0001:0005b5a9       __initptd                  0045c5a9 f   LIBCMT:tidtable.obj
 0001:0005b65d       __getptd_noexit            0045c65d f   LIBCMT:tidtable.obj
 0001:0005b6d6       __getptd                   0045c6d6 f   LIBCMT:tidtable.obj
 0001:0005b6f0       __freefls@4                0045c6f0 f   LIBCMT:tidtable.obj
 0001:0005b81f       __mtinit                   0045c81f f   LIBCMT:tidtable.obj
 0001:0005b99a       @__security_check_cookie@4 0045c99a f   LIBCMT:secchk.obj
 0001:0005b9a9       ?_Type_info_dtor@type_info@@CAXPAV1@@Z 0045c9a9 f   LIBCMT:typname.obj
 0001:0005ba20       _strcmp                    0045ca20 f   LIBCMT:strcmp.obj
 0001:0005baa8       _abort                     0045caa8 f   LIBCMT:abort.obj
 0001:0005badb       __set_abort_behavior       0045cadb f   LIBCMT:abort.obj
 0001:0005bafc       __GET_RTERRMSG             0045cafc f   LIBCMT:crt0msg.obj
 0001:0005bb22       __NMSG_WRITE               0045cb22 f   LIBCMT:crt0msg.obj
 0001:0005bcd1       __FF_MSGBANNER             0045ccd1 f   LIBCMT:crt0msg.obj
 0001:0005bd0a       ___getlocaleinfo           0045cd0a f   LIBCMT:inithelp.obj
 0001:0005beb6       __initp_misc_purevirt      0045ceb6 f   LIBCMT:inithelp.obj
 0001:0005c0e8       ___updatetmbcinfo          0045d0e8 f   LIBCMT:mbctype.obj
 0001:0005c208       __setmbcp_nolock           0045d208 f   LIBCMT:mbctype.obj
 0001:0005c3f1       __setmbcp                  0045d3f1 f   LIBCMT:mbctype.obj
 0001:0005c58b       ___initmbctable            0045d58b f   LIBCMT:mbctype.obj
 0001:0005c5a9       ___addlocaleref            0045d5a9 f   LIBCMT:localref.obj
 0001:0005c638       ___removelocaleref         0045d638 f   LIBCMT:localref.obj
 0001:0005c6d1       ___freetlocinfo            0045d6d1 f   LIBCMT:localref.obj
 0001:0005c81c       __updatetlocinfoEx_nolock  0045d81c f   LIBCMT:localref.obj
 0001:0005c869       ___updatetlocinfo          0045d869 f   LIBCMT:localref.obj
 0001:0005c8e2       __fltin2                   0045d8e2 f   LIBCMT:_cfin_.obj
 0001:0005c989       __isctype_l                0045d989 f   LIBCMT:isctype.obj
 0001:0005ca41       ___strgtold12_l            0045da41 f   LIBCMT:_strgtold_.obj
 0001:0005d11d       __write_nolock             0045e11d f   LIBCMT:write.obj
 0001:0005d81a       __write                    0045e81a f   LIBCMT:write.obj
 0001:0005d8ee       ___libm_error_support      0045e8ee f   LIBCMT:_libm_error_.obj
 0001:0005dbba       __sse2_mathfcns_init       0045ebba f   LIBCMT:_mathfcns_.obj
 0001:0005dbca       __floor_default            0045ebca f   LIBCMT:_floor_.obj
 0001:0005dca2       _strcpy_s                  0045eca2 f   LIBCMT:strcpy_s.obj
 0001:0005dd01       ??1bad_exception@std@@UAE@XZ 0045ed01 f i LIBCMT:frame.obj
 0001:0005dd0c       ??_Gbad_exception@std@@UAEPAXI@Z 0045ed0c f i LIBCMT:frame.obj
 0001:0005dd0c       ??_Ebad_exception@std@@UAEPAXI@Z 0045ed0c f i LIBCMT:frame.obj
 0001:0005dd33       ___TypeMatch               0045ed33 f   LIBCMT:frame.obj
 0001:0005dd92       ___FrameUnwindFilter       0045ed92 f   LIBCMT:frame.obj
 0001:0005dde1       ___FrameUnwindToState      0045ede1 f   LIBCMT:frame.obj
 0001:0005df02       ___DestructExceptionObject 0045ef02 f   LIBCMT:frame.obj
 0001:0005df57       ___AdjustPointer           0045ef57 f   LIBCMT:frame.obj
 0001:0005e1e0       ___BuildCatchObjectHelper  0045f1e0 f   LIBCMT:frame.obj
 0001:0005e35f       ___BuildCatchObject        0045f35f f   LIBCMT:frame.obj
 0001:0005e8db       ??0bad_exception@std@@QAE@ABV01@@Z 0045f8db f i LIBCMT:frame.obj
 0001:0005e8f8       ___InternalCxxFrameHandler 0045f8f8 f   LIBCMT:frame.obj
 0001:0005e9de       ?terminate@@YAXXZ          0045f9de f   LIBCMT:hooks.obj
 0001:0005ea17       ?unexpected@@YAXXZ         0045fa17 f   LIBCMT:hooks.obj
 0001:0005ea2a       ?_inconsistency@@YAXXZ     0045fa2a f   LIBCMT:hooks.obj
 0001:0005ea62       __initp_eh_hooks           0045fa62 f   LIBCMT:hooks.obj
 0001:0005ea80       __CallSettingFrame@12      0045fa80 f   LIBCMT:lowhelpr.obj
 0001:0005eaa7       __NLG_Return               0045faa7     LIBCMT:lowhelpr.obj
 0001:0005ead0       __cintrindisp2             0045fad0 f   LIBCMT:_87cdisp_.obj
 0001:0005eb0e       __cintrindisp1             0045fb0e f   LIBCMT:_87cdisp_.obj
 0001:0005eb4b       __ctrandisp2               0045fb4b f   LIBCMT:_87cdisp_.obj
 0001:0005ecda       __ctrandisp1               0045fcda f   LIBCMT:_87cdisp_.obj
 0001:0005ed0d       __fload                    0045fd0d f   LIBCMT:_87cdisp_.obj
 0001:0005ed50       __trandisp1                0045fd50 f   LIBCMT:_87disp_.obj
 0001:0005edb7       __trandisp2                0045fdb7 f   LIBCMT:_87disp_.obj
 0001:0005ee43       __rttospopde               0045fe43     LIBCMT:_87disp_.obj
 0001:0005ee48       __rttospop                 0045fe48     LIBCMT:_87disp_.obj
 0001:0005ee4a       __rtnospop                 0045fe4a     LIBCMT:_87disp_.obj
 0001:0005ee4c       __rttosnpop                0045fe4c     LIBCMT:_87disp_.obj
 0001:0005ee4d       __rtnospopde               0045fe4d     LIBCMT:_87disp_.obj
 0001:0005ee54       __rtzeropop                0045fe54     LIBCMT:_87disp_.obj
 0001:0005ee56       __rtzeronpop               0045fe56     LIBCMT:_87disp_.obj
 0001:0005ee5b       __rtonepop                 0045fe5b     LIBCMT:_87disp_.obj
 0001:0005ee5d       __rtonenpop                0045fe5d     LIBCMT:_87disp_.obj
 0001:0005ee62       __tosnan1                  0045fe62     LIBCMT:_87disp_.obj
 0001:0005ee8d       __nosnan2                  0045fe8d     LIBCMT:_87disp_.obj
 0001:0005ee8f       __tosnan2                  0045fe8f     LIBCMT:_87disp_.obj
 0001:0005eeb7       __nan2                     0045feb7     LIBCMT:_87disp_.obj
 0001:0005eef6       __rtindfpop                0045fef6     LIBCMT:_87disp_.obj
 0001:0005eef8       __rtindfnpop               0045fef8     LIBCMT:_87disp_.obj
 0001:0005ef09       __rttosnpopde              0045ff09     LIBCMT:_87disp_.obj
 0001:0005ef13       __rtchsifneg               0045ff13     LIBCMT:_87disp_.obj
 0001:0005f101       ___crtLCMapStringA         00460101 f   LIBCMT:a_map.obj
 0001:0005f147       _strnlen                   00460147 f   LIBCMT:strlen_s.obj
 0001:0005f18a       __strcats                  0046018a f   LIBCMT:setlocal.obj
 0001:0005f1cb       ___lc_strtolc              004601cb f   LIBCMT:setlocal.obj
 0001:0005f2ea       ___lc_lctostr              004602ea f   LIBCMT:setlocal.obj
 0001:0005f4ba       __expandlocale             004604ba f   LIBCMT:setlocal.obj
 0001:0005fc31       _setlocale                 00460c31 f   LIBCMT:setlocal.obj
 0001:0005fda5       __mtinitlocks              00460da5 f   LIBCMT:mlock.obj
 0001:0005fdef       __mtdeletelocks            00460def f   LIBCMT:mlock.obj
 0001:0005fe46       __unlock                   00460e46 f   LIBCMT:mlock.obj
 0001:0005fe5d       __mtinitlocknum            00460e5d f   LIBCMT:mlock.obj
 0001:0005ff1f       __lock                     00460f1f f   LIBCMT:mlock.obj
 0001:0005ff52       __initp_misc_winsig        00460f52 f   LIBCMT:winsig.obj
 0001:0005ffa7       ___get_sigabrt             00460fa7 f   LIBCMT:winsig.obj
 0001:0005ffb4       _raise                     00460fb4 f   LIBCMT:winsig.obj
 0001:00060157       __initp_misc_rand_s        00461157 f   LIBCMT:rand_s.obj
 0001:00060166       __RTC_Initialize           00461166 f   LIBCMT:_initsect_.obj
 0001:0006018c       __RTC_Terminate            0046118c f   LIBCMT:_initsect_.obj
 0001:000601c0       __ValidateImageBase        004611c0 f   LIBCMT:pesect.obj
 0001:00060200       __FindPESection            00461200 f   LIBCMT:pesect.obj
 0001:00060250       __IsNonwritableInCurrentImage 00461250 f   LIBCMT:pesect.obj
 0001:0006030c       _strcat_s                  0046130c f   LIBCMT:strcat_s.obj
 0001:00060433       __itoa_s                   00461433 f   LIBCMT:xtoas.obj
 0001:0006045d       __ultoa_s                  0046145d f   LIBCMT:xtoas.obj
 0001:00060477       __getpid                   00461477 f   LIBCMT:getpid.obj
 0001:0006047d       __mbsrchr_l                0046147d f   LIBCMT:mbsrchr.obj
 0001:00060527       __mbsrchr                  00461527 f   LIBCMT:mbsrchr.obj
 0001:0006053e       __rmtmp                    0046153e f   LIBCMT:rmtmp.obj
 0001:00060d1b       __sopen_helper             00461d1b f   LIBCMT:open.obj
 0001:00060ddf       __sopen_s                  00461ddf f   LIBCMT:open.obj
 0001:00060dff       __lseek_nolock             00461dff f   LIBCMT:lseek.obj
 0001:00060e74       __lseek                    00461e74 f   LIBCMT:lseek.obj
 0001:00060f48       __filbuf                   00461f48 f   LIBCMT:_filbuf.obj
 0001:0006106a       __read_nolock              0046206a f   LIBCMT:read.obj
 0001:00061621       __read                     00462621 f   LIBCMT:read.obj
 0001:00061717       __ceil_default             00462717 f   LIBCMT:_ceil_.obj
 0001:000617ef       __fcloseall                004627ef f   LIBCMT:closeall.obj
 0001:0006188b       ___sys_nerr                0046288b f   LIBCMT:syserr.obj
 0001:00061891       ___sys_errlist             00462891 f   LIBCMT:syserr.obj
 0001:00061897       _strncpy_s                 00462897 f   LIBCMT:strncpy_s.obj
 0001:0006194c       __getbuf                   0046294c f   LIBCMT:_getbuf.obj
 0001:00061995       __commit                   00462995 f   LIBCMT:commit.obj
 0001:00061a6e       __ftelli64_nolock          00462a6e f   LIBCMT:ftelli64.obj
 0001:00061db8       __ftelli64                 00462db8 f   LIBCMT:ftelli64.obj
 0001:00061e25       __lseeki64_nolock          00462e25 f   LIBCMT:lseeki64.obj
 0001:00061eaa       __lseeki64                 00462eaa f   LIBCMT:lseeki64.obj
 0001:00061f94       ___loctotime64_t           00462f94 f   LIBCMT:dtoxtm64.obj
 0001:000621fb       __getdrive                 004631fb f   LIBCMT:drive.obj
 0001:0006237e       ___crtwsetenv              0046337e f   LIBCMT:wsetenv.obj
 0001:000625fe       _wcslen                    004635fe f   LIBCMT:wcslen.obj
 0001:000626cb       ___crtsetenv               004636cb f   LIBCMT:setenv.obj
 0001:0006290d       __mbschr_l                 0046390d f   LIBCMT:mbschr.obj
 0001:000629bd       __mbschr                   004639bd f   LIBCMT:mbschr.obj
 0001:000629d4       __mbsnbicoll_l             004639d4 f   LIBCMT:mbsnbico.obj
 0001:00062ab2       __mbsnbicoll               00463ab2 f   LIBCMT:mbsnbico.obj
 0001:00062acc       ___wtomb_environ           00463acc f   LIBCMT:wtombenv.obj
 0001:00062bd5       __spawnve                  00463bd5 f   LIBCMT:spawnve.obj
 0001:00062dbe       __mbctoupper_l             00463dbe f   LIBCMT:mbtoupr.obj
 0001:00062e64       __mbctoupper               00463e64 f   LIBCMT:mbtoupr.obj
 0001:00062e77       ?__CxxUnhandledExceptionFilter@@YGJPAU_EXCEPTION_POINTERS@@@Z 00463e77 f   LIBCMT:unhandld.obj
 0001:00062eb9       ___CxxSetUnhandledExceptionFilter 00463eb9 f   LIBCMT:unhandld.obj
 0001:00062ec7       __XcptFilter               00463ec7 f   LIBCMT:winxfltr.obj
 0001:00063011       __setenvp                  00464011 f   LIBCMT:stdenvp.obj
 0001:00063287       __setargv                  00464287 f   LIBCMT:stdargv.obj
 0001:00063342       ___crtGetEnvironmentStringsA 00464342 f   LIBCMT:a_env.obj
 0001:000633d9       ___security_init_cookie    004643d9 f   LIBCMT:gs_support.obj
 0001:00063480       __CIacos_pentium4          00464480 f   LIBCMT:_acos_pentium4_.obj
 0001:00063498       __acos_pentium4            00464498     LIBCMT:_acos_pentium4_.obj
 0001:000639e0       __startTwoArgErrorHandling 004649e0 f   LIBCMT:_genexcep_.obj
 0001:000639f7       __startOneArgErrorHandling 004649f7 f   LIBCMT:_genexcep_.obj
 0001:00063a40       __twoToTOS                 00464a40 f   LIBCMT:_common_.obj
 0001:00063a55       __load_CW                  00464a55 f   LIBCMT:_common_.obj
 0001:00063a6c       __convertTOStoQNaN         00464a6c f   LIBCMT:_common_.obj
 0001:00063a85       __fload_withFB             00464a85 f   LIBCMT:_common_.obj
 0001:00063ac8       __checkTOS_withFB          00464ac8 f   LIBCMT:_common_.obj
 0001:00063ade       __fast_exit                00464ade f   LIBCMT:_common_.obj
 0001:00063aeb       __math_exit                00464aeb f   LIBCMT:_common_.obj
 0001:00063b15       __check_overflow_exit      00464b15 f   LIBCMT:_common_.obj
 0001:00063b29       __check_range_exit         00464b29 f   LIBCMT:_common_.obj
 0001:00063bd0       __CIasin_pentium4          00464bd0 f   LIBCMT:_asin_pentium4_.obj
 0001:00063be8       __asin_pentium4            00464be8     LIBCMT:_asin_pentium4_.obj
 0001:00064150       __CIpow_pentium4           00465150 f   LIBCMT:_pow_pentium4_.obj
 0001:00064169       __pow_pentium4             00465169     LIBCMT:_pow_pentium4_.obj
 0001:00064cc1       __fFEXP                    00465cc1     LIBCMT:_87tran_.obj
 0001:00064d18       __rtinfpopse               00465d18     LIBCMT:_87tran_.obj
 0001:00064d1a       __rtinfnpopse              00465d1a     LIBCMT:_87tran_.obj
 0001:00064d2a       __fFLN                     00465d2a     LIBCMT:_87tran_.obj
 0001:00064ddf       __rtinfpop                 00465ddf     LIBCMT:_87tran_.obj
 0001:00064de1       __rtinfnpop                00465de1     LIBCMT:_87tran_.obj
 0001:00064dfe       __ffexpm1                  00465dfe     LIBCMT:_87tran_.obj
 0001:00064ea7       __d_inttype                00465ea7 f   LIBCMT:_powhlp_.obj
 0001:00064f11       __powhlp                   00465f11 f   LIBCMT:_powhlp_.obj
 0001:0006503c       __isleadbyte_l             0046603c f i LIBCMT:_wctype.obj
 0001:00065074       _isleadbyte                00466074 f i LIBCMT:_wctype.obj
 0001:00065252       _wcstol                    00466252 f   LIBCMT:wcstol.obj
 0001:0006526c       __wfltin2                  0046626c f   LIBCMT:_wcfin_.obj
 0001:00065315       _iswctype                  00466315 f   LIBCMT:iswctype.obj
 0001:0006536a       ___wstrgtold12_l           0046636a f   LIBCMT:_wstrgtold_.obj
 0001:00065aaa       __atodbl_l                 00466aaa f   LIBCMT:atodbl.obj
 0001:00065b52       __atoflt_l                 00466b52 f   LIBCMT:atodbl.obj
 0001:00065bfa       __fptostr                  00466bfa f   LIBCMT:_fptostr.obj
 0001:00065cad       ___dtold                   00466cad f   LIBCMT:_cfout_.obj
 0001:00065d60       __fltout2                  00466d60 f   LIBCMT:_cfout_.obj
 0001:00065df0       __alldvrm                  00466df0 f   LIBCMT:lldvrm.obj
 0001:00065ed0       __aullshr                  00466ed0 f   LIBCMT:ullshr.obj
 0001:00065eef       __fptrap                   00466eef f   LIBCMT:crt0fp.obj
 0001:00065ef8       __controlfp_s              00466ef8 f   LIBCMT:_contrlfp_.obj
 0001:00065f57       __set_osfhnd               00466f57 f   LIBCMT:osfinfo.obj
 0001:00065fd8       __free_osfhnd              00466fd8 f   LIBCMT:osfinfo.obj
 0001:0006605e       __get_osfhandle            0046705e f   LIBCMT:osfinfo.obj
 0001:000660c7       ___lock_fhandle            004670c7 f   LIBCMT:osfinfo.obj
 0001:00066166       __unlock_fhandle           00467166 f   LIBCMT:osfinfo.obj
 0001:0006618d       __alloc_osfhnd             0046718d f   LIBCMT:osfinfo.obj
 0001:00066326       __crt_debugger_hook        00467326 f   LIBCMT:dbghook.obj
 0001:0006632e       __isatty                   0046732e f   LIBCMT:isatty.obj
 0001:00066384       __wctomb_s_l               00467384 f   LIBCMT:wctomb.obj
 0001:000664d9       _wctomb_s                  004674d9 f   LIBCMT:wctomb.obj
 0001:00066500       __aulldvrm                 00467500 f   LIBCMT:ulldvrm.obj
 0001:00066595       __mbsnbicmp_l              00467595 f   LIBCMT:mbsnbicm.obj
 0001:00066799       __mbsnbicmp                00467799 f   LIBCMT:mbsnbicm.obj
 0001:000667b3       __mbsnbcmp_l               004677b3 f   LIBCMT:mbsnbcmp.obj
 0001:000668ff       __mbsnbcmp                 004678ff f   LIBCMT:mbsnbcmp.obj
 0001:00066920       __global_unwind2           00467920 f   LIBCMT:exsup.obj
 0001:00066985       __local_unwind2            00467985 f   LIBCMT:exsup.obj
 0001:00066a09       __abnormal_termination     00467a09 f   LIBCMT:exsup.obj
 0001:00066a2c       __NLG_Notify1              00467a2c f   LIBCMT:exsup.obj
 0001:00066a35       __NLG_Notify               00467a35 f   LIBCMT:exsup.obj
 0001:00066a4c       __NLG_Dispatch2            00467a4c     LIBCMT:exsup.obj
 0001:00066a4c       __NLG_Dispatch             00467a4c     LIBCMT:exsup.obj
 0001:00066a54       __NLG_Call                 00467a54 f   LIBCMT:exsup.obj
 0001:00066a56       __NLG_Return2              00467a56     LIBCMT:exsup.obj
 0001:00066a57       __mbtowc_l                 00467a57 f   LIBCMT:mbtowc.obj
 0001:00066b6d       _mbtowc                    00467b6d f   LIBCMT:mbtowc.obj
 0001:00066b87       ___report_gsfailure        00467b87 f   LIBCMT:gs_report.obj
 0001:00066c8d       ___crtMessageBoxW          00467c8d f   LIBCMT:crtmboxw.obj
 0001:00066df9       _wcscat_s                  00467df9 f   LIBCMT:wcscat_s.obj
 0001:00066e6e       _wcsncpy_s                 00467e6e f   LIBCMT:wcsncpy_s.obj
 0001:00066f3b       _wcscpy_s                  00467f3b f   LIBCMT:wcscpy_s.obj
 0001:00066f9e       __set_error_mode           00467f9e f   LIBCMT:errmode.obj
 0001:000670b7       ___crtGetLocaleInfoA       004680b7 f   LIBCMT:a_loc.obj
 0001:000671d8       ___crtGetStringTypeA       004681d8 f   LIBCMT:a_str.obj
 0001:00067a17       ___free_lc_time            00468a17 f   LIBCMT:inittime.obj
 0001:00067d8e       ___init_time               00468d8e f   LIBCMT:inittime.obj
 0001:00067e0b       ___free_lconv_num          00468e0b f   LIBCMT:initnum.obj
 0001:00067e74       ___init_numeric            00468e74 f   LIBCMT:initnum.obj
 0001:00068064       ___free_lconv_mon          00469064 f   LIBCMT:initmon.obj
 0001:00068162       ___init_monetary           00469162 f   LIBCMT:initmon.obj
 0001:000684c2       ___pctype_func             004694c2 f   LIBCMT:ctype.obj
 0001:000684eb       __ld12tod                  004694eb f   LIBCMT:_intrncvt_.obj
 0001:00068a3c       __ld12tof                  00469a3c f   LIBCMT:_intrncvt_.obj
 0001:00068f8d       ___mtold12                 00469f8d f   LIBCMT:_mantold_.obj
 0001:00069171       __putwch_nolock            0046a171 f   LIBCMT:putwch.obj
 0001:000691b3       ___init_dummy              0046a1b3 f   LIBCMT:setlocal.obj
 0001:000691b3       __matherr                  0046a1b3 f   LIBCMT:_matherr_.obj
 0001:000691b3       ___init_collate            0046a1b3 f   LIBCMT:initcoll.obj
 0001:000691b6       __raise_exc_ex             0046a1b6 f   LIBCMT:_fpexcept_.obj
 0001:00069492       __raise_exc                0046a492 f   LIBCMT:_fpexcept_.obj
 0001:000694b5       __handle_exc               0046a4b5 f   LIBCMT:_fpexcept_.obj
 0001:00069699       __set_errno_from_matherr   0046a699 f   LIBCMT:_fpexcept_.obj
 0001:000696c6       __errcode                  0046a6c6 f   LIBCMT:_fpexcept_.obj
 0001:000696fa       __umatherr                 0046a6fa f   LIBCMT:_fpexcept_.obj
 0001:0006979a       __handle_qnan1             0046a79a f   LIBCMT:_fpexcept_.obj
 0001:000697ef       __except1                  0046a7ef f   LIBCMT:_fpexcept_.obj
 0001:000698b9       __frnd                     0046a8b9 f   LIBCMT:_frnd_.obj
 0001:000698cd       __set_exp                  0046a8cd f   LIBCMT:_util_.obj
 0001:000698fa       __sptype                   0046a8fa f   LIBCMT:_util_.obj
 0001:00069960       __decomp                   0046a960 f   LIBCMT:_util_.obj
 0001:00069a23       __statfp                   0046aa23 f   LIBCMT:_fpctrl_.obj
 0001:00069a33       __clrfp                    0046aa33 f   LIBCMT:_fpctrl_.obj
 0001:00069a44       __ctrlfp                   0046aa44 f   LIBCMT:_fpctrl_.obj
 0001:00069a6f       __set_statfp               0046aa6f f   LIBCMT:_fpctrl_.obj
 0001:00069ac7       ___set_fpsr_sse2           0046aac7 f   LIBCMT:_fpctrl_.obj
 0001:00069b39       __EH_prolog3               0046ab39 f   LIBCMT:ehprolg3.obj
 0001:00069b6c       __EH_prolog3_catch         0046ab6c f   LIBCMT:ehprolg3.obj
 0001:00069ba2       __EH_epilog3               0046aba2 f   LIBCMT:ehprolg3.obj
 0001:00069bb6       ?_ValidateRead@@YAHPBXI@Z  0046abb6 f   LIBCMT:validate.obj
 0001:00069bb6       ?_ValidateWrite@@YAHPAXI@Z 0046abb6 f   LIBCMT:validate.obj
 0001:00069bb6       ?_ValidateExecute@@YAHP6GHXZ@Z 0046abb6 f   LIBCMT:validate.obj
 0001:00069bc8       __87except                 0046abc8 f   LIBCMT:_87except_.obj
 0001:00069d07       ___init_ctype              0046ad07 f   LIBCMT:initctyp.obj
 0001:0006a0ae       ____lc_codepage_func       0046b0ae f   LIBCMT:initctyp.obj
 0001:0006a0d4       ____lc_handle_func         0046b0d4 f   LIBCMT:initctyp.obj
 0001:0006a100       _strcspn                   0046b100 f   LIBCMT:strcspn.obj
 0001:0006a6d3       ___get_qualified_locale    0046b6d3 f   LIBCMT:getqloc.obj
 0001:0006a8c4       _memcmp                    0046b8c4 f   LIBCMT:memcmp.obj
 0001:0006be20       _strpbrk                   0046ce20 f   LIBCMT:strpbrk.obj
 0001:0006be60       __chsize_nolock            0046ce60 f   LIBCMT:chsize.obj
 0001:0006c016       __setmode_nolock           0046d016 f   LIBCMT:setmode.obj
 0001:0006c0d1       __get_fmode                0046d0d1 f   LIBCMT:setmode.obj
 0001:0006c100       __SEH_prolog4_GS           0046d100 f   LIBCMT:sehprolg4gs.obj
 0001:0006c148       __SEH_epilog4_GS           0046d148 f   LIBCMT:sehprolg4gs.obj
 0001:0006c838       ___tzset                   0046d838 f   LIBCMT:tzset.obj
 0001:0006c887       __isindst                  0046d887 f   LIBCMT:tzset.obj
 0001:0006c8c8       __get_daylight             0046d8c8 f   LIBCMT:timeset.obj
 0001:0006c8f5       __get_dstbias              0046d8f5 f   LIBCMT:timeset.obj
 0001:0006c922       __get_timezone             0046d922 f   LIBCMT:timeset.obj
 0001:0006c94f       ___daylight                0046d94f f   LIBCMT:timeset.obj
 0001:0006c955       ___dstbias                 0046d955 f   LIBCMT:timeset.obj
 0001:0006c95b       ___timezone                0046d95b f   LIBCMT:timeset.obj
 0001:0006c961       ___tzname                  0046d961 f   LIBCMT:timeset.obj
 0001:0006c967       __wcsnicoll_l              0046d967 f   LIBCMT:wcsnicol.obj
 0001:0006ca87       __wcsnicoll                0046da87 f   LIBCMT:wcsnicol.obj
 0001:0006cb41       ___mbtow_environ           0046db41 f   LIBCMT:mbtowenv.obj
 0001:0006cbc8       __wsetenvp                 0046dbc8 f   LIBCMT:wstdenvp.obj
 0001:0006cca4       ___crtGetEnvironmentStringsW 0046dca4 f   LIBCMT:w_env.obj
 0001:0006ccfc       _wcschr                    0046dcfc f   LIBCMT:wcschr.obj
 0001:0006cf91       ___crtCompareStringA       0046df91 f   LIBCMT:a_cmp.obj
 0001:0006cfd3       __strnicoll_l              0046dfd3 f   LIBCMT:strnicol.obj
 0001:0006d0bd       __dospawn                  0046e0bd f   LIBCMT:dospawn.obj
 0001:0006d2c1       __cenvarg                  0046e2c1 f   LIBCMT:cenvarg.obj
 0001:0006d6b0       __ismbblead                0046e6b0 f   LIBCMT:ismbbyte.obj
 0001:0006d6c8       __fpclass                  0046e6c8 f   LIBCMT:_ieeemisc_.obj
 0001:0006d765       __wchartodigit             0046e765 f   LIBCMT:wchtodig.obj
 0001:0006d905       _$I10_OUTPUT               0046e905 f   LIBCMT:_x10fout_.obj
 0001:0006e32b       __control87                0046f32b f i LIBCMT:_ieee87_.obj
 0001:0006e63d       __controlfp                0046f63d f   LIBCMT:_ieee87_.obj
 0001:0006e952       __strnicmp_l               0046f952 f   LIBCMT:strnicmp.obj
 0001:0006ea34       __strnicmp                 0046fa34 f   LIBCMT:strnicmp.obj
 0001:0006ea34       _strnicmp                  0046fa34 f   LIBCMT:strnicmp.obj
 0001:0006ea87       ___initconout              0046fa87 f   LIBCMT:initcon.obj
 0001:0006eaa6       ___termconout              0046faa6 f   LIBCMT:initcon.obj
 0001:0006eabd       ___ascii_stricmp           0046fabd f   LIBCMT:stricmp.obj
 0001:0006eaf6       __stricmp_l                0046faf6 f   LIBCMT:stricmp.obj
 0001:0006ebb6       __stricmp                  0046fbb6 f   LIBCMT:stricmp.obj
 0001:0006ebb6       _strcmpi                   0046fbb6 f   LIBCMT:stricmp.obj
 0001:0006ebb6       _stricmp                   0046fbb6 f   LIBCMT:stricmp.obj
 0001:0006ebfd       ___crtCompareStringW       0046fbfd f   LIBCMT:w_cmp.obj
 0001:0006ec60       __mbsnicmp_l               0046fc60 f   LIBCMT:mbsnicmp.obj
 0001:0006ee2b       __mbsnicmp                 0046fe2b f   LIBCMT:mbsnicmp.obj
 0001:0006ee50       ___ascii_strnicmp          0046fe50 f   LIBCMT:_strnicm.obj
 0001:0006eeb1       _wcsnlen                   0046feb1 f   LIBCMT:wcslen_s.obj
 0001:0006eed1       ??1out_of_range@std@@UAE@XZ 0046fed1 f i libcpmt:xthrow.obj
 0001:0006eed1       ??1length_error@std@@UAE@XZ 0046fed1 f i libcpmt:xthrow.obj
 0001:0006eed6       ??0logic_error@std@@QAE@ABV01@@Z 0046fed6 f i libcpmt:xthrow.obj
 0001:0006eef3       ?_Xlength_error@std@@YAXPBD@Z 0046fef3 f   libcpmt:xthrow.obj
 0001:0006ef23       ??0length_error@std@@QAE@ABV01@@Z 0046ff23 f i libcpmt:xthrow.obj
 0001:0006ef40       ?_Xout_of_range@std@@YAXPBD@Z 0046ff40 f   libcpmt:xthrow.obj
 0001:0006ef70       ??0out_of_range@std@@QAE@ABV01@@Z 0046ff70 f i libcpmt:xthrow.obj
 0001:0006ef8d       ??_Glength_error@std@@UAEPAXI@Z 0046ff8d f i libcpmt:xthrow.obj
 0001:0006ef8d       ??_Eout_of_range@std@@UAEPAXI@Z 0046ff8d f i libcpmt:xthrow.obj
 0001:0006ef8d       ??_Gout_of_range@std@@UAEPAXI@Z 0046ff8d f i libcpmt:xthrow.obj
 0001:0006ef8d       ??_Glogic_error@std@@UAEPAXI@Z 0046ff8d f i libcpmt:xthrow.obj
 0001:0006ef8d       ??_Elogic_error@std@@UAEPAXI@Z 0046ff8d f i libcpmt:xthrow.obj
 0001:0006ef8d       ??_Elength_error@std@@UAEPAXI@Z 0046ff8d f i libcpmt:xthrow.obj
 0001:0006efae       ??0_Init_locks@std@@QAE@XZ 0046ffae f   libcpmt:xlock.obj
 0001:0006efdf       ??1_Init_locks@std@@QAE@XZ 0046ffdf f   libcpmt:xlock.obj
 0001:0006f008       ??0_Lockit@std@@QAE@H@Z    00470008 f   libcpmt:xlock.obj
 0001:0006f030       ??1_Lockit@std@@QAE@XZ     00470030 f   libcpmt:xlock.obj
 0001:0006f047       ?_Callfns@ios_base@std@@AAEXW4event@12@@Z 00470047 f i libcpmt:ios.obj
 0001:0006f06e       ?_Tidy@ios_base@std@@AAEXXZ 0047006e f i libcpmt:ios.obj
 0001:0006f0b2       ?_Ios_base_dtor@ios_base@std@@CAXPAV12@@Z 004700b2 f   libcpmt:ios.obj
 0001:0006f0f0       ??0_Mutex@std@@QAE@XZ      004700f0 f   libcpmt:xmutex.obj
 0001:0006f10a       ??1_Mutex@std@@QAE@XZ      0047010a f   libcpmt:xmutex.obj
 0001:0006f121       ?_Lock@_Mutex@std@@QAEXXZ  00470121 f   libcpmt:xmutex.obj
 0001:0006f12a       ?_Unlock@_Mutex@std@@QAEXXZ 0047012a f   libcpmt:xmutex.obj
 0001:0006f133       ??1_Fac_node@std@@QAE@XZ   00470133 f i libcpmt:locale0.obj
 0001:0006f148       ?_Facet_Register@facet@locale@std@@CAXPAV123@@Z 00470148 f   libcpmt:locale0.obj
 0001:0006f172       __Deletegloballocale       00470172 f   libcpmt:locale0.obj
 0001:0006f1bf       ?_Getgloballocale@locale@std@@CAPAV_Locimp@12@XZ 004701bf f   libcpmt:locale0.obj
 0001:0006f1c5       ?_Setgloballocale@locale@std@@CAXPAX@Z 004701c5 f   libcpmt:locale0.obj
 0001:0006f1ef       ?_Locimp_dtor@_Locimp@locale@std@@CAXPAV123@@Z 004701ef f   libcpmt:locale0.obj
 0001:0006f24f       ??1_Fac_tidy_reg_t@std@@QAE@XZ 0047024f f i libcpmt:locale0.obj
 0001:0006f29d       ?_Locinfo_dtor@_Locinfo@std@@SAXPAV12@@Z 0047029d f   libcpmt:locale0.obj
 0001:0006f2b8       ??4?$_Yarn@D@std@@QAEAAV01@PBD@Z 004702b8 f i libcpmt:locale0.obj
 0001:0006f310       ?_Locinfo_ctor@_Locinfo@std@@SAXPAV12@PBD@Z 00470310 f   libcpmt:locale0.obj
 0001:0006f35d       ??0_Locimp@locale@std@@AAE@_N@Z 0047035d f i libcpmt:locale0.obj
 0001:0006f39c       ??1_Locimp@locale@std@@MAE@XZ 0047039c f i libcpmt:locale0.obj
 0001:0006f3df       ??_G_Locimp@locale@std@@MAEPAXI@Z 004703df f i libcpmt:locale0.obj
 0001:0006f3df       ??_E_Locimp@locale@std@@MAEPAXI@Z 004703df f i libcpmt:locale0.obj
 0001:0006f400       ?_Init@locale@std@@CAPAV_Locimp@12@XZ 00470400 f   libcpmt:locale0.obj
 0001:0006f48f       __Tolower                  0047048f f   libcpmt:_tolower.obj
 0001:0006f59c       __Getctype                 0047059c f   libcpmt:_tolower.obj
 0001:0006f5fc       ??8error_condition@std@@QBE_NABV01@@Z 004705fc f i libcpmt:syserror.obj
 0001:0006f61d       ?equivalent@error_category@std@@UBE_NHABVerror_condition@2@@Z 0047061d f i libcpmt:syserror.obj
 0001:0006f63e       ?equivalent@error_category@std@@UBE_NABVerror_code@2@H@Z 0047063e f i libcpmt:syserror.obj
 0001:0006f65d       ?name@_Generic_error_category@std@@UBEPBDXZ 0047065d f i libcpmt:syserror.obj
 0001:0006f65d       ?name@_Iostream_error_category@std@@UBEPBDXZ 0047065d f i libcpmt:syserror.obj
 0001:0006f661       ?name@_System_error_category@std@@UBEPBDXZ 00470661 f i libcpmt:syserror.obj
 0001:0006f665       ?default_error_condition@_System_error_category@std@@UBE?AVerror_condition@2@H@Z 00470665 f i libcpmt:syserror.obj
 0001:0006f665       ?default_error_condition@error_category@std@@UBE?AVerror_condition@2@H@Z 00470665 f i libcpmt:syserror.obj
 0001:0006f679       ?iostream_category@std@@YAABVerror_category@1@XZ 00470679 f   libcpmt:syserror.obj
 0001:0006f67f       ??_E_Generic_error_category@std@@UAEPAXI@Z 0047067f f i libcpmt:syserror.obj
 0001:0006f67f       ??_G_Iostream_error_category@std@@UAEPAXI@Z 0047067f f i libcpmt:syserror.obj
 0001:0006f67f       ??_Gerror_category@std@@UAEPAXI@Z 0047067f f i libcpmt:syserror.obj
 0001:0006f67f       ??_E_Iostream_error_category@std@@UAEPAXI@Z 0047067f f i libcpmt:syserror.obj
 0001:0006f67f       ??_G_System_error_category@std@@UAEPAXI@Z 0047067f f i libcpmt:syserror.obj
 0001:0006f67f       ??_E_System_error_category@std@@UAEPAXI@Z 0047067f f i libcpmt:syserror.obj
 0001:0006f67f       ??_Eerror_category@std@@UAEPAXI@Z 0047067f f i libcpmt:syserror.obj
 0001:0006f67f       ??_G_Generic_error_category@std@@UAEPAXI@Z 0047067f f i libcpmt:syserror.obj
 0001:0006f6a1       ?_Inside@?$basic_string@DU?$char_traits@D@std@@V?$allocator@D@2@@std@@QAE_NPBD@Z 004706a1 f i libcpmt:syserror.obj
 0001:0006f6de       ?assign@?$basic_string@DU?$char_traits@D@std@@V?$allocator@D@2@@std@@QAEAAV12@ABV12@II@Z 004706de f i libcpmt:syserror.obj
 0001:0006f779       ?assign@?$basic_string@DU?$char_traits@D@std@@V?$allocator@D@2@@std@@QAEAAV12@PBDI@Z 00470779 f i libcpmt:syserror.obj
 0001:0006f7f0       ??0?$basic_string@DU?$char_traits@D@std@@V?$allocator@D@2@@std@@QAE@PBD@Z 004707f0 f i libcpmt:syserror.obj
 0001:0006f821       ?message@_Generic_error_category@std@@UBE?AV?$basic_string@DU?$char_traits@D@std@@V?$allocator@D@2@@2@H@Z 00470821 f i libcpmt:syserror.obj
 0001:0006f844       ?message@_Iostream_error_category@std@@UBE?AV?$basic_string@DU?$char_traits@D@std@@V?$allocator@D@2@@2@H@Z 00470844 f i libcpmt:syserror.obj
 0001:0006f874       __Toupper                  00470874 f   libcpmt:_toupper.obj
 0001:0006f986       ?_Xfsopen@std@@YAPAU_iobuf@@PBDHH@Z 00470986 f   libcpmt:fiopen.obj
 0001:0006f9a5       ??$_Xfiopen@D@std@@YAPAU_iobuf@@PBDHH@Z 004709a5 f i libcpmt:fiopen.obj
 0001:0006fa4d       ?_Fiopen@std@@YAPAU_iobuf@@PBDHH@Z 00470a4d f   libcpmt:fiopen.obj
 0001:0006fa58       __Mtxinit                  00470a58 f   libcpmt:xmtx.obj
 0001:0006fa68       __Mtxdst                   00470a68 f   libcpmt:xmtx.obj
 0001:0006fa78       __Mtxlock                  00470a78 f   libcpmt:xmtx.obj
 0001:0006fa88       __Mtxunlock                00470a88 f   libcpmt:xmtx.obj
 0001:0006fa98       ?_Atexit@@YAXP6AXXZ@Z      00470a98 f   libcpmt:iosptrs.obj
 0001:0006faca       ??1_Init_atexit@@QAE@XZ    00470aca f i libcpmt:iosptrs.obj
 0001:0006faf6       _RtlUnwind@16              00470af6 f   kernel32:KERNEL32.dll
 0001:0006fb00       ?ImageFormatInfo@ImageLoader@@YAABUImageFormatInfo_t@@W4ImageFormat@@@Z 00470b00 f   bitmap:imageformat.obj
 0001:0006fb20       ?GetNumMipMapLevels@ImageLoader@@YAHHHH@Z 00470b20 f   bitmap:imageformat.obj
 0001:0006fb90       ?GetMemRequired@ImageLoader@@YAHHHHW4ImageFormat@@_N@Z 00470b90 f   bitmap:imageformat.obj
 0001:0006fcd0       ??4BGRA5551_t@@QAEAAU0@ABUBGRA8888_t@@@Z 00470cd0 f i bitmap:colorconversion.obj
 0001:0006fd50       ??4BGRA4444_t@@QAEAAU0@ABUBGRA8888_t@@@Z 00470d50 f i bitmap:colorconversion.obj
 0001:0006fdd0       ?ConvertFloatTo16bits@float16@@KAGM@Z 00470dd0 f i bitmap:colorconversion.obj
 0001:0006ff10       ?Convert16bitFloatTo32bits@float16@@KAMG@Z 00470f10 f i bitmap:colorconversion.obj
 0001:0006ffe0       ?PixRGBAF_to_8@@YA?AUPixRGBA8@@ABUPixRGBAF@@@Z 00470fe0 f i bitmap:colorconversion.obj
 0001:00070350       ?ConvertToATIxN@ImageLoader@@YA_NPBEW4ImageFormat@@PAE1HHHH@Z 00471350 f   bitmap:colorconversion.obj
 0001:00070460       ?ConvertToDXT@ImageLoader@@YA_NPBEW4ImageFormat@@PAE1HHHH@Z 00471460 f   bitmap:colorconversion.obj
 0001:00070640       ?ConvertImageFormat_RGBA16161616_To_RGB323232F@ImageLoader@@YAXPAGPAMHH@Z 00471640 f   bitmap:colorconversion.obj
 0001:000707a0       ?ConvertImageFormat_RGB323232F_To_RGBA16161616@ImageLoader@@YAXPAMPAGHH@Z 004717a0 f   bitmap:colorconversion.obj
 0001:000708b0       ?ConvertImageFormat_RGB323232F_To_RGBA8888@ImageLoader@@YAXPAMPAEHH@Z 004718b0 f   bitmap:colorconversion.obj
 0001:00070b70       ?ConvertImageFormat_RGB323232F_To_BGRA8888@ImageLoader@@YAXPAMPAEHH@Z 00471b70 f   bitmap:colorconversion.obj
 0001:00070e30       ?ConvertNormalMapRGBA8888ToDUDVMapUVWQ8888@ImageLoader@@YAXPBEHHPAE@Z 00471e30 f   bitmap:colorconversion.obj
 0001:00070e90       ?ConvertNormalMapRGBA8888ToDUDVMapUVLX8888@ImageLoader@@YAXPBEHHPAE@Z 00471e90 f   bitmap:colorconversion.obj
 0001:00070ee0       ?ConvertNormalMapRGBA8888ToDUDVMapUV88@ImageLoader@@YAXPBEHHPAE@Z 00471ee0 f   bitmap:colorconversion.obj
 0001:00070f20       ?NormalizeNormalMapRGBA8888@ImageLoader@@YAXPAEH@Z 00471f20 f   bitmap:colorconversion.obj
 0001:00071050       ?RotateImageLeft@ImageLoader@@YA_NPBEPAEHW4ImageFormat@@@Z 00472050 f   bitmap:colorconversion.obj
 0001:00071200       ?RotateImage180@ImageLoader@@YA_NPBEPAEHW4ImageFormat@@@Z 00472200 f   bitmap:colorconversion.obj
 0001:00071240       ?FlipImageVertically@ImageLoader@@YA_NPAX0HHW4ImageFormat@@H@Z 00472240 f   bitmap:colorconversion.obj
 0001:00071320       ?FlipImageHorizontally@ImageLoader@@YA_NPAX0HHW4ImageFormat@@H@Z 00472320 f   bitmap:colorconversion.obj
 0001:000735d0       ?ConvertImageFormat_RGBA16161616F_To_RGB323232F@ImageLoader@@YAXPAVfloat16@@PAMHH@Z 004745d0 f   bitmap:colorconversion.obj
 0001:00073630       ?ConvertImageFormat_RGBA16161616F_To_RGBA323232F@ImageLoader@@YAXPAVfloat16@@PAMHHI@Z 00474630 f   bitmap:colorconversion.obj
 0001:000736d0       ?ConvertImageFormat_RGB323232F_To_RGBA16161616F@ImageLoader@@YAXPAMPAVfloat16@@HH@Z 004746d0 f   bitmap:colorconversion.obj
 0001:00073730       ?ConvertImageFormat_RGBA16161616_To_RGBA16161616F@ImageLoader@@YAXPAGPAMHH@Z 00474730 f   bitmap:colorconversion.obj
 0001:000737f0       ?ConvertImageFormat_RGBA16161616F_To_RGBA16161616@ImageLoader@@YAXPAVfloat16@@PAGHH@Z 004747f0 f   bitmap:colorconversion.obj
 0001:00074ce0       ?ConvertImageFormat@ImageLoader@@YA_NPBEW4ImageFormat@@PAE1HHHH@Z 00475ce0 f   bitmap:colorconversion.obj
 0001:00075450       ?ConstructGammaTable@ImageLoader@@YAXPAEMM@Z 00476450 f   bitmap:resample.obj
 0001:000754c0       ?GammaCorrectRGBA8888@ImageLoader@@YAXPAE0HHH0@Z 004764c0 f   bitmap:resample.obj
 0001:000755a0       ?GammaCorrectRGBA8888@ImageLoader@@YAXPAE0HHHMM@Z 004765a0 f   bitmap:resample.obj
 0001:00075a00       ?ResampleRGBA8888@ImageLoader@@YA_NABUResampleInfo_t@1@@Z 00476a00 f   bitmap:resample.obj
 0001:00075dc0       ?ResampleRGB323232F@ImageLoader@@YA_NABUResampleInfo_t@1@@Z 00476dc0 f   bitmap:resample.obj
 0001:00075f60       ?ComputeAveragedColor@?$CKernelWrapper@$0A@$0A@@ImageLoader@@SAXABUKernelInfo_t@2@ABUResampleInfo_t@2@HHHPAM2@Z 00476f60 f i bitmap:resample.obj
 0001:00076130       ?ComputeAveragedColor@?$CKernelWrapper@$00$0A@@ImageLoader@@SAXABUKernelInfo_t@2@ABUResampleInfo_t@2@HHHPAM2@Z 00477130 f i bitmap:resample.obj
 0001:00076300       ?ComputeAveragedColor@?$CKernelWrapper@$01$0A@@ImageLoader@@SAXABUKernelInfo_t@2@ABUResampleInfo_t@2@HHHPAM2@Z 00477300 f i bitmap:resample.obj
 0001:000764b0       ?AddAlphaToAlphaResult@?$CKernelWrapper@$01$0A@@ImageLoader@@SAXABUKernelInfo_t@2@ABUResampleInfo_t@2@HHHMPAM@Z 004774b0 f i bitmap:resample.obj
 0001:000765f0       ?ComputeAveragedColor@?$CKernelWrapper@$0A@$00@ImageLoader@@SAXABUKernelInfo_t@2@ABUResampleInfo_t@2@HHHPAM2@Z 004775f0 f i bitmap:resample.obj
 0001:000767d0       ?ComputeAveragedColor@?$CKernelWrapper@$00$00@ImageLoader@@SAXABUKernelInfo_t@2@ABUResampleInfo_t@2@HHHPAM2@Z 004777d0 f i bitmap:resample.obj
 0001:000769b0       ?ComputeAveragedColor@?$CKernelWrapper@$01$00@ImageLoader@@SAXABUKernelInfo_t@2@ABUResampleInfo_t@2@HHHPAM2@Z 004779b0 f i bitmap:resample.obj
 0001:00076ba0       ?AddAlphaToAlphaResult@?$CKernelWrapper@$01$00@ImageLoader@@SAXABUKernelInfo_t@2@ABUResampleInfo_t@2@HHHMPAM@Z 00477ba0 f i bitmap:resample.obj
 0001:00076d10       ?AdjustAlphaChannel@?$CKernelWrapper@$01$0A@@ImageLoader@@SAXABUKernelInfo_t@2@ABUResampleInfo_t@2@HHHPAM@Z 00477d10 f i bitmap:resample.obj
 0001:00076d10       ?AdjustAlphaChannel@?$CKernelWrapper@$01$00@ImageLoader@@SAXABUKernelInfo_t@2@ABUResampleInfo_t@2@HHHPAM@Z 00477d10 f i bitmap:resample.obj
 0001:00077170       ?ApplyKernel@?$CKernelWrapper@$0A@$0A@@ImageLoader@@SAXABUKernelInfo_t@2@ABUResampleInfo_t@2@HHHPAM2@Z 00478170 f i bitmap:resample.obj
 0001:00077350       ?ApplyKernel@?$CKernelWrapper@$00$0A@@ImageLoader@@SAXABUKernelInfo_t@2@ABUResampleInfo_t@2@HHHPAM2@Z 00478350 f i bitmap:resample.obj
 0001:000774d0       ?ApplyKernel@?$CKernelWrapper@$01$0A@@ImageLoader@@SAXABUKernelInfo_t@2@ABUResampleInfo_t@2@HHHPAM2@Z 004784d0 f i bitmap:resample.obj
 0001:00077740       ?ApplyKernel@?$CKernelWrapper@$0A@$00@ImageLoader@@SAXABUKernelInfo_t@2@ABUResampleInfo_t@2@HHHPAM2@Z 00478740 f i bitmap:resample.obj
 0001:00077920       ?ApplyKernel@?$CKernelWrapper@$00$00@ImageLoader@@SAXABUKernelInfo_t@2@ABUResampleInfo_t@2@HHHPAM2@Z 00478920 f i bitmap:resample.obj
 0001:00077aa0       ?ApplyKernel@?$CKernelWrapper@$01$00@ImageLoader@@SAXABUKernelInfo_t@2@ABUResampleInfo_t@2@HHHPAM2@Z 00478aa0 f i bitmap:resample.obj
 0001:00077d10       ?GenerateMipmapLevels@ImageLoader@@YAXPAE0HHHW4ImageFormat@@MMH@Z 00478d10 f   bitmap:resample.obj
 0001:00077eb0       ?GetProcessorCount@@YAKXZ  00478eb0 f   bitmap:ATI_Compress.obj
 0001:00077ed0       ?GetCodecType@@YA?AW4_CodecType@@W4ATI_TC_FORMAT@@@Z 00478ed0 f   bitmap:ATI_Compress.obj
 0001:00077f80       ?GetError@@YA?AW4ATI_TC_ERROR@@W4_CODECError@@@Z 00478f80 f   bitmap:ATI_Compress.obj
 0001:00077fb0       ?CalcBufferSize@@YAKW4ATI_TC_FORMAT@@KKK@Z 00478fb0 f   bitmap:ATI_Compress.obj
 0001:00078040       ?CompressTexture@@YA?AW4ATI_TC_ERROR@@PBU_ATI_TC_Texture@@PAU2@PBU_ATI_TC_CompressOptions@@P6A_NMKK@ZKKW4_CodecType@@@Z 00479040 f   bitmap:ATI_Compress.obj
 0001:000782d0       ??0CATICompressThreadData@@QAE@XZ 004792d0 f   bitmap:ATI_Compress.obj
 0001:000782e0       ??1CATICompressThreadData@@QAE@XZ 004792e0 f   bitmap:ATI_Compress.obj
 0001:00078330       ?ThreadedCompressProc@@YGKPAX@Z 00479330 f   bitmap:ATI_Compress.obj
 0001:00078390       ?ThreadedCompressTexture@@YA?AW4ATI_TC_ERROR@@PBU_ATI_TC_Texture@@PAU2@PBU_ATI_TC_CompressOptions@@P6A_NMKK@ZKKW4_CodecType@@@Z 00479390 f   bitmap:ATI_Compress.obj
 0001:00078810       _ATI_TC_CalculateBufferSize 00479810 f   bitmap:ATI_Compress.obj
 0001:00078850       ?CheckTexture@@YA?AW4ATI_TC_ERROR@@PBU_ATI_TC_Texture@@_N@Z 00479850 f   bitmap:ATI_Compress.obj
 0001:000788d0       _ATI_TC_ConvertTexture     004798d0 f   bitmap:ATI_Compress.obj
 0001:00078e20       ?S3TCencode@@YAXPAU_DDSURFACEDESC@@PAUtagPALETTEENTRY@@0PAXIPAM@Z 00479e20 f   bitmap:S3_intrf.obj
 0001:00079b40       ??0FloatBitMap_t@@QAE@HH@Z 0047ab40 f   bitmap:float_bm.obj
 0001:00079b90       ??1FloatBitMap_t@@QAE@XZ   0047ab90 f   bitmap:float_bm.obj
 0001:00079ba0       ?CompressTo8Bits@FloatBitMap_t@@QAEXM@Z 0047aba0 f   bitmap:float_bm2.obj
 0001:00079e90       ??0CCodec@ATI_Compress@@QAE@W4_CodecType@@@Z 0047ae90 f   bitmap:Codec.obj
 0001:00079eb0       ??1CCodec@ATI_Compress@@UAE@XZ 0047aeb0 f   bitmap:Codec.obj
 0001:00079ec0       ?SetParameter@CCodec@ATI_Compress@@UAE_NPBDK@Z 0047aec0 f   bitmap:Codec.obj
 0001:00079ed0       ?GetParameter@CCodec@ATI_Compress@@UAE_NPBDAAK@Z 0047aed0 f   bitmap:Codec.obj
 0001:00079ee0       ?SetParameter@CCodec@ATI_Compress@@UAE_NPBDM@Z 0047aee0 f   bitmap:Codec.obj
 0001:00079ef0       ?GetParameter@CCodec@ATI_Compress@@UAE_NPBDAAM@Z 0047aef0 f   bitmap:Codec.obj
 0001:00079f00       ?SupportsSSE2@@YA_NXZ      0047af00 f   bitmap:Codec.obj
 0001:00079f10       ?CreateCodec@@YAPAVCCodec@ATI_Compress@@W4_CodecType@@@Z 0047af10 f   bitmap:Codec.obj
 0001:0007a240       ?CalcBufferSize@@YAKW4_CodecType@@KK@Z 0047b240 f   bitmap:Codec.obj
 0001:0007a2b0       ?DeriveB@@YAEEE@Z          0047b2b0 f   bitmap:Codec.obj
 0001:0007a3c0       ?DeriveB@@YAMMM@Z          0047b3c0 f   bitmap:Codec.obj
 0001:0007a450       ?GetType@CCodec@ATI_Compress@@UBE?AW4_CodecType@@XZ 0047b450 f i bitmap:Codec.obj
 0001:0007a450       ?GetPointCount@CCoreDispSurface@@QBEHXZ 0047b450 f i builddisp.obj
 0001:0007a460       ??_GCCodec@ATI_Compress@@UAEPAXI@Z 0047b460 f i bitmap:Codec.obj
 0001:0007a460       ??_ECCodec@ATI_Compress@@UAEPAXI@Z 0047b460 f i bitmap:Codec.obj
 0001:0007a480       ??0half@@QAE@M@Z           0047b480 f i bitmap:CodecBuffer.obj
 0001:0007a4f0       ?CreateCodecBuffer@@YAPAVCCodecBuffer@@W4_CodecBufferType@@KKKPAE@Z 0047b4f0 f   bitmap:CodecBuffer.obj
 0001:0007a720       ??0CCodecBuffer@@QAE@KKKPAE@Z 0047b720 f   bitmap:CodecBuffer.obj
 0001:0007a760       ??1CCodecBuffer@@UAE@XZ    0047b760 f   bitmap:CodecBuffer.obj
 0001:0007a790       ?Copy@CCodecBuffer@@UAEXAAV1@@Z 0047b790 f   bitmap:CodecBuffer.obj
 0001:0007a850       ?WriteBlock@CCodecBuffer@@UAE_NKKPAKK@Z 0047b850 f   bitmap:CodecBuffer.obj
 0001:0007a860       ?ReadBlock@CCodecBuffer@@UAE_NKKPAKK@Z 0047b860 f   bitmap:CodecBuffer.obj
 0001:0007a870       ?ConvertBlock@CCodecBuffer@@IAEXQANQAMK@Z 0047b870 f   bitmap:CodecBuffer.obj
 0001:0007a8f0       ?ConvertBlock@CCodecBuffer@@IAEXQANQAVhalf@@K@Z 0047b8f0 f   bitmap:CodecBuffer.obj
 0001:0007a9a0       ?ConvertBlock@CCodecBuffer@@IAEXQANQAGK@Z 0047b9a0 f   bitmap:CodecBuffer.obj
 0001:0007aa70       ?ConvertBlock@CCodecBuffer@@IAEXQANQAEK@Z 0047ba70 f   bitmap:CodecBuffer.obj
 0001:0007ab30       ?ConvertBlock@CCodecBuffer@@IAEXQAMQANK@Z 0047bb30 f   bitmap:CodecBuffer.obj
 0001:0007abb0       ?ConvertBlock@CCodecBuffer@@IAEXQAMQAVhalf@@K@Z 0047bbb0 f   bitmap:CodecBuffer.obj
 0001:0007ac60       ?ConvertBlock@CCodecBuffer@@IAEXQAMQAGK@Z 0047bc60 f   bitmap:CodecBuffer.obj
 0001:0007ad30       ?ConvertBlock@CCodecBuffer@@IAEXQAMQAEK@Z 0047bd30 f   bitmap:CodecBuffer.obj
 0001:0007adf0       ?ConvertBlock@CCodecBuffer@@IAEXQAVhalf@@QANK@Z 0047bdf0 f   bitmap:CodecBuffer.obj
 0001:0007ae40       ?ConvertBlock@CCodecBuffer@@IAEXQAVhalf@@QAMK@Z 0047be40 f   bitmap:CodecBuffer.obj
 0001:0007ae90       ?ConvertBlock@CCodecBuffer@@IAEXQAVhalf@@QAGK@Z 0047be90 f   bitmap:CodecBuffer.obj
 0001:0007aef0       ?ConvertBlock@CCodecBuffer@@IAEXQAVhalf@@QAEK@Z 0047bef0 f   bitmap:CodecBuffer.obj
 0001:0007af50       ?ConvertBlock@CCodecBuffer@@IAEXQAGQANK@Z 0047bf50 f   bitmap:CodecBuffer.obj
 0001:0007afc0       ?ConvertBlock@CCodecBuffer@@IAEXQAGQAMK@Z 0047bfc0 f   bitmap:CodecBuffer.obj
 0001:0007b030       ?ConvertBlock@CCodecBuffer@@IAEXQAGQAVhalf@@K@Z 0047c030 f   bitmap:CodecBuffer.obj
 0001:0007b0a0       ?ConvertBlock@CCodecBuffer@@IAEXQAGQAEK@Z 0047c0a0 f   bitmap:CodecBuffer.obj
 0001:0007b0e0       ?ConvertBlock@CCodecBuffer@@IAEXQAEQANK@Z 0047c0e0 f   bitmap:CodecBuffer.obj
 0001:0007b150       ?ConvertBlock@CCodecBuffer@@IAEXQAEQAMK@Z 0047c150 f   bitmap:CodecBuffer.obj
 0001:0007b1c0       ?ConvertBlock@CCodecBuffer@@IAEXQAEQAVhalf@@K@Z 0047c1c0 f   bitmap:CodecBuffer.obj
 0001:0007b240       ?ConvertBlock@CCodecBuffer@@IAEXQAEQAGK@Z 0047c240 f   bitmap:CodecBuffer.obj
 0001:0007b2c0       ?SwizzleBlock@CCodecBuffer@@IAEXQANK@Z 0047c2c0 f   bitmap:CodecBuffer.obj
 0001:0007b360       ?SwizzleBlock@CCodecBuffer@@IAEXQAMK@Z 0047c360 f   bitmap:CodecBuffer.obj
 0001:0007b420       ?SwizzleBlock@CCodecBuffer@@IAEXQAVhalf@@K@Z 0047c420 f   bitmap:CodecBuffer.obj
 0001:0007b460       ?SwizzleBlock@CCodecBuffer@@IAEXQAGK@Z 0047c460 f   bitmap:CodecBuffer.obj
 0001:0007b4a0       ?ReadBlockR@CCodecBuffer@@UAE_NKKEEQAE@Z 0047c4a0 f   bitmap:CodecBuffer.obj
 0001:0007b660       ?ReadBlockG@CCodecBuffer@@UAE_NKKEEQAE@Z 0047c660 f   bitmap:CodecBuffer.obj
 0001:0007b820       ?ReadBlockB@CCodecBuffer@@UAE_NKKEEQAE@Z 0047c820 f   bitmap:CodecBuffer.obj
 0001:0007b9e0       ?ReadBlockA@CCodecBuffer@@UAE_NKKEEQAE@Z 0047c9e0 f   bitmap:CodecBuffer.obj
 0001:0007bba0       ?ReadBlockR@CCodecBuffer@@UAE_NKKEEQAG@Z 0047cba0 f   bitmap:CodecBuffer.obj
 0001:0007bd80       ?ReadBlockG@CCodecBuffer@@UAE_NKKEEQAG@Z 0047cd80 f   bitmap:CodecBuffer.obj
 0001:0007bf60       ?ReadBlockB@CCodecBuffer@@UAE_NKKEEQAG@Z 0047cf60 f   bitmap:CodecBuffer.obj
 0001:0007c140       ?ReadBlockA@CCodecBuffer@@UAE_NKKEEQAG@Z 0047d140 f   bitmap:CodecBuffer.obj
 0001:0007c320       ?ReadBlockR@CCodecBuffer@@UAE_NKKEEQAVhalf@@@Z 0047d320 f   bitmap:CodecBuffer.obj
 0001:0007c520       ?ReadBlockG@CCodecBuffer@@UAE_NKKEEQAVhalf@@@Z 0047d520 f   bitmap:CodecBuffer.obj
 0001:0007c720       ?ReadBlockB@CCodecBuffer@@UAE_NKKEEQAVhalf@@@Z 0047d720 f   bitmap:CodecBuffer.obj
 0001:0007c920       ?ReadBlockA@CCodecBuffer@@UAE_NKKEEQAVhalf@@@Z 0047d920 f   bitmap:CodecBuffer.obj
 0001:0007cb20       ?ReadBlockR@CCodecBuffer@@UAE_NKKEEQAM@Z 0047db20 f   bitmap:CodecBuffer.obj
 0001:0007cc80       ?ReadBlockG@CCodecBuffer@@UAE_NKKEEQAM@Z 0047dc80 f   bitmap:CodecBuffer.obj
 0001:0007cde0       ?ReadBlockB@CCodecBuffer@@UAE_NKKEEQAM@Z 0047dde0 f   bitmap:CodecBuffer.obj
 0001:0007cf40       ?ReadBlockA@CCodecBuffer@@UAE_NKKEEQAM@Z 0047df40 f   bitmap:CodecBuffer.obj
 0001:0007d0a0       ?ReadBlockR@CCodecBuffer@@UAE_NKKEEQAN@Z 0047e0a0 f   bitmap:CodecBuffer.obj
 0001:0007d1f0       ?ReadBlockG@CCodecBuffer@@UAE_NKKEEQAN@Z 0047e1f0 f   bitmap:CodecBuffer.obj
 0001:0007d340       ?ReadBlockB@CCodecBuffer@@UAE_NKKEEQAN@Z 0047e340 f   bitmap:CodecBuffer.obj
 0001:0007d490       ?ReadBlockA@CCodecBuffer@@UAE_NKKEEQAN@Z 0047e490 f   bitmap:CodecBuffer.obj
 0001:0007d5e0       ?WriteBlockR@CCodecBuffer@@UAE_NKKEEQAE@Z 0047e5e0 f   bitmap:CodecBuffer.obj
 0001:0007d760       ?WriteBlockG@CCodecBuffer@@UAE_NKKEEQAE@Z 0047e760 f   bitmap:CodecBuffer.obj
 0001:0007d8e0       ?WriteBlockB@CCodecBuffer@@UAE_NKKEEQAE@Z 0047e8e0 f   bitmap:CodecBuffer.obj
 0001:0007da70       ?WriteBlockA@CCodecBuffer@@UAE_NKKEEQAE@Z 0047ea70 f   bitmap:CodecBuffer.obj
 0001:0007dc00       ?WriteBlockR@CCodecBuffer@@UAE_NKKEEQAG@Z 0047ec00 f   bitmap:CodecBuffer.obj
 0001:0007dd90       ?WriteBlockG@CCodecBuffer@@UAE_NKKEEQAG@Z 0047ed90 f   bitmap:CodecBuffer.obj
 0001:0007df20       ?WriteBlockB@CCodecBuffer@@UAE_NKKEEQAG@Z 0047ef20 f   bitmap:CodecBuffer.obj
 0001:0007e0c0       ?WriteBlockA@CCodecBuffer@@UAE_NKKEEQAG@Z 0047f0c0 f   bitmap:CodecBuffer.obj
 0001:0007e260       ?WriteBlockR@CCodecBuffer@@UAE_NKKEEQAVhalf@@@Z 0047f260 f   bitmap:CodecBuffer.obj
 0001:0007e3a0       ?WriteBlockG@CCodecBuffer@@UAE_NKKEEQAVhalf@@@Z 0047f3a0 f   bitmap:CodecBuffer.obj
 0001:0007e4e0       ?WriteBlockB@CCodecBuffer@@UAE_NKKEEQAVhalf@@@Z 0047f4e0 f   bitmap:CodecBuffer.obj
 0001:0007e620       ?WriteBlockA@CCodecBuffer@@UAE_NKKEEQAVhalf@@@Z 0047f620 f   bitmap:CodecBuffer.obj
 0001:0007e760       ?WriteBlockR@CCodecBuffer@@UAE_NKKEEQAM@Z 0047f760 f   bitmap:CodecBuffer.obj
 0001:0007e950       ?WriteBlockG@CCodecBuffer@@UAE_NKKEEQAM@Z 0047f950 f   bitmap:CodecBuffer.obj
 0001:0007eb50       ?WriteBlockB@CCodecBuffer@@UAE_NKKEEQAM@Z 0047fb50 f   bitmap:CodecBuffer.obj
 0001:0007ed50       ?WriteBlockA@CCodecBuffer@@UAE_NKKEEQAM@Z 0047fd50 f   bitmap:CodecBuffer.obj
 0001:0007ef50       ?WriteBlockR@CCodecBuffer@@UAE_NKKEEQAN@Z 0047ff50 f   bitmap:CodecBuffer.obj
 0001:0007f130       ?WriteBlockG@CCodecBuffer@@UAE_NKKEEQAN@Z 00480130 f   bitmap:CodecBuffer.obj
 0001:0007f310       ?WriteBlockB@CCodecBuffer@@UAE_NKKEEQAN@Z 00480310 f   bitmap:CodecBuffer.obj
 0001:0007f500       ?WriteBlockA@CCodecBuffer@@UAE_NKKEEQAN@Z 00480500 f   bitmap:CodecBuffer.obj
 0001:0007f6f0       ?WriteBlockRGBA@CCodecBuffer@@UAE_NKKEEQAK@Z 004806f0 f   bitmap:CodecBuffer.obj
 0001:0007f8e0       ?ReadBlockRGBA@CCodecBuffer@@UAE_NKKEEQAK@Z 004808e0 f   bitmap:CodecBuffer.obj
 0001:0007fae0       ?WriteBlockRGBA@CCodecBuffer@@UAE_NKKEEQAG@Z 00480ae0 f   bitmap:CodecBuffer.obj
 0001:0007fc70       ?ReadBlockRGBA@CCodecBuffer@@UAE_NKKEEQAG@Z 00480c70 f   bitmap:CodecBuffer.obj
 0001:0007fe30       ?WriteBlockRGBA@CCodecBuffer@@UAE_NKKEEQAVhalf@@@Z 00480e30 f   bitmap:CodecBuffer.obj
 0001:0007ffc0       ?ReadBlockRGBA@CCodecBuffer@@UAE_NKKEEQAVhalf@@@Z 00480fc0 f   bitmap:CodecBuffer.obj
 0001:00080180       ?WriteBlockRGBA@CCodecBuffer@@UAE_NKKEEQAM@Z 00481180 f   bitmap:CodecBuffer.obj
 0001:00080310       ?ReadBlockRGBA@CCodecBuffer@@UAE_NKKEEQAM@Z 00481310 f   bitmap:CodecBuffer.obj
 0001:000804d0       ?WriteBlockRGBA@CCodecBuffer@@UAE_NKKEEQAN@Z 004814d0 f   bitmap:CodecBuffer.obj
 0001:00080660       ?ReadBlockRGBA@CCodecBuffer@@UAE_NKKEEQAN@Z 00481660 f   bitmap:CodecBuffer.obj
 0001:00080820       ??_ECCodecBuffer@@UAEPAXI@Z 00481820 f i bitmap:CodecBuffer.obj
 0001:00080820       ??_GCCodecBuffer@@UAEPAXI@Z 00481820 f i bitmap:CodecBuffer.obj
 0001:00080860       _CodeRGBBlock              00481860 f   bitmap:S3_quant.obj
 0001:00083880       _CodeAlphaBlock            00484880 f   bitmap:S3_quant.obj
 0001:00084630       ??0CCodec_ATI2N_DXT5@@QAE@XZ 00485630 f   bitmap:Codec_ATI2N_DXT5.obj
 0001:00084650       ??1CCodec_ATI2N_DXT5@@UAE@XZ 00485650 f   bitmap:Codec_ATI2N_DXT5.obj
 0001:00084660       ?Compress@CCodec_ATI2N_DXT5@@UAE?AW4_CODECError@@AAVCCodecBuffer@@0P6A_NMKK@ZKK@Z 00485660 f   bitmap:Codec_ATI2N_DXT5.obj
 0001:000848f0       ?Decompress@CCodec_ATI2N_DXT5@@UAE?AW4_CODECError@@AAVCCodecBuffer@@0@Z 004858f0 f   bitmap:Codec_ATI2N_DXT5.obj
 0001:00084ae0       ?GetBlockHeight@CCodec_Block_4x4@@UAEKXZ 00485ae0 f i bitmap:Codec_ATI2N_DXT5.obj
 0001:00084ae0       ?GetBufferType@CCodecBuffer_RGBA16F@@UBE?BW4_CodecBufferType@@XZ 00485ae0 f i bitmap:CodecBuffer_RGBA16F.obj
 0001:00084af0       ??_GCCodec_ATI2N_DXT5@@UAEPAXI@Z 00485af0 f i bitmap:Codec_ATI2N_DXT5.obj
 0001:00084af0       ??_ECCodec_ATI2N_DXT5@@UAEPAXI@Z 00485af0 f i bitmap:Codec_ATI2N_DXT5.obj
 0001:00084b20       ??0CCodec_ATI2N@@QAE@W4_CodecType@@@Z 00485b20 f   bitmap:Codec_ATI2N.obj
 0001:00084b40       ??1CCodec_ATI2N@@UAE@XZ    00485b40 f   bitmap:Codec_ATI2N.obj
 0001:00084b50       ?Compress@CCodec_ATI2N@@UAE?AW4_CODECError@@AAVCCodecBuffer@@0P6A_NMKK@ZKK@Z 00485b50 f   bitmap:Codec_ATI2N.obj
 0001:00084dc0       ?Decompress@CCodec_ATI2N@@UAE?AW4_CODECError@@AAVCCodecBuffer@@0@Z 00485dc0 f   bitmap:Codec_ATI2N.obj
 0001:00085090       ?DeriveBlockB@CCodec_ATI2N@@MAEXQAE00@Z 00486090 f   bitmap:Codec_ATI2N.obj
 0001:000850e0       ?DeriveBlockB@CCodec_ATI2N@@MAEXQAM00@Z 004860e0 f   bitmap:Codec_ATI2N.obj
 0001:00085130       ??_ECCodec_ATI2N@@UAEPAXI@Z 00486130 f i bitmap:Codec_ATI2N.obj
 0001:00085130       ??_GCCodec_ATI2N@@UAEPAXI@Z 00486130 f i bitmap:Codec_ATI2N.obj
 0001:00085160       ??0CCodec_ATI1N@@QAE@W4_CodecType@@@Z 00486160 f   bitmap:Codec_ATI1N.obj
 0001:00085180       ??1CCodec_ATI1N@@UAE@XZ    00486180 f   bitmap:Codec_ATI1N.obj
 0001:00085190       ?CreateBuffer@CCodec_ATI1N@@UBEPAVCCodecBuffer@@KKKPAE@Z 00486190 f   bitmap:Codec_ATI1N.obj
 0001:000851c0       ?Compress@CCodec_ATI1N@@UAE?AW4_CODECError@@AAVCCodecBuffer@@0P6A_NMKK@ZKK@Z 004861c0 f   bitmap:Codec_ATI1N.obj
 0001:000853b0       ?Decompress@CCodec_ATI1N@@UAE?AW4_CODECError@@AAVCCodecBuffer@@0@Z 004863b0 f   bitmap:Codec_ATI1N.obj
 0001:00085590       ??_ECCodec_ATI1N@@UAEPAXI@Z 00486590 f i bitmap:Codec_ATI1N.obj
 0001:00085590       ??_GCCodec_ATI1N@@UAEPAXI@Z 00486590 f i bitmap:Codec_ATI1N.obj
 0001:000855c0       ??0CCodec_DXT5_xGxR@@QAE@XZ 004865c0 f   bitmap:Codec_DXT5_xGxR.obj
 0001:000855e0       ??1CCodec_DXT5_xGxR@@UAE@XZ 004865e0 f   bitmap:Codec_DXT5_xGxR.obj
 0001:000855f0       ?ReadBlock@CCodec_DXT5_xGxR@@MAEXAAVCCodecBuffer@@KKQAK@Z 004865f0 f   bitmap:Codec_DXT5_xGxR.obj
 0001:000856b0       ?WriteBlock@CCodec_DXT5_xGxR@@MAEXAAVCCodecBuffer@@KKQAK@Z 004866b0 f   bitmap:Codec_DXT5_xGxR.obj
 0001:00085770       ?ReadBlock@CCodec_DXT5_xGxR@@MAEXAAVCCodecBuffer@@KKQAM@Z 00486770 f   bitmap:Codec_DXT5_xGxR.obj
 0001:000857e0       ?WriteBlock@CCodec_DXT5_xGxR@@MAEXAAVCCodecBuffer@@KKQAM@Z 004867e0 f   bitmap:Codec_DXT5_xGxR.obj
 0001:00085860       ??_ECCodec_DXT5_xGxR@@UAEPAXI@Z 00486860 f i bitmap:Codec_DXT5_xGxR.obj
 0001:00085860       ??_GCCodec_DXT5_xGxR@@UAEPAXI@Z 00486860 f i bitmap:Codec_DXT5_xGxR.obj
 0001:00085890       ??0CCodec_DXT5_RGxB@@QAE@XZ 00486890 f   bitmap:Codec_DXT5_RGxB.obj
 0001:000858b0       ??1CCodec_DXT5_RGxB@@UAE@XZ 004868b0 f   bitmap:Codec_DXT5_RGxB.obj
 0001:000858c0       ?ReadBlock@CCodec_DXT5_RGxB@@MAEXAAVCCodecBuffer@@KKQAK@Z 004868c0 f   bitmap:Codec_DXT5_RGxB.obj
 0001:000859c0       ?WriteBlock@CCodec_DXT5_RGxB@@MAEXAAVCCodecBuffer@@KKQAK@Z 004869c0 f   bitmap:Codec_DXT5_RGxB.obj
 0001:00085aa0       ?ReadBlock@CCodec_DXT5_RGxB@@MAEXAAVCCodecBuffer@@KKQAM@Z 00486aa0 f   bitmap:Codec_DXT5_RGxB.obj
 0001:00085b20       ?WriteBlock@CCodec_DXT5_RGxB@@MAEXAAVCCodecBuffer@@KKQAM@Z 00486b20 f   bitmap:Codec_DXT5_RGxB.obj
 0001:00085bb0       ??_ECCodec_DXT5_RGxB@@UAEPAXI@Z 00486bb0 f i bitmap:Codec_DXT5_RGxB.obj
 0001:00085bb0       ??_GCCodec_DXT5_RGxB@@UAEPAXI@Z 00486bb0 f i bitmap:Codec_DXT5_RGxB.obj
 0001:00085be0       ??0CCodec_DXT5_xRBG@@QAE@XZ 00486be0 f   bitmap:Codec_DXT5_xRBG.obj
 0001:00085c00       ??1CCodec_DXT5_xRBG@@UAE@XZ 00486c00 f   bitmap:Codec_DXT5_xRBG.obj
 0001:00085c10       ?ReadBlock@CCodec_DXT5_xRBG@@MAEXAAVCCodecBuffer@@KKQAK@Z 00486c10 f   bitmap:Codec_DXT5_xRBG.obj
 0001:00085d00       ?WriteBlock@CCodec_DXT5_xRBG@@MAEXAAVCCodecBuffer@@KKQAK@Z 00486d00 f   bitmap:Codec_DXT5_xRBG.obj
 0001:00085de0       ?ReadBlock@CCodec_DXT5_xRBG@@MAEXAAVCCodecBuffer@@KKQAM@Z 00486de0 f   bitmap:Codec_DXT5_xRBG.obj
 0001:00085e60       ?WriteBlock@CCodec_DXT5_xRBG@@MAEXAAVCCodecBuffer@@KKQAM@Z 00486e60 f   bitmap:Codec_DXT5_xRBG.obj
 0001:00085ee0       ?SetParameter@CCodec_DXT5_xRBG@@UAE_NPBDM@Z 00486ee0 f   bitmap:Codec_DXT5_xRBG.obj
 0001:00085f70       ?GetParameter@CCodec_DXT5_xRBG@@UAE_NPBDAAM@Z 00486f70 f   bitmap:Codec_DXT5_xRBG.obj
 0001:00085ff0       ??_ECCodec_DXT5_xRBG@@UAEPAXI@Z 00486ff0 f i bitmap:Codec_DXT5_xRBG.obj
 0001:00085ff0       ??_GCCodec_DXT5_xRBG@@UAEPAXI@Z 00486ff0 f i bitmap:Codec_DXT5_xRBG.obj
 0001:00086020       ??0CCodec_DXT5_RBxG@@QAE@XZ 00487020 f   bitmap:Codec_DXT5_RBxG.obj
 0001:00086040       ??1CCodec_DXT5_RBxG@@UAE@XZ 00487040 f   bitmap:Codec_DXT5_RBxG.obj
 0001:00086050       ?ReadBlock@CCodec_DXT5_RBxG@@MAEXAAVCCodecBuffer@@KKQAK@Z 00487050 f   bitmap:Codec_DXT5_RBxG.obj
 0001:00086140       ?WriteBlock@CCodec_DXT5_RBxG@@MAEXAAVCCodecBuffer@@KKQAK@Z 00487140 f   bitmap:Codec_DXT5_RBxG.obj
 0001:00086220       ?ReadBlock@CCodec_DXT5_RBxG@@MAEXAAVCCodecBuffer@@KKQAM@Z 00487220 f   bitmap:Codec_DXT5_RBxG.obj
 0001:000862a0       ?WriteBlock@CCodec_DXT5_RBxG@@MAEXAAVCCodecBuffer@@KKQAM@Z 004872a0 f   bitmap:Codec_DXT5_RBxG.obj
 0001:00086320       ?SetParameter@CCodec_DXT5_RBxG@@UAE_NPBDM@Z 00487320 f   bitmap:Codec_DXT5_RBxG.obj
 0001:000863b0       ?GetParameter@CCodec_DXT5_RBxG@@UAE_NPBDAAM@Z 004873b0 f   bitmap:Codec_DXT5_RBxG.obj
 0001:00086430       ??_GCCodec_DXT5_RBxG@@UAEPAXI@Z 00487430 f i bitmap:Codec_DXT5_RBxG.obj
 0001:00086430       ??_ECCodec_DXT5_RBxG@@UAEPAXI@Z 00487430 f i bitmap:Codec_DXT5_RBxG.obj
 0001:00086460       ??0CCodec_DXT5_RxBG@@QAE@XZ 00487460 f   bitmap:Codec_DXT5_RxBG.obj
 0001:00086480       ??1CCodec_DXT5_RxBG@@UAE@XZ 00487480 f   bitmap:Codec_DXT5_RxBG.obj
 0001:00086490       ?ReadBlock@CCodec_DXT5_RxBG@@MAEXAAVCCodecBuffer@@KKQAK@Z 00487490 f   bitmap:Codec_DXT5_RxBG.obj
 0001:00086570       ?WriteBlock@CCodec_DXT5_RxBG@@MAEXAAVCCodecBuffer@@KKQAK@Z 00487570 f   bitmap:Codec_DXT5_RxBG.obj
 0001:00086650       ?ReadBlock@CCodec_DXT5_RxBG@@MAEXAAVCCodecBuffer@@KKQAM@Z 00487650 f   bitmap:Codec_DXT5_RxBG.obj
 0001:000866d0       ?WriteBlock@CCodec_DXT5_RxBG@@MAEXAAVCCodecBuffer@@KKQAM@Z 004876d0 f   bitmap:Codec_DXT5_RxBG.obj
 0001:00086750       ??_GCCodec_DXT5_RxBG@@UAEPAXI@Z 00487750 f i bitmap:Codec_DXT5_RxBG.obj
 0001:00086750       ??_ECCodec_DXT5_RxBG@@UAEPAXI@Z 00487750 f i bitmap:Codec_DXT5_RxBG.obj
 0001:00086780       ??0CCodec_DXT5_xGBR@@QAE@XZ 00487780 f   bitmap:Codec_DXT5_xGBR.obj
 0001:000867a0       ??1CCodec_DXT5_xGBR@@UAE@XZ 004877a0 f   bitmap:Codec_DXT5_xGBR.obj
 0001:000867b0       ?ReadBlock@CCodec_DXT5_xGBR@@MAEXAAVCCodecBuffer@@KKQAK@Z 004877b0 f   bitmap:Codec_DXT5_xGBR.obj
 0001:000868a0       ?WriteBlock@CCodec_DXT5_xGBR@@MAEXAAVCCodecBuffer@@KKQAK@Z 004878a0 f   bitmap:Codec_DXT5_xGBR.obj
 0001:00086980       ?ReadBlock@CCodec_DXT5_xGBR@@MAEXAAVCCodecBuffer@@KKQAM@Z 00487980 f   bitmap:Codec_DXT5_xGBR.obj
 0001:00086a00       ?WriteBlock@CCodec_DXT5_xGBR@@MAEXAAVCCodecBuffer@@KKQAM@Z 00487a00 f   bitmap:Codec_DXT5_xGBR.obj
 0001:00086a90       ??_ECCodec_DXT5_xGBR@@UAEPAXI@Z 00487a90 f i bitmap:Codec_DXT5_xGBR.obj
 0001:00086a90       ??_GCCodec_DXT5_xGBR@@UAEPAXI@Z 00487a90 f i bitmap:Codec_DXT5_xGBR.obj
 0001:00086ac0       ??0CCodec_DXT5@@QAE@XZ     00487ac0 f   bitmap:Codec_DXT5.obj
 0001:00086ae0       ??1CCodec_DXT5@@UAE@XZ     00487ae0 f   bitmap:Codec_DXT5.obj
 0001:00086af0       ?Compress@CCodec_DXT5@@UAE?AW4_CODECError@@AAVCCodecBuffer@@0P6A_NMKK@ZKK@Z 00487af0 f   bitmap:Codec_DXT5.obj
 0001:00086cd0       ?Decompress@CCodec_DXT5@@UAE?AW4_CODECError@@AAVCCodecBuffer@@0@Z 00487cd0 f   bitmap:Codec_DXT5.obj
 0001:00086e10       ??_ECCodec_DXT5@@UAEPAXI@Z 00487e10 f i bitmap:Codec_DXT5.obj
 0001:00086e10       ??_GCCodec_DXT5@@UAEPAXI@Z 00487e10 f i bitmap:Codec_DXT5.obj
 0001:00086e40       ??0CCodec_DXT3@@QAE@XZ     00487e40 f   bitmap:Codec_DXT3.obj
 0001:00086e60       ??1CCodec_DXT3@@UAE@XZ     00487e60 f   bitmap:Codec_DXT3.obj
 0001:00086e70       ?Compress@CCodec_DXT3@@UAE?AW4_CODECError@@AAVCCodecBuffer@@0P6A_NMKK@ZKK@Z 00487e70 f   bitmap:Codec_DXT3.obj
 0001:00087050       ?Decompress@CCodec_DXT3@@UAE?AW4_CODECError@@AAVCCodecBuffer@@0@Z 00488050 f   bitmap:Codec_DXT3.obj
 0001:00087190       ??_ECCodec_DXT3@@UAEPAXI@Z 00488190 f i bitmap:Codec_DXT3.obj
 0001:00087190       ??_GCCodec_DXT3@@UAEPAXI@Z 00488190 f i bitmap:Codec_DXT3.obj
 0001:000871c0       ??0CCodec_DXT1@@QAE@XZ     004881c0 f   bitmap:Codec_DXT1.obj
 0001:000871e0       ??1CCodec_DXT1@@UAE@XZ     004881e0 f   bitmap:Codec_DXT1.obj
 0001:000871f0       ?CreateBuffer@CCodec_DXT1@@UBEPAVCCodecBuffer@@KKKPAE@Z 004881f0 f   bitmap:Codec_DXT1.obj
 0001:00087220       ?Compress@CCodec_DXT1@@UAE?AW4_CODECError@@AAVCCodecBuffer@@0P6A_NMKK@ZKK@Z 00488220 f   bitmap:Codec_DXT1.obj
 0001:00087440       ?Decompress@CCodec_DXT1@@UAE?AW4_CODECError@@AAVCCodecBuffer@@0@Z 00488440 f   bitmap:Codec_DXT1.obj
 0001:00087580       ?SetParameter@CCodec_DXT1@@UAE_NPBDK@Z 00488580 f   bitmap:Codec_DXT1.obj
 0001:000875e0       ?GetParameter@CCodec_DXT1@@UAE_NPBDAAK@Z 004885e0 f   bitmap:Codec_DXT1.obj
 0001:00087650       ??_GCCodec_DXT1@@UAEPAXI@Z 00488650 f i bitmap:Codec_DXT1.obj
 0001:00087650       ??_ECCodec_DXT1@@UAEPAXI@Z 00488650 f i bitmap:Codec_DXT1.obj
 0001:00087680       ?overflow@half@@CAMXZ      00488680 f   bitmap:half.obj
 0001:000876b0       ?convert@half@@CAFH@Z      004886b0 f   bitmap:half.obj
 0001:00087770       ??0CCodecBuffer_Block@@QAE@W4_CodecBufferType@@KKKPAE@Z 00488770 f   bitmap:CodecBuffer_Block.obj
 0001:00087890       ??1CCodecBuffer_Block@@UAE@XZ 00488890 f   bitmap:CodecBuffer_Block.obj
 0001:000878a0       ?ReadBlock@CCodecBuffer_Block@@UAE_NKKPAKK@Z 004888a0 f   bitmap:CodecBuffer_Block.obj
 0001:00087910       ?WriteBlock@CCodecBuffer_Block@@UAE_NKKPAKK@Z 00488910 f   bitmap:CodecBuffer_Block.obj
 0001:00087980       ??_ECCodecBuffer_Block@@UAEPAXI@Z 00488980 f i bitmap:CodecBuffer_Block.obj
 0001:00087980       ??_GCCodecBuffer_Block@@UAEPAXI@Z 00488980 f i bitmap:CodecBuffer_Block.obj
 0001:000879b0       ??0CCodecBuffer_RGBA32F@@QAE@KKKPAE@Z 004889b0 f   bitmap:CodecBuffer_RGBA32F.obj
 0001:00087a10       ??1CCodecBuffer_RGBA32F@@UAE@XZ 00488a10 f   bitmap:CodecBuffer_RGBA32F.obj
 0001:00087a20       ?Copy@CCodecBuffer_RGBA32F@@UAEXAAVCCodecBuffer@@@Z 00488a20 f   bitmap:CodecBuffer_RGBA32F.obj
 0001:00087ae0       ?WriteBlock@CCodecBuffer_RGBA32F@@MAE_NKKEEQAMK@Z 00488ae0 f   bitmap:CodecBuffer_RGBA32F.obj
 0001:00087c50       ?ReadBlockA@CCodecBuffer_RGBA32F@@UAE_NKKEEQAM@Z 00488c50 f   bitmap:CodecBuffer_RGBA32F.obj
 0001:00087c80       ?ReadBlockR@CCodecBuffer_RGBA32F@@UAE_NKKEEQAM@Z 00488c80 f   bitmap:CodecBuffer_RGBA32F.obj
 0001:00087cb0       ?ReadBlockG@CCodecBuffer_RGBA32F@@UAE_NKKEEQAM@Z 00488cb0 f   bitmap:CodecBuffer_RGBA32F.obj
 0001:00087ce0       ?ReadBlockB@CCodecBuffer_RGBA32F@@UAE_NKKEEQAM@Z 00488ce0 f   bitmap:CodecBuffer_RGBA32F.obj
 0001:00087d10       ?WriteBlockA@CCodecBuffer_RGBA32F@@UAE_NKKEEQAM@Z 00488d10 f   bitmap:CodecBuffer_RGBA32F.obj
 0001:00087d40       ?WriteBlockR@CCodecBuffer_RGBA32F@@UAE_NKKEEQAM@Z 00488d40 f   bitmap:CodecBuffer_RGBA32F.obj
 0001:00087d70       ?WriteBlockG@CCodecBuffer_RGBA32F@@UAE_NKKEEQAM@Z 00488d70 f   bitmap:CodecBuffer_RGBA32F.obj
 0001:00087da0       ?WriteBlockB@CCodecBuffer_RGBA32F@@UAE_NKKEEQAM@Z 00488da0 f   bitmap:CodecBuffer_RGBA32F.obj
 0001:00087dd0       ?WriteBlockRGBA@CCodecBuffer_RGBA32F@@UAE_NKKEEQAM@Z 00488dd0 f   bitmap:CodecBuffer_RGBA32F.obj
 0001:00087e70       ?ReadBlock@CCodecBuffer_RGBA32F@@MAE_NKKEEQAMK@Z 00488e70 f   bitmap:CodecBuffer_RGBA32F.obj
 0001:00088090       ?ReadBlockRGBA@CCodecBuffer_RGBA32F@@UAE_NKKEEQAM@Z 00489090 f   bitmap:CodecBuffer_RGBA32F.obj
 0001:000881f0       ?GetBufferType@CCodecBuffer_RGBA32F@@UBE?BW4_CodecBufferType@@XZ 004891f0 f i bitmap:CodecBuffer_RGBA32F.obj
 0001:00088200       ??$PadLine@M@@YAXKEQAM@Z   00489200 f i bitmap:CodecBuffer_RGBA32F.obj
 0001:00088200       ??$PadLine@K@@YAXKEQAK@Z   00489200 f i bitmap:CodecBuffer_RGBA2101010.obj
 0001:00088240       ??$PadBlock@K@@YAXKEEQAK@Z 00489240 f i bitmap:CodecBuffer_RGBA2101010.obj
 0001:00088240       ??$PadBlock@M@@YAXKEEQAM@Z 00489240 f i bitmap:CodecBuffer_RGBA32F.obj
 0001:00088290       ??_GCCodecBuffer_RGBA32F@@UAEPAXI@Z 00489290 f i bitmap:CodecBuffer_RGBA32F.obj
 0001:00088290       ??_ECCodecBuffer_RGBA32F@@UAEPAXI@Z 00489290 f i bitmap:CodecBuffer_RGBA32F.obj
 0001:000882c0       ??0CCodecBuffer_RGBA16F@@QAE@KKKPAE@Z 004892c0 f   bitmap:CodecBuffer_RGBA16F.obj
 0001:00088320       ??1CCodecBuffer_RGBA16F@@UAE@XZ 00489320 f   bitmap:CodecBuffer_RGBA16F.obj
 0001:00088330       ?WriteBlock@CCodecBuffer_RGBA16F@@MAE_NKKEEQAVhalf@@K@Z 00489330 f   bitmap:CodecBuffer_RGBA16F.obj
 0001:000883d0       ?ReadBlockA@CCodecBuffer_RGBA16F@@UAE_NKKEEQAVhalf@@@Z 004893d0 f   bitmap:CodecBuffer_RGBA16F.obj
 0001:00088400       ?ReadBlockR@CCodecBuffer_RGBA16F@@UAE_NKKEEQAVhalf@@@Z 00489400 f   bitmap:CodecBuffer_RGBA16F.obj
 0001:00088430       ?ReadBlockG@CCodecBuffer_RGBA16F@@UAE_NKKEEQAVhalf@@@Z 00489430 f   bitmap:CodecBuffer_RGBA16F.obj
 0001:00088460       ?ReadBlockB@CCodecBuffer_RGBA16F@@UAE_NKKEEQAVhalf@@@Z 00489460 f   bitmap:CodecBuffer_RGBA16F.obj
 0001:00088490       ?WriteBlockA@CCodecBuffer_RGBA16F@@UAE_NKKEEQAVhalf@@@Z 00489490 f   bitmap:CodecBuffer_RGBA16F.obj
 0001:000884c0       ?WriteBlockR@CCodecBuffer_RGBA16F@@UAE_NKKEEQAVhalf@@@Z 004894c0 f   bitmap:CodecBuffer_RGBA16F.obj
 0001:000884f0       ?WriteBlockG@CCodecBuffer_RGBA16F@@UAE_NKKEEQAVhalf@@@Z 004894f0 f   bitmap:CodecBuffer_RGBA16F.obj
 0001:00088520       ?WriteBlockB@CCodecBuffer_RGBA16F@@UAE_NKKEEQAVhalf@@@Z 00489520 f   bitmap:CodecBuffer_RGBA16F.obj
 0001:00088550       ?WriteBlockRGBA@CCodecBuffer_RGBA16F@@UAE_NKKEEQAVhalf@@@Z 00489550 f   bitmap:CodecBuffer_RGBA16F.obj
 0001:000885f0       ?Copy@CCodecBuffer_RGBA16F@@UAEXAAVCCodecBuffer@@@Z 004895f0 f   bitmap:CodecBuffer_RGBA16F.obj
 0001:000886d0       ?ReadBlock@CCodecBuffer_RGBA16F@@MAE_NKKEEQAVhalf@@K@Z 004896d0 f   bitmap:CodecBuffer_RGBA16F.obj
 0001:00088810       ?ReadBlockRGBA@CCodecBuffer_RGBA16F@@UAE_NKKEEQAVhalf@@@Z 00489810 f   bitmap:CodecBuffer_RGBA16F.obj
 0001:00088950       ??$PadLine@G@@YAXKEQAG@Z   00489950 f i bitmap:CodecBuffer_RGBA16.obj
 0001:00088950       ??$PadLine@Vhalf@@@@YAXKEQAVhalf@@@Z 00489950 f i bitmap:CodecBuffer_RGBA16F.obj
 0001:00088990       ??_GCCodecBuffer_RGBA16F@@UAEPAXI@Z 00489990 f i bitmap:CodecBuffer_RGBA16F.obj
 0001:00088990       ??_ECCodecBuffer_RGBA16F@@UAEPAXI@Z 00489990 f i bitmap:CodecBuffer_RGBA16F.obj
 0001:000889c0       ??0CCodecBuffer_RGBA16@@QAE@KKKPAE@Z 004899c0 f   bitmap:CodecBuffer_RGBA16.obj
 0001:00088a20       ??1CCodecBuffer_RGBA16@@UAE@XZ 00489a20 f   bitmap:CodecBuffer_RGBA16.obj
 0001:00088a30       ?Copy@CCodecBuffer_RGBA16@@UAEXAAVCCodecBuffer@@@Z 00489a30 f   bitmap:CodecBuffer_RGBA16.obj
 0001:00088b10       ?WriteBlock@CCodecBuffer_RGBA16@@MAE_NKKEEQAGK@Z 00489b10 f   bitmap:CodecBuffer_RGBA16.obj
 0001:00088bb0       ?ReadBlockA@CCodecBuffer_RGBA16@@UAE_NKKEEQAG@Z 00489bb0 f   bitmap:CodecBuffer_RGBA16.obj
 0001:00088be0       ?ReadBlockR@CCodecBuffer_RGBA16@@UAE_NKKEEQAG@Z 00489be0 f   bitmap:CodecBuffer_RGBA16.obj
 0001:00088c10       ?ReadBlockG@CCodecBuffer_RGBA16@@UAE_NKKEEQAG@Z 00489c10 f   bitmap:CodecBuffer_RGBA16.obj
 0001:00088c40       ?ReadBlockB@CCodecBuffer_RGBA16@@UAE_NKKEEQAG@Z 00489c40 f   bitmap:CodecBuffer_RGBA16.obj
 0001:00088c70       ?WriteBlockA@CCodecBuffer_RGBA16@@UAE_NKKEEQAG@Z 00489c70 f   bitmap:CodecBuffer_RGBA16.obj
 0001:00088ca0       ?WriteBlockR@CCodecBuffer_RGBA16@@UAE_NKKEEQAG@Z 00489ca0 f   bitmap:CodecBuffer_RGBA16.obj
 0001:00088cd0       ?WriteBlockG@CCodecBuffer_RGBA16@@UAE_NKKEEQAG@Z 00489cd0 f   bitmap:CodecBuffer_RGBA16.obj
 0001:00088d00       ?WriteBlockB@CCodecBuffer_RGBA16@@UAE_NKKEEQAG@Z 00489d00 f   bitmap:CodecBuffer_RGBA16.obj
 0001:00088d30       ?WriteBlockRGBA@CCodecBuffer_RGBA16@@UAE_NKKEEQAG@Z 00489d30 f   bitmap:CodecBuffer_RGBA16.obj
 0001:00088dd0       ?ReadBlock@CCodecBuffer_RGBA16@@MAE_NKKEEQAGK@Z 00489dd0 f   bitmap:CodecBuffer_RGBA16.obj
 0001:00088f10       ?ReadBlockRGBA@CCodecBuffer_RGBA16@@UAE_NKKEEQAG@Z 00489f10 f   bitmap:CodecBuffer_RGBA16.obj
 0001:00089050       ?GetBufferType@CCodecBuffer_RGBA16@@UBE?BW4_CodecBufferType@@XZ 0048a050 f i bitmap:CodecBuffer_RGBA16.obj
 0001:00089060       ??$PadBlock@G@@YAXKEEQAG@Z 0048a060 f i bitmap:CodecBuffer_RGBA16.obj
 0001:00089060       ??$PadBlock@Vhalf@@@@YAXKEEQAVhalf@@@Z 0048a060 f i bitmap:CodecBuffer_RGBA16F.obj
 0001:000890b0       ??_GCCodecBuffer_RGBA16@@UAEPAXI@Z 0048a0b0 f i bitmap:CodecBuffer_RGBA16.obj
 0001:000890b0       ??_ECCodecBuffer_RGBA16@@UAEPAXI@Z 0048a0b0 f i bitmap:CodecBuffer_RGBA16.obj
 0001:000890e0       ??0CCodecBuffer_RGBA2101010@@QAE@KKKPAE@Z 0048a0e0 f   bitmap:CodecBuffer_RGBA2101010.obj
 0001:00089140       ??1CCodecBuffer_RGBA2101010@@UAE@XZ 0048a140 f   bitmap:CodecBuffer_RGBA2101010.obj
 0001:00089150       ?Copy@CCodecBuffer_RGBA2101010@@UAEXAAVCCodecBuffer@@@Z 0048a150 f   bitmap:CodecBuffer_RGBA2101010.obj
 0001:00089210       ?WriteBlock@CCodecBuffer_RGBA2101010@@MAE_NKKEEQAGKK@Z 0048a210 f   bitmap:CodecBuffer_RGBA2101010.obj
 0001:000892d0       ?ReadBlockA@CCodecBuffer_RGBA2101010@@UAE_NKKEEQAG@Z 0048a2d0 f   bitmap:CodecBuffer_RGBA2101010.obj
 0001:00089300       ?ReadBlockR@CCodecBuffer_RGBA2101010@@UAE_NKKEEQAG@Z 0048a300 f   bitmap:CodecBuffer_RGBA2101010.obj
 0001:00089330       ?ReadBlockG@CCodecBuffer_RGBA2101010@@UAE_NKKEEQAG@Z 0048a330 f   bitmap:CodecBuffer_RGBA2101010.obj
 0001:00089360       ?ReadBlockB@CCodecBuffer_RGBA2101010@@UAE_NKKEEQAG@Z 0048a360 f   bitmap:CodecBuffer_RGBA2101010.obj
 0001:00089390       ?WriteBlockA@CCodecBuffer_RGBA2101010@@UAE_NKKEEQAG@Z 0048a390 f   bitmap:CodecBuffer_RGBA2101010.obj
 0001:000893c0       ?WriteBlockR@CCodecBuffer_RGBA2101010@@UAE_NKKEEQAG@Z 0048a3c0 f   bitmap:CodecBuffer_RGBA2101010.obj
 0001:000893f0       ?WriteBlockG@CCodecBuffer_RGBA2101010@@UAE_NKKEEQAG@Z 0048a3f0 f   bitmap:CodecBuffer_RGBA2101010.obj
 0001:00089420       ?WriteBlockB@CCodecBuffer_RGBA2101010@@UAE_NKKEEQAG@Z 0048a420 f   bitmap:CodecBuffer_RGBA2101010.obj
 0001:00089450       ?WriteBlockRGBA@CCodecBuffer_RGBA2101010@@UAE_NKKEEQAK@Z 0048a450 f   bitmap:CodecBuffer_RGBA2101010.obj
 0001:00089510       ?WriteBlockRGBA@CCodecBuffer_RGBA2101010@@UAE_NKKEEQAG@Z 0048a510 f   bitmap:CodecBuffer_RGBA2101010.obj
 0001:00089610       ?ReadBlock@CCodecBuffer_RGBA2101010@@MAE_NKKEEQAGKK@Z 0048a610 f   bitmap:CodecBuffer_RGBA2101010.obj
 0001:00089760       ?ReadBlockRGBA@CCodecBuffer_RGBA2101010@@UAE_NKKEEQAK@Z 0048a760 f   bitmap:CodecBuffer_RGBA2101010.obj
 0001:000898a0       ?ReadBlockRGBA@CCodecBuffer_RGBA2101010@@UAE_NKKEEQAG@Z 0048a8a0 f   bitmap:CodecBuffer_RGBA2101010.obj
 0001:00089a70       ?GetBufferType@CCodecBuffer_RGBA2101010@@UBE?BW4_CodecBufferType@@XZ 0048aa70 f i bitmap:CodecBuffer_RGBA2101010.obj
 0001:00089a80       ??_ECCodecBuffer_RGBA2101010@@UAEPAXI@Z 0048aa80 f i bitmap:CodecBuffer_RGBA2101010.obj
 0001:00089a80       ??_GCCodecBuffer_RGBA2101010@@UAEPAXI@Z 0048aa80 f i bitmap:CodecBuffer_RGBA2101010.obj
 0001:00089ab0       ??0CCodecBuffer_RGBA8888@@QAE@KKKPAE@Z 0048aab0 f   bitmap:CodecBuffer_RGBA8888.obj
 0001:00089b10       ??1CCodecBuffer_RGBA8888@@UAE@XZ 0048ab10 f   bitmap:CodecBuffer_RGBA8888.obj
 0001:00089b20       ?Copy@CCodecBuffer_RGBA8888@@UAEXAAVCCodecBuffer@@@Z 0048ab20 f   bitmap:CodecBuffer_RGBA8888.obj
 0001:00089be0       ?WriteBlock@CCodecBuffer_RGBA8888@@MAE_NKKEEQAEK@Z 0048abe0 f   bitmap:CodecBuffer_RGBA8888.obj
 0001:00089ca0       ?ReadBlockA@CCodecBuffer_RGBA8888@@UAE_NKKEEQAE@Z 0048aca0 f   bitmap:CodecBuffer_RGBA8888.obj
 0001:00089cd0       ?ReadBlockR@CCodecBuffer_RGBA8888@@UAE_NKKEEQAE@Z 0048acd0 f   bitmap:CodecBuffer_RGBA8888.obj
 0001:00089d00       ?ReadBlockG@CCodecBuffer_RGBA8888@@UAE_NKKEEQAE@Z 0048ad00 f   bitmap:CodecBuffer_RGBA8888.obj
 0001:00089d30       ?ReadBlockB@CCodecBuffer_RGBA8888@@UAE_NKKEEQAE@Z 0048ad30 f   bitmap:CodecBuffer_RGBA8888.obj
 0001:00089d60       ?WriteBlockA@CCodecBuffer_RGBA8888@@UAE_NKKEEQAE@Z 0048ad60 f   bitmap:CodecBuffer_RGBA8888.obj
 0001:00089d90       ?WriteBlockR@CCodecBuffer_RGBA8888@@UAE_NKKEEQAE@Z 0048ad90 f   bitmap:CodecBuffer_RGBA8888.obj
 0001:00089dc0       ?WriteBlockG@CCodecBuffer_RGBA8888@@UAE_NKKEEQAE@Z 0048adc0 f   bitmap:CodecBuffer_RGBA8888.obj
 0001:00089df0       ?WriteBlockB@CCodecBuffer_RGBA8888@@UAE_NKKEEQAE@Z 0048adf0 f   bitmap:CodecBuffer_RGBA8888.obj
 0001:00089e20       ?WriteBlockRGBA@CCodecBuffer_RGBA8888@@UAE_NKKEEQAK@Z 0048ae20 f   bitmap:CodecBuffer_RGBA8888.obj
 0001:00089ee0       ?ReadBlock@CCodecBuffer_RGBA8888@@MAE_NKKEEQAEK@Z 0048aee0 f   bitmap:CodecBuffer_RGBA8888.obj
 0001:0008a030       ?ReadBlockRGBA@CCodecBuffer_RGBA8888@@UAE_NKKEEQAK@Z 0048b030 f   bitmap:CodecBuffer_RGBA8888.obj
 0001:0008a170       ?GetBufferType@CCodecBuffer_RGBA8888@@UBE?BW4_CodecBufferType@@XZ 0048b170 f i bitmap:CodecBuffer_RGBA8888.obj
 0001:0008a170       ?GetBlockHeight@CCodec@ATI_Compress@@UAEKXZ 0048b170 f i bitmap:Codec.obj
 0001:0008a170       ?do_max_length@codecvt_base@std@@MBEHXZ 0048b170 f i chunkfile.obj
 0001:0008a170       ?do_encoding@codecvt_base@std@@MBEHXZ 0048b170 f i chunkfile.obj
 0001:0008a180       ??$PadLine@E@@YAXKEQAE@Z   0048b180 f i bitmap:CodecBuffer_RGBA8888.obj
 0001:0008a1c0       ??$PadBlock@E@@YAXKEEQAE@Z 0048b1c0 f i bitmap:CodecBuffer_RGBA8888.obj
 0001:0008a210       ??_GCCodecBuffer_RGBA8888@@UAEPAXI@Z 0048b210 f i bitmap:CodecBuffer_RGBA8888.obj
 0001:0008a210       ??_ECCodecBuffer_RGBA8888@@UAEPAXI@Z 0048b210 f i bitmap:CodecBuffer_RGBA8888.obj
 0001:0008a240       ??0CCodec_DXTC@@QAE@W4_CodecType@@@Z 0048b240 f   bitmap:Codec_DXTC.obj
 0001:0008a2e0       ??1CCodec_DXTC@@UAE@XZ     0048b2e0 f   bitmap:Codec_DXTC.obj
 0001:0008a2f0       ?SetParameter@CCodec_DXTC@@UAE_NPBDK@Z 0048b2f0 f   bitmap:Codec_DXTC.obj
 0001:0008a3f0       ?GetParameter@CCodec_DXTC@@UAE_NPBDAAK@Z 0048b3f0 f   bitmap:Codec_DXTC.obj
 0001:0008a4e0       ?SetParameter@CCodec_DXTC@@UAE_NPBDM@Z 0048b4e0 f   bitmap:Codec_DXTC.obj
 0001:0008a590       ?GetParameter@CCodec_DXTC@@UAE_NPBDAAM@Z 0048b590 f   bitmap:Codec_DXTC.obj
 0001:0008a640       ??_ECCodec_DXTC@@UAEPAXI@Z 0048b640 f i bitmap:Codec_DXTC.obj
 0001:0008a640       ??_GCCodec_DXTC@@UAEPAXI@Z 0048b640 f i bitmap:Codec_DXTC.obj
 0001:0008a670       ??0CCodec_Block_4x4@@QAE@W4_CodecType@@@Z 0048b670 f   bitmap:Codec_Block_4x4.obj
 0001:0008a690       ??1CCodec_Block_4x4@@UAE@XZ 0048b690 f   bitmap:Codec_Block_4x4.obj
 0001:0008a6a0       ?CreateBuffer@CCodec_Block_4x4@@UBEPAVCCodecBuffer@@KKKPAE@Z 0048b6a0 f   bitmap:Codec_Block_4x4.obj
 0001:0008a6d0       ??_ECCodec_Block_4x4@@UAEPAXI@Z 0048b6d0 f i bitmap:Codec_Block_4x4.obj
 0001:0008a6d0       ??_GCCodec_Block_4x4@@UAEPAXI@Z 0048b6d0 f i bitmap:Codec_Block_4x4.obj
 0001:0008a700       ?EncodeAlphaBlock@CCodec_DXTC@@IAEXQAKQAE1@Z 0048b700 f   bitmap:Codec_DXTC_Alpha.obj
 0001:0008a860       ?CompressExplicitAlphaBlock@CCodec_DXTC@@MAE?AW4_CODECError@@QAEQAK@Z 0048b860 f   bitmap:Codec_DXTC_Alpha.obj
 0001:0008a9f0       ?CompressExplicitAlphaBlock@CCodec_DXTC@@MAE?AW4_CODECError@@QAMQAK@Z 0048b9f0 f   bitmap:Codec_DXTC_Alpha.obj
 0001:0008aa90       ?DecompressExplicitAlphaBlock@CCodec_DXTC@@MAEXQAEQAK@Z 0048ba90 f   bitmap:Codec_DXTC_Alpha.obj
 0001:0008aad0       ?DecompressExplicitAlphaBlock@CCodec_DXTC@@MAEXQAMQAK@Z 0048bad0 f   bitmap:Codec_DXTC_Alpha.obj
 0001:0008aca0       ?GetCompressedAlphaRamp@CCodec_DXTC@@IAEXQAEQAK@Z 0048bca0 f   bitmap:Codec_DXTC_Alpha.obj
 0001:0008ae10       ?GetCompressedAlphaRamp@CCodec_DXTC@@IAEXQAMQAK@Z 0048be10 f   bitmap:Codec_DXTC_Alpha.obj
 0001:0008af30       ?CompressAlphaBlock@CCodec_DXTC@@MAE?AW4_CODECError@@QAEQAK@Z 0048bf30 f   bitmap:Codec_DXTC_Alpha.obj
 0001:0008b000       ?CompressAlphaBlock@CCodec_DXTC@@MAE?AW4_CODECError@@QAMQAK@Z 0048c000 f   bitmap:Codec_DXTC_Alpha.obj
 0001:0008b0d0       ?DecompressAlphaBlock@CCodec_DXTC@@MAEXQAEQAK@Z 0048c0d0 f   bitmap:Codec_DXTC_Alpha.obj
 0001:0008b270       ?DecompressAlphaBlock@CCodec_DXTC@@MAEXQAMQAK@Z 0048c270 f   bitmap:Codec_DXTC_Alpha.obj
 0001:0008b510       ?CompressRGBABlock@CCodec_DXTC@@MAE?AW4_CODECError@@QAK0PAM@Z 0048c510 f   bitmap:Codec_DXTC_RGBA.obj
 0001:0008b580       ?DecompressRGBABlock@CCodec_DXTC@@MAEXQAK0@Z 0048c580 f   bitmap:Codec_DXTC_RGBA.obj
 0001:0008b640       ?CompressRGBABlock_ExplicitAlpha@CCodec_DXTC@@MAE?AW4_CODECError@@QAK0PAM@Z 0048c640 f   bitmap:Codec_DXTC_RGBA.obj
 0001:0008b6b0       ?DecompressRGBABlock_ExplicitAlpha@CCodec_DXTC@@MAEXQAK0@Z 0048c6b0 f   bitmap:Codec_DXTC_RGBA.obj
 0001:0008b770       ?CompressRGBBlock@CCodec_DXTC@@MAE?AW4_CODECError@@QAK0PAM_N2E@Z 0048c770 f   bitmap:Codec_DXTC_RGBA.obj
 0001:0008ba30       ?CompressRGBABlock@CCodec_DXTC@@MAE?AW4_CODECError@@QAMQAKPAM@Z 0048ca30 f   bitmap:Codec_DXTC_RGBA.obj
 0001:0008bad0       ?CompressRGBABlock_ExplicitAlpha@CCodec_DXTC@@MAE?AW4_CODECError@@QAMQAKPAM@Z 0048cad0 f   bitmap:Codec_DXTC_RGBA.obj
 0001:0008bb70       ?CompressRGBBlock@CCodec_DXTC@@MAE?AW4_CODECError@@QAMQAKPAM_N3M@Z 0048cb70 f   bitmap:Codec_DXTC_RGBA.obj
 0001:0008be30       ?DecompressRGBABlock@CCodec_DXTC@@MAEXQAMQAK@Z 0048ce30 f   bitmap:Codec_DXTC_RGBA.obj
 0001:0008beb0       ?DecompressRGBABlock_ExplicitAlpha@CCodec_DXTC@@MAEXQAMQAK@Z 0048ceb0 f   bitmap:Codec_DXTC_RGBA.obj
 0001:0008bf30       ?DecompressRGBBlock@CCodec_DXTC@@MAEXQAK0_N@Z 0048cf30 f   bitmap:Codec_DXTC_RGBA.obj
 0001:0008c170       ?DecompressRGBBlock@CCodec_DXTC@@MAEXQAMQAK_N@Z 0048d170 f   bitmap:Codec_DXTC_RGBA.obj
 0001:0008c4e0       ?CalculateColourWeightings@CCodec_DXTC@@IAEPAMQAK@Z 0048d4e0 f   bitmap:Codec_DXTC_RGBA.obj
 0001:0008c8c0       ?CalculateColourWeightings@CCodec_DXTC@@IAEPAMQAM@Z 0048d8c0 f   bitmap:Codec_DXTC_RGBA.obj
 0001:0008cbf0       ??0CCodec_DXT5_Swizzled@@QAE@W4_CodecType@@@Z 0048dbf0 f   bitmap:Codec_DXT5_Swizzled.obj
 0001:0008cc10       ??1CCodec_DXT5_Swizzled@@UAE@XZ 0048dc10 f   bitmap:Codec_DXT5_Swizzled.obj
 0001:0008cc20       ?Compress@CCodec_DXT5_Swizzled@@UAE?AW4_CODECError@@AAVCCodecBuffer@@0P6A_NMKK@ZKK@Z 0048dc20 f   bitmap:Codec_DXT5_Swizzled.obj
 0001:0008cdf0       ?Decompress@CCodec_DXT5_Swizzled@@UAE?AW4_CODECError@@AAVCCodecBuffer@@0@Z 0048ddf0 f   bitmap:Codec_DXT5_Swizzled.obj
 0001:0008cf30       ??_ECCodec_DXT5_Swizzled@@UAEPAXI@Z 0048df30 f i bitmap:Codec_DXT5_Swizzled.obj
 0001:0008cf30       ??_GCCodec_DXT5_Swizzled@@UAEPAXI@Z 0048df30 f i bitmap:Codec_DXT5_Swizzled.obj
 0001:0008cf60       ??0CCodec_Block@@QAE@W4_CodecType@@@Z 0048df60 f   bitmap:Codec_Block.obj
 0001:0008cf80       ??1CCodec_Block@@UAE@XZ    0048df80 f   bitmap:Codec_Block.obj
 0001:0008cf90       ??_ECCodec_Block@@UAEPAXI@Z 0048df90 f i bitmap:Codec_Block.obj
 0001:0008cf90       ??_GCCodec_Block@@UAEPAXI@Z 0048df90 f i bitmap:Codec_Block.obj
 0001:0008cfc0       ?ConstructColor@@YAKEEEEEE@Z 0048dfc0 f   bitmap:ATiXCodec.obj
 0001:0008ea60       ?CompBlock1X@@YAMPAMGQAEPAEE_N3HH3@Z 0048fa60 f   bitmap:ATiXCodec.obj
 0001:0008eb40       ?CompBlock1X@@YAMPAEGQAE0E_N2HH2@Z 0048fb40 f   bitmap:ATiXCodec.obj
 0001:0008eeb0       ?Clstr@@YAMQAKGQAY01EPAEEPAM_NEEEE@Z 0048feb0 f   bitmap:ATiXCodec.obj
 0001:0008f270       ?Clstr@@YAMQAMGQAY01EPAEEPAM_NMEEE@Z 00490270 f   bitmap:ATiXCodec.obj
 0001:00093870       ?CompressRGBBlockXSSE2@@YAXQAY01MQAY03MQAMHE_NEPAMEEE@Z 00494870 f   bitmap:ATiXCodec.obj
 0001:00094a30       ?CompRGBBlock@@YAMPAMGEEEQAY01EPAEE_N3E03M@Z 00495a30 f   bitmap:ATiXCodec.obj
 0001:00094fb0       ?CompRGBBlock@@YAMPAKGEEEQAY01EPAEE_N3EPAM3E@Z 00495fb0 f   bitmap:ATiXCodec.obj
 0001:000952f0       ?MkWkRmpPts@@YAXPA_NQAY01M1EEE@Z 004962f0 f i bitmap:ATiXCodec.obj
 0001:00095450       ?BldClrRmp@@YAXQAM0E@Z     00496450 f i bitmap:ATiXCodec.obj
 0001:00095566       __itoa                     00496566 f   LIBCMT:xtoa.obj
 0001:00095566       _itoa                      00496566 f   LIBCMT:xtoa.obj
 0001:00095590       __getextendedkeycode       00496590 f   LIBCMT:getch.obj
 0001:00095643       __getch_nolock             00496643 f   LIBCMT:getch.obj
 0001:0009571c       __getch                    0049671c f   LIBCMT:getch.obj
 0001:0009571c       _getch                     0049671c f   LIBCMT:getch.obj
 0001:0009575a       ?__ArrayUnwind@@YGXPAXIHP6EX0@Z@Z 0049675a f   LIBCMT:ehvecdtr.obj
 0001:000957b8       ??_M@YGXPAXIHP6EX0@Z@Z     004967b8 f   LIBCMT:ehvecdtr.obj
 0001:0009581b       ??_L@YGXPAXIHP6EX0@Z1@Z    0049681b f   LIBCMT:ehvecctr.obj
 0001:00095880       __ftol                     00496880 f   LIBCMT:_ftol_.obj
 0001:000958b0       __CIsqrt                   004968b0 f   LIBCMT:_sqrt_.obj
 0001:000958c4       _sqrt                      004968c4     LIBCMT:_sqrt_.obj
 0001:0009596a       __mbscmp_l                 0049696a f   LIBCMT:mbscmp.obj
 0001:00095a69       __mbscmp                   00496a69 f   LIBCMT:mbscmp.obj
 0001:00095a80       ___initconin               00496a80 f   LIBCMT:initconin.obj
 0001:00095a9f       ___termconin               00496a9f f   LIBCMT:initconin.obj
 0002:00000000       __imp__RegQueryValueExA@24 00499000     advapi32:ADVAPI32.dll
 0002:00000004       __imp__RegCloseKey@4       00499004     advapi32:ADVAPI32.dll
 0002:00000008       __imp__RegOpenKeyExA@20    00499008     advapi32:ADVAPI32.dll
 0002:0000000c       \177ADVAPI32_NULL_THUNK_DATA 0049900c     advapi32:ADVAPI32.dll
 0002:00000010       __imp__CreateFileA@28      00499010     kernel32:KERNEL32.dll
 0002:00000014       __imp__GetLocalTime@4      00499014     kernel32:KERNEL32.dll
 0002:00000018       __imp__GetLastError@0      00499018     kernel32:KERNEL32.dll
 0002:0000001c       __imp__SetFilePointer@16   0049901c     kernel32:KERNEL32.dll
 0002:00000020       __imp__ReadFile@20         00499020     kernel32:KERNEL32.dll
 0002:00000024       __imp__WriteFile@20        00499024     kernel32:KERNEL32.dll
 0002:00000028       __imp__DeleteFileA@4       00499028     kernel32:KERNEL32.dll
 0002:0000002c       __imp__CloseHandle@4       0049902c     kernel32:KERNEL32.dll
 0002:00000030       __imp__FlushFileBuffers@4  00499030     kernel32:KERNEL32.dll
 0002:00000034       __imp__GetConsoleScreenBufferInfo@8 00499034     kernel32:KERNEL32.dll
 0002:00000038       __imp__GetStdHandle@4      00499038     kernel32:KERNEL32.dll
 0002:0000003c       __imp__SetConsoleTextAttribute@8 0049903c     kernel32:KERNEL32.dll
 0002:00000040       __imp__GetProcessHeap@0    00499040     kernel32:KERNEL32.dll
 0002:00000044       __imp__GetCurrentProcess@0 00499044     kernel32:KERNEL32.dll
 0002:00000048       __imp__LeaveCriticalSection@4 00499048     kernel32:KERNEL32.dll
 0002:0000004c       __imp__OutputDebugStringA@4 0049904c     kernel32:KERNEL32.dll
 0002:00000050       __imp__EnterCriticalSection@4 00499050     kernel32:KERNEL32.dll
 0002:00000054       __imp__InitializeCriticalSection@4 00499054     kernel32:KERNEL32.dll
 0002:00000058       __imp__GetEnvironmentVariableA@12 00499058     kernel32:KERNEL32.dll
 0002:0000005c       __imp__GetModuleHandleA@4  0049905c     kernel32:KERNEL32.dll
 0002:00000060       __imp__SetPriorityClass@8  00499060     kernel32:KERNEL32.dll
 0002:00000064       __imp__GetSystemInfo@4     00499064     kernel32:KERNEL32.dll
 0002:00000068       __imp__SetThreadPriority@8 00499068     kernel32:KERNEL32.dll
 0002:0000006c       __imp__CreateThread@24     0049906c     kernel32:KERNEL32.dll
 0002:00000070       __imp__WaitForMultipleObjects@16 00499070     kernel32:KERNEL32.dll
 0002:00000074       __imp__SetUnhandledExceptionFilter@4 00499074     kernel32:KERNEL32.dll
 0002:00000078       __imp__HeapAlloc@12        00499078     kernel32:KERNEL32.dll
 0002:0000007c       __imp__VirtualQuery@12     0049907c     kernel32:KERNEL32.dll
 0002:00000080       __imp__TerminateProcess@8  00499080     kernel32:KERNEL32.dll
 0002:00000084       __imp__GetModuleFileNameA@12 00499084     kernel32:KERNEL32.dll
 0002:00000088       __imp__SetConsoleMode@8    00499088     kernel32:KERNEL32.dll
 0002:0000008c       __imp__ReadConsoleInputA@16 0049908c     kernel32:KERNEL32.dll
 0002:00000090       __imp__ResumeThread@4      00499090     kernel32:KERNEL32.dll
 0002:00000094       __imp__GetExitCodeThread@8 00499094     kernel32:KERNEL32.dll
 0002:00000098       __imp__CreateFileW@28      00499098     kernel32:KERNEL32.dll
 0002:0000009c       __imp__CreateProcessA@40   0049909c     kernel32:KERNEL32.dll
 0002:000000a0       __imp__WaitForSingleObject@8 004990a0     kernel32:KERNEL32.dll
 0002:000000a4       __imp__GetExitCodeProcess@8 004990a4     kernel32:KERNEL32.dll
 0002:000000a8       __imp__CompareStringW@24   004990a8     kernel32:KERNEL32.dll
 0002:000000ac       __imp__GetTimeZoneInformation@4 004990ac     kernel32:KERNEL32.dll
 0002:000000b0       __imp__HeapFree@12         004990b0     kernel32:KERNEL32.dll
 0002:000000b4       __imp__SetEndOfFile@4      004990b4     kernel32:KERNEL32.dll
 0002:000000b8       __imp__IsValidLocale@8     004990b8     kernel32:KERNEL32.dll
 0002:000000bc       __imp__EnumSystemLocalesA@8 004990bc     kernel32:KERNEL32.dll
 0002:000000c0       __imp__GetLocaleInfoA@16   004990c0     kernel32:KERNEL32.dll
 0002:000000c4       __imp__GetUserDefaultLCID@0 004990c4     kernel32:KERNEL32.dll
 0002:000000c8       __imp__WriteConsoleW@20    004990c8     kernel32:KERNEL32.dll
 0002:000000cc       __imp__SetStdHandle@8      004990cc     kernel32:KERNEL32.dll
 0002:000000d0       __imp__MultiByteToWideChar@24 004990d0     kernel32:KERNEL32.dll
 0002:000000d4       __imp__WideCharToMultiByte@32 004990d4     kernel32:KERNEL32.dll
 0002:000000d8       __imp__GetProcAddress@8    004990d8     kernel32:KERNEL32.dll
 0002:000000dc       __imp__LoadLibraryExA@12   004990dc     kernel32:KERNEL32.dll
 0002:000000e0       __imp__FreeLibrary@4       004990e0     kernel32:KERNEL32.dll
 0002:000000e4       __imp__EncodePointer@4     004990e4     kernel32:KERNEL32.dll
 0002:000000e8       __imp__DecodePointer@4     004990e8     kernel32:KERNEL32.dll
 0002:000000ec       __imp__RaiseException@16   004990ec     kernel32:KERNEL32.dll
 0002:000000f0       __imp__RtlUnwind@16        004990f0     kernel32:KERNEL32.dll
 0002:000000f4       __imp__GetModuleHandleW@4  004990f4     kernel32:KERNEL32.dll
 0002:000000f8       __imp__ExitProcess@4       004990f8     kernel32:KERNEL32.dll
 0002:000000fc       __imp__FindClose@4         004990fc     kernel32:KERNEL32.dll
 0002:00000100       __imp__FileTimeToSystemTime@8 00499100     kernel32:KERNEL32.dll
 0002:00000104       __imp__FileTimeToLocalFileTime@8 00499104     kernel32:KERNEL32.dll
 0002:00000108       __imp__FindFirstFileExA@24 00499108     kernel32:KERNEL32.dll
 0002:0000010c       __imp__GetDriveTypeW@4     0049910c     kernel32:KERNEL32.dll
 0002:00000110       __imp__GetFullPathNameA@16 00499110     kernel32:KERNEL32.dll
 0002:00000114       __imp__CreateDirectoryA@8  00499114     kernel32:KERNEL32.dll
 0002:00000118       __imp__FindNextFileA@8     00499118     kernel32:KERNEL32.dll
 0002:0000011c       __imp__GetFileAttributesA@4 0049911c     kernel32:KERNEL32.dll
 0002:00000120       __imp__SetEnvironmentVariableA@8 00499120     kernel32:KERNEL32.dll
 0002:00000124       __imp__GetCurrentDirectoryA@8 00499124     kernel32:KERNEL32.dll
 0002:00000128       __imp__SetCurrentDirectoryA@4 00499128     kernel32:KERNEL32.dll
 0002:0000012c       __imp__GetCommandLineA@0   0049912c     kernel32:KERNEL32.dll
 0002:00000130       __imp__HeapSetInformation@16 00499130     kernel32:KERNEL32.dll
 0002:00000134       __imp__IsProcessorFeaturePresent@4 00499134     kernel32:KERNEL32.dll
 0002:00000138       __imp__UnhandledExceptionFilter@4 00499138     kernel32:KERNEL32.dll
 0002:0000013c       __imp__IsDebuggerPresent@0 0049913c     kernel32:KERNEL32.dll
 0002:00000140       __imp__SetHandleCount@4    00499140     kernel32:KERNEL32.dll
 0002:00000144       __imp__InitializeCriticalSectionAndSpinCount@8 00499144     kernel32:KERNEL32.dll
 0002:00000148       __imp__GetFileType@4       00499148     kernel32:KERNEL32.dll
 0002:0000014c       __imp__GetStartupInfoW@4   0049914c     kernel32:KERNEL32.dll
 0002:00000150       __imp__DeleteCriticalSection@4 00499150     kernel32:KERNEL32.dll
 0002:00000154       __imp__TlsAlloc@0          00499154     kernel32:KERNEL32.dll
 0002:00000158       __imp__TlsGetValue@4       00499158     kernel32:KERNEL32.dll
 0002:0000015c       __imp__TlsSetValue@8       0049915c     kernel32:KERNEL32.dll
 0002:00000160       __imp__TlsFree@4           00499160     kernel32:KERNEL32.dll
 0002:00000164       __imp__InterlockedIncrement@4 00499164     kernel32:KERNEL32.dll
 0002:00000168       __imp__SetLastError@4      00499168     kernel32:KERNEL32.dll
 0002:0000016c       __imp__GetCurrentThreadId@0 0049916c     kernel32:KERNEL32.dll
 0002:00000170       __imp__InterlockedDecrement@4 00499170     kernel32:KERNEL32.dll
 0002:00000174       __imp__GetModuleFileNameW@12 00499174     kernel32:KERNEL32.dll
 0002:00000178       __imp__GetLocaleInfoW@16   00499178     kernel32:KERNEL32.dll
 0002:0000017c       __imp__GetCPInfo@8         0049917c     kernel32:KERNEL32.dll
 0002:00000180       __imp__GetACP@0            00499180     kernel32:KERNEL32.dll
 0002:00000184       __imp__GetOEMCP@0          00499184     kernel32:KERNEL32.dll
 0002:00000188       __imp__IsValidCodePage@4   00499188     kernel32:KERNEL32.dll
 0002:0000018c       __imp__GetConsoleCP@0      0049918c     kernel32:KERNEL32.dll
 0002:00000190       __imp__GetConsoleMode@8    00499190     kernel32:KERNEL32.dll
 0002:00000194       __imp__LCMapStringW@24     00499194     kernel32:KERNEL32.dll
 0002:00000198       __imp__LoadLibraryW@4      00499198     kernel32:KERNEL32.dll
 0002:0000019c       __imp__GetCurrentProcessId@0 0049919c     kernel32:KERNEL32.dll
 0002:000001a0       __imp__GetCurrentDirectoryW@8 004991a0     kernel32:KERNEL32.dll
 0002:000001a4       __imp__SetEnvironmentVariableW@8 004991a4     kernel32:KERNEL32.dll
 0002:000001a8       __imp__FreeEnvironmentStringsW@4 004991a8     kernel32:KERNEL32.dll
 0002:000001ac       __imp__GetEnvironmentStringsW@0 004991ac     kernel32:KERNEL32.dll
 0002:000001b0       __imp__QueryPerformanceCounter@4 004991b0     kernel32:KERNEL32.dll
 0002:000001b4       __imp__GetTickCount@0      004991b4     kernel32:KERNEL32.dll
 0002:000001b8       __imp__GetSystemTimeAsFileTime@4 004991b8     kernel32:KERNEL32.dll
 0002:000001bc       __imp__GetStringTypeW@16   004991bc     kernel32:KERNEL32.dll
 0002:000001c0       \177KERNEL32_NULL_THUNK_DATA 004991c0     kernel32:KERNEL32.dll
 0002:000001c4       __imp__Msg                 004991c4     tier0:tier0.dll
 0002:000001c8       __imp__Error               004991c8     tier0:tier0.dll
 0002:000001cc       __imp__g_pMemAlloc         004991cc     tier0:tier0.dll
 0002:000001d0       __imp__GetCPUInformation   004991d0     tier0:tier0.dll
 0002:000001d4       __imp__WriteMiniDumpUsingExceptionInfo 004991d4     tier0:tier0.dll
 0002:000001d8       __imp__SpewOutputFunc      004991d8     tier0:tier0.dll
 0002:000001dc       __imp__GetSpewOutputColor  004991dc     tier0:tier0.dll
 0002:000001e0       __imp_?DevMsg@@YAXPBDZZ    004991e0     tier0:tier0.dll
 0002:000001e4       __imp__CommandLine_Tier0   004991e4     tier0:tier0.dll
 0002:000001e8       __imp__SpewActivate        004991e8     tier0:tier0.dll
 0002:000001ec       __imp__ColorSpewMessage    004991ec     tier0:tier0.dll
 0002:000001f0       __imp__AssertValidStringPtr 004991f0     tier0:tier0.dll
 0002:000001f4       __imp___AssertValidWritePtr 004991f4     tier0:tier0.dll
 0002:000001f8       __imp_?UnlockRead@CThreadSpinRWLock@@QAEXXZ 004991f8     tier0:tier0.dll
 0002:000001fc       __imp_?LockForRead@CThreadSpinRWLock@@QAEXXZ 004991fc     tier0:tier0.dll
 0002:00000200       __imp_?UnlockWrite@CThreadSpinRWLock@@QAEXXZ 00499200     tier0:tier0.dll
 0002:00000204       __imp_?LockForWrite@CThreadSpinRWLock@@QAEXXZ 00499204     tier0:tier0.dll
 0002:00000208       __imp_??0CThreadSpinRWLock@@QAE@XZ 00499208     tier0:tier0.dll
 0002:0000020c       __imp__DevMsg              0049920c     tier0:tier0.dll
 0002:00000210       __imp__ThreadWaitForObjects 00499210     tier0:tier0.dll
 0002:00000214       __imp__Plat_IsInDebugSession 00499214     tier0:tier0.dll
 0002:00000218       __imp__ReleaseThreadHandle 00499218     tier0:tier0.dll
 0002:0000021c       __imp__CreateSimpleThread  0049921c     tier0:tier0.dll
 0002:00000220       __imp__GetThreadedLoadLibraryFunc 00499220     tier0:tier0.dll
 0002:00000224       __imp__MemFreeScratch      00499224     tier0:tier0.dll
 0002:00000228       __imp__MemAllocScratch     00499228     tier0:tier0.dll
 0002:0000022c       __imp__Plat_FloatTime      0049922c     tier0:tier0.dll
 0002:00000230       __imp__Warning             00499230     tier0:tier0.dll
 0002:00000234       \177tier0_NULL_THUNK_DATA  00499234     tier0:tier0.dll
 0002:00000238       __imp__RandomSeed          00499238     vstdlib:vstdlib.dll
 0002:0000023c       __imp__KeyValuesSystem     0049923c     vstdlib:vstdlib.dll
 0002:00000240       __imp__RandomGaussianFloat 00499240     vstdlib:vstdlib.dll
 0002:00000244       \177vstdlib_NULL_THUNK_DATA 00499244     vstdlib:vstdlib.dll
 0002:00000248       ___xc_a                    00499248     LIBCMT:crt0init.obj
 0002:0000048c       ___xc_z                    0049948c     LIBCMT:crt0init.obj
 0002:00000490       ___xi_a                    00499490     LIBCMT:crt0init.obj
 0002:000004ac       ___xi_z                    004994ac     LIBCMT:crt0init.obj
 0002:000004b0       ___xp_a                    004994b0     LIBCMT:crt0init.obj
 0002:000004c4       ___xp_z                    004994c4     LIBCMT:crt0init.obj
 0002:000004c8       ___xt_a                    004994c8     LIBCMT:crt0init.obj
 0002:000004cc       ___xt_z                    004994cc     LIBCMT:crt0init.obj
 0002:000004ec       __real@00000000            004994ec     brushbsp.obj
 0002:000004f0       ??_C@_01NOFIACDB@w?$AA@    004994f0     brushbsp.obj
 0002:000004f4       ??_C@_01EEMJAFIK@?6?$AA@   004994f4     brushbsp.obj
 0002:000004f8       __real@3eaaaaab            004994f8     brushbsp.obj
 0002:00000500       __real@3f50624dd2f1a9fc    00499500     brushbsp.obj
 0002:00000508       ??_C@_0N@OCBJIIGD@bad?5planenum?$AA@ 00499508     brushbsp.obj
 0002:00000518       __real@bf800000            00499518     brushbsp.obj
 0002:0000051c       __real@3f800000            0049951c     brushbsp.obj
 0002:00000520       __real@bfb999999999999a    00499520     brushbsp.obj
 0002:00000528       __real@3fb999999999999a    00499528     brushbsp.obj
 0002:00000530       __real@3fc999999999999a    00499530     brushbsp.obj
 0002:00000538       __real@46800000            00499538     brushbsp.obj
 0002:0000053c       __real@c6800000            0049953c     brushbsp.obj
 0002:00000540       ??_C@_0N@LMFHMMBE@Tried?5parent?$AA@ 00499540     brushbsp.obj
 0002:00000550       ??_C@_0BJ@MIBLAJDN@split?5not?5on?5both?5sides?6?$AA@ 00499550     brushbsp.obj
 0002:0000056c       ??_C@_0BF@HEKJJEMO@split?5removed?5brush?6?$AA@ 0049956c     brushbsp.obj
 0002:00000584       ??_C@_0BI@PNMADFKF@bogus?5brush?5after?5clip?6?$AA@ 00499584     brushbsp.obj
 0002:0000059c       ??_C@_0BH@FEMFMIHD@WARNING?3?5huge?5winding?6?$AA@ 0049959c     brushbsp.obj
 0002:000005b4       __real@bf000000            004995b4     brushbsp.obj
 0002:000005b8       ??_C@_0BJ@OFPPOJGD@PSIDE_FACING?5with?5splits?$AA@ 004995b8     brushbsp.obj
 0002:000005d4       ??_C@_0L@OGLHABIK@?$CF5i?5leafs?6?$AA@ 004995d4     brushbsp.obj
 0002:000005e0       ??_C@_0BC@MKFJDBDJ@?$CF5i?5nonvis?5nodes?6?$AA@ 004995e0     brushbsp.obj
 0002:000005f4       ??_C@_0BD@NJLKNHAJ@?$CF5i?5visible?5nodes?6?$AA@ 004995f4     brushbsp.obj
 0002:00000608       ??_C@_0BG@KLEEPBIP@?$CF5i?5nonvisible?5faces?6?$AA@ 00499608     brushbsp.obj
 0002:00000620       ??_C@_0BD@GCHPCEAO@?$CF5i?5visible?5faces?6?$AA@ 00499620     brushbsp.obj
 0002:00000634       ??_C@_0N@BAHABBPA@?$CF5i?5brushes?6?$AA@ 00499634     brushbsp.obj
 0002:00000644       ??_C@_0BP@JDOEDEKN@Brush?5?$CFi?3?5WARNING?0?5microbrush?6?$AA@ 00499644     brushbsp.obj
 0002:00000664       ??_C@_0BC@FBAFDPHA@?9?9?9?5BrushBSP?5?9?9?9?6?$AA@ 00499664     brushbsp.obj
 0002:00000678       __real@3a83126f            00499678     collisionutils.obj
 0002:00000680       __real@3eb0c6f7a0b5ed8d    00499680     collisionutils.obj
 0002:00000688       __real@3f000000            00499688     collisionutils.obj
 0002:0000068c       __real@40800000            0049968c     collisionutils.obj
 0002:00000690       __real@40000000            00499690     collisionutils.obj
 0002:00000698       __real@0000000000000000    00499698     collisionutils.obj
 0002:000006a0       __real@3ee4f8b588e368f1    004996a0     collisionutils.obj
 0002:000006a8       __real@3ff0000000000000    004996a8     collisionutils.obj
 0002:000006b0       __real@41200000            004996b0     collisionutils.obj
 0002:000006b4       __real@c7c34f80            004996b4     collisionutils.obj
 0002:000006b8       __real@4010000000000000    004996b8     collisionutils.obj
 0002:000006c0       ??_C@_0BB@GFLDGGJL@CONTENTS_HITBOX?5?$AA@ 004996c0     csg.obj
 0002:000006d4       ??_C@_0BB@DMKKLEIP@CONTENTS_LADDER?5?$AA@ 004996d4     csg.obj
 0002:000006e8       ??_C@_0BG@GBNDOMKC@CONTENTS_TRANSLUCENT?5?$AA@ 004996e8     csg.obj
 0002:00000700       ??_C@_0BB@IMFIDHAA@CONTENTS_DETAIL?5?$AA@ 00499700     csg.obj
 0002:00000714       ??_C@_0BB@GJONNPJJ@CONTENTS_DEBRIS?5?$AA@ 00499714     csg.obj
 0002:00000728       ??_C@_0BC@JHNGBGJB@CONTENTS_MONSTER?5?$AA@ 00499728     csg.obj
 0002:0000073c       ??_C@_0BB@EAMHLJJN@CONTENTS_ORIGIN?5?$AA@ 0049973c     csg.obj
 0002:00000750       ??_C@_0BH@MCAJFAKC@CONTENTS_CURRENT_DOWN?5?$AA@ 00499750     csg.obj
 0002:00000768       ??_C@_0BF@BKFOCONM@CONTENTS_CURRENT_UP?5?$AA@ 00499768     csg.obj
 0002:00000780       ??_C@_0BG@ILDOCDOE@CONTENTS_CURRENT_270?5?$AA@ 00499780     csg.obj
 0002:00000798       ??_C@_0BG@JEPNEJGC@CONTENTS_CURRENT_180?5?$AA@ 00499798     csg.obj
 0002:000007b0       ??_C@_0BF@CDHJKNEH@CONTENTS_CURRENT_90?5?$AA@ 004997b0     csg.obj
 0002:000007c8       ??_C@_0BE@NOLHPBOB@CONTENTS_CURRENT_0?5?$AA@ 004997c8     csg.obj
 0002:000007dc       ??_C@_0BG@KIBJOIGE@CONTENTS_MONSTERCLIP?5?$AA@ 004997dc     csg.obj
 0002:000007f4       ??_C@_0BF@HJINIOEE@CONTENTS_PLAYERCLIP?5?$AA@ 004997f4     csg.obj
 0002:0000080c       ??_C@_0BF@HGIDDNMO@CONTENTS_AREAPORTAL?5?$AA@ 0049980c     csg.obj
 0002:00000824       ??_C@_0BD@KGKKLEFD@CONTENTS_MOVEABLE?5?$AA@ 00499824     csg.obj
 0002:00000838       ??_C@_0BI@HIDMIENL@CONTENTS_TESTFOGVOLUME?5?$AA@ 00499838     csg.obj
 0002:00000850       ??_C@_0BB@MCDBEPDN@CONTENTS_OPAQUE?5?$AA@ 00499850     csg.obj
 0002:00000864       ??_C@_0BD@HKLNCBAK@CONTENTS_BLOCKLOS?5?$AA@ 00499864     csg.obj
 0002:00000878       ??_C@_0BA@CLNLOILO@CONTENTS_WATER?5?$AA@ 00499878     csg.obj
 0002:00000888       ??_C@_0BA@CHKHBBFK@CONTENTS_SLIME?5?$AA@ 00499888     csg.obj
 0002:00000898       ??_C@_0BA@JAILJJLI@CONTENTS_GRATE?5?$AA@ 00499898     csg.obj
 0002:000008a8       ??_C@_0O@KGHFKPEC@CONTENTS_AUX?5?$AA@ 004998a8     csg.obj
 0002:000008b8       ??_C@_0BB@OGHJNGHM@CONTENTS_WINDOW?5?$AA@ 004998b8     csg.obj
 0002:000008cc       ??_C@_0BA@OHHDBBOE@CONTENTS_SOLID?5?$AA@ 004998cc     csg.obj
 0002:000008dc       ??_C@_02DKCKIIND@?$CFs?$AA@ 004998dc     csg.obj
 0002:000008e0       ??_C@_0BE@HPDKFHIA@output?5brushes?3?5?$CFi?6?$AA@ 004998e0     csg.obj
 0002:000008f4       ??_C@_0BG@FLNBNMPG@original?5brushes?3?5?$CFi?6?$AA@ 004998f4     csg.obj
 0002:0000090c       ??_C@_0BH@CNPBDCHJ@?9?9?9?9?5ChopBrushes?5?9?9?9?9?6?$AA@ 0049990c     csg.obj
 0002:00000924       ??_C@_0CA@FMJIPOPP@Found?5no?5matching?5plane?5for?5?$CFs?6?$AA@ 00499924     csg.obj
 0002:00000944       ??_C@_02KGHIDFGE@?$HN?6?$AA@ 00499944     csg.obj
 0002:00000948       ??_C@_02KCPFEJNG@?$HL?6?$AA@ 00499948     csg.obj
 0002:0000094b       ??_C@_00CNPNBAHC@?$AA@     0049994b     cubemap.obj
 0002:0000094c       ??_C@_0BC@KFGKDDMG@$fallbackmaterial?$AA@ 0049994c     cubemap.obj
 0002:00000960       ??_C@_0P@OHFFMJJM@$crackmaterial?$AA@ 00499960     cubemap.obj
 0002:00000970       ??_C@_0BA@OOJNCPMH@$bottommaterial?$AA@ 00499970     cubemap.obj
 0002:00000980       ??_C@_07OAIDGMCI@skyname?$AA@ 00499980     cubemap.obj
 0002:00000988       ??_C@_0L@BIFLFHPF@worldspawn?$AA@ 00499988     cubemap.obj
 0002:00000994       ??_C@_09CNJINBGN@classname?$AA@ 00499994     cubemap.obj
 0002:000009a0       ??_C@_0EI@KOELCBDO@Material?5?$CFs?5is?5depending?5on?5itse@ 004999a0     cubemap.obj
 0002:000009e8       ??_C@_08DJCCKPNK@?4hdr?4vtf?$AA@ 004999e8     cubemap.obj
 0002:000009f4       ??_C@_04GJCHGKGK@?4vtf?$AA@ 004999f4     cubemap.obj
 0002:000009fc       ??_C@_0DM@NGPBHADK@Generated?5env_cubemap?5patch?5name@ 004999fc     cubemap.obj
 0002:00000a38       ??_C@_0BF@KEBGBCLN@maps?1?$CFs?1?$CFs?$CFs?$CFd_?$CFd_?$CFd?$AA@ 00499a38     cubemap.obj
 0002:00000a50       ??_C@_01IDAFKMJL@_?$AA@    00499a50     cubemap.obj
 0002:00000a54       ??_C@_07NFGFKDAC@$envmap?$AA@ 00499a54     cubemap.obj
 0002:00000a5c       ??_C@_0M@DLHJBNEJ@env_cubemap?$AA@ 00499a5c     cubemap.obj
 0002:00000a68       __real@7f7fffff            00499a68     cubemap.obj
 0002:00000a6c       ??_C@_0BG@EMENODEA@CUtlRBTree?5overflow?$CB?6?$AA@ 00499a6c     cubemap.obj
 0002:00000a88       ??_C@_0GD@NNAGIMAC@?$CK?$CK?$CK?5Error?3?5Skybox?5vtf?5files?5for?5@ 00499a88     cubemap.obj
 0002:00000aec       ??_C@_0CM@BJEKPFON@?$CK?$CK?$CK?5Error?5unserializing?5skybox?5t@ 00499aec     cubemap.obj
 0002:00000b18       ??_C@_0BB@NIFPAOKF@materials?1?$CFs?4vtf?$AA@ 00499b18     cubemap.obj
 0002:00000b2c       ??_C@_0N@NEFMJPPI@$basetexture?$AA@ 00499b2c     cubemap.obj
 0002:00000b3c       ??_C@_06BMKANHHL@skybox?$AA@ 00499b3c     cubemap.obj
 0002:00000b44       ??_C@_04HDOCAJNK@?$CFs?$CFs?$AA@ 00499b44     cubemap.obj
 0002:00000b4c       ??_C@_02LEBOADDI@dn?$AA@   00499b4c     cubemap.obj
 0002:00000b50       ??_C@_02HNLLPFKA@up?$AA@   00499b50     cubemap.obj
 0002:00000b54       ??_C@_02HLHCNIN@ft?$AA@    00499b54     cubemap.obj
 0002:00000b58       ??_C@_02MNOEILMP@bk?$AA@   00499b58     cubemap.obj
 0002:00000b5c       ??_C@_02HCNENIII@lf?$AA@   00499b5c     cubemap.obj
 0002:00000b60       ??_C@_02BMJICGCB@rt?$AA@   00499b60     cubemap.obj
 0002:00000b64       ??_C@_0CJ@LJOMCNEC@materials?1maps?1?$CFs?1cubemapdefault@ 00499b64     cubemap.obj
 0002:00000b90       ??_C@_0CG@CBMBGIFJ@Error?5serializing?5default?5cubema@ 00499b90     cubemap.obj
 0002:00000bb8       ??_C@_0CF@HMPEADGK@materials?1maps?1?$CFs?1cubemapdefault@ 00499bb8     cubemap.obj
 0002:00000be0       ??_C@_0JB@DKEDBBNA@Creating?5default?5?$CFscubemaps?5for?5@ 00499be0     cubemap.obj
 0002:00000c74       ??_C@_04EKBEKMLM@LDR?5?$AA@ 00499c74     cubemap.obj
 0002:00000c7c       ??_C@_04LPJEAKHM@HDR?5?$AA@ 00499c7c     cubemap.obj
 0002:00000c84       ??_C@_0DJ@OHDMOOPJ@Can?8t?5load?5skybox?5file?5?$CFs?5to?5bui@ 00499c84     cubemap.obj
 0002:00000cc0       ??_C@_09ICMOGGML@skybox?1?$CFs?$AA@ 00499cc0     cubemap.obj
 0002:00000ccc       ??_C@_01PAPGNFGE@c?$AA@    00499ccc     cubemap.obj
 0002:00000cd0       ??_C@_02DPKJAMEF@?$CFd?$AA@ 00499cd0     cubemap.obj
 0002:00000cd4       ??_C@_01CLKCMJKC@?5?$AA@   00499cd4     cubemap.obj
 0002:00000cd8       ??_C@_09IKJKMKOL@_?$CFd_?$CFd_?$CFd?$AA@ 00499cd8     cubemap.obj
 0002:00000ce4       ??_C@_0DC@KJOJLAEN@Multiple?5references?5for?5cubemap?5@ 00499ce4     cubemap.obj
 0002:00000d18       ??_C@_0DN@PGKDBHHE@env_cubemap?5pointing?5at?5deleted?5@ 00499d18     cubemap.obj
 0002:00000d58       ??_C@_0DD@COIAGLNI@fixing?5up?5env_cubemap?5materials?5@ 00499d58     cubemap.obj
 0002:00000d8c       ??_C@_0BL@EODFEKPD@?6Merged?5?$CFd?5detail?5faces?4?4?4?$AA@ 00499d8c     detail.obj
 0002:00000da8       ??_C@_0BK@ENPICNGK@Split?5face?5in?5merge?5list?$CB?$AA@ 00499da8     detail.obj
 0002:00000dc4       ??_C@_0BH@BFHFPFDM@Bad?5detail?5brush?5side?6?$AA@ 00499dc4     detail.obj
 0002:00000ddc       ??_C@_0BD@PAPALJBM@Merging?5details?4?4?4?$AA@ 00499ddc     detail.obj
 0002:00000df0       ??_C@_0BN@KHGACLOP@Find?5Visible?5Detail?5Sides?4?4?4?$AA@ 00499df0     detail.obj
 0002:00000e10       ??_C@_0L@MGHOLLP@done?5?$CI?$CFd?$CJ?6?$AA@ 00499e10     detail.obj
 0002:00000e1c       ??_C@_0BA@KHMLJCAD@Chop?5Details?4?4?4?$AA@ 00499e1c     detail.obj
 0002:00000e2c       ??_C@_0L@NJIBFGO@detailvbsp?$AA@ 00499e2c     detailobjects.obj
 0002:00000e38       ??_C@_0M@BKGGJIMH@detail?4vbsp?$AA@ 00499e38     detailobjects.obj
 0002:00000e44       __real@38000100            00499e44     detailobjects.obj
 0002:00000e48       ??_C@_0DO@GOPKNNIB@Error?$CB?5Too?5many?5detail?5props?5emi@ 00499e48     detailobjects.obj
 0002:00000e88       ??_C@_0CC@EGCFEIGF@Error?5loading?5studio?5model?5?$CC?$CFs?$CC?$CB@ 00499e88     detailobjects.obj
 0002:00000eac       ??_C@_0M@BAHNLOII@detail_prop?$AA@ 00499eac     detailobjects.obj
 0002:00000eb8       __real@bf50624dd2f1a9fc    00499eb8     detailobjects.obj
 0002:00000ec0       __real@43b40000            00499ec0     detailobjects.obj
 0002:00000ec4       __real@3b808081            00499ec4     detailobjects.obj
 0002:00000ec8       __real@3f76c16c16c16c17    00499ec8     detailobjects.obj
 0002:00000ed0       ??_C@_0BC@IGEEGACB@detailOrientation?$AA@ 00499ed0     detailobjects.obj
 0002:00000ee8       __real@400921fb54442d18    00499ee8     detailobjects.obj
 0002:00000ef0       ??_C@_08GKKMMBDC@maxAngle?$AA@ 00499ef0     detailobjects.obj
 0002:00000efc       ??_C@_08LNEHHDHD@minAngle?$AA@ 00499efc     detailobjects.obj
 0002:00000f08       __real@43340000            00499f08     detailobjects.obj
 0002:00000f0c       ??_C@_07OLKLDPGP@upright?$AA@ 00499f0c     detailobjects.obj
 0002:00000f14       ??_C@_06LFKBJBLO@amount?$AA@ 00499f14     detailobjects.obj
 0002:00000f1c       ??_C@_0L@ELCGLDIA@shape_size?$AA@ 00499f1c     detailobjects.obj
 0002:00000f28       ??_C@_0M@KEOFPBDM@shape_angle?$AA@ 00499f28     detailobjects.obj
 0002:00000f38       __real@406fe00000000000    00499f38     detailobjects.obj
 0002:00000f40       ??_C@_04MGKPGJHA@sway?$AA@ 00499f40     detailobjects.obj
 0002:00000f48       ??_C@_0BC@KOPCEEPG@spriterandomscale?$AA@ 00499f48     detailobjects.obj
 0002:00000f5c       ??_C@_0M@ONLGMOD@?$CFf?5?$CFf?5?$CFf?5?$CFf?$AA@ 00499f5c     detailobjects.obj
 0002:00000f68       __real@41a00000            00499f68     detailobjects.obj
 0002:00000f6c       __real@c1200000            00499f6c     detailobjects.obj
 0002:00000f70       ??_C@_0L@ONKOJFJJ@spritesize?$AA@ 00499f70     detailobjects.obj
 0002:00000f7c       ??_C@_0DK@BNNOAIGN@Invalid?5arguments?5to?5?$CCsprite?$CC?5in@ 00499f7c     detailobjects.obj
 0002:00000fb8       ??_C@_0P@NOPOKGBE@?$CFf?5?$CFf?5?$CFf?5?$CFf?5?$CFf?$AA@ 00499fb8     detailobjects.obj
 0002:00000fc8       __real@44000000            00499fc8     detailobjects.obj
 0002:00000fcc       __real@42800000            00499fcc     detailobjects.obj
 0002:00000fd0       ??_C@_03NJKMHLPI@tri?$AA@  00499fd0     detailobjects.obj
 0002:00000fd4       ??_C@_05HCKPILGO@cross?$AA@ 00499fd4     detailobjects.obj
 0002:00000fdc       ??_C@_0N@FDIPGNCE@sprite_shape?$AA@ 00499fdc     detailobjects.obj
 0002:00000fec       ??_C@_06DKHPLDLO@sprite?$AA@ 00499fec     detailobjects.obj
 0002:00000ff4       ??_C@_05NCCFOPHA@model?$AA@ 00499ff4     detailobjects.obj
 0002:00000ffc       ??_C@_05IAEKHIAN@alpha?$AA@ 00499ffc     detailobjects.obj
 0002:00001004       ??_C@_0P@NFANEIDG@tex_total_size?$AA@ 0049a004     detailobjects.obj
 0002:00001014       ??_C@_08LHFNKDML@tex_size?$AA@ 0049a014     detailobjects.obj
 0002:00001020       ??_C@_06ODDDHALK@tex_ul?$AA@ 0049a020     detailobjects.obj
 0002:00001028       ??_C@_0M@KIMMAHMF@position_lr?$AA@ 0049a028     detailobjects.obj
 0002:00001034       ??_C@_0M@GPHKKAOF@position_ul?$AA@ 0049a034     detailobjects.obj
 0002:00001040       ??_C@_06GNEAMJOC@angles?$AA@ 0049a040     detailobjects.obj
 0002:00001048       ??_C@_06NHCMNMEH@origin?$AA@ 0049a048     detailobjects.obj
 0002:00001050       ??_C@_0BD@FCGBCNFD@prop_detail_sprite?$AA@ 0049a050     detailobjects.obj
 0002:00001064       ??_C@_0M@HMCBNKGG@prop_detail?$AA@ 0049a064     detailobjects.obj
 0002:00001070       ??_C@_0DB@BJBIMCHI@Material?5?$CFs?5uses?5unknown?5detail?5@ 0049a070     detailobjects.obj
 0002:000010a4       ??_C@_0M@FFHDBFLG@?$CFdetailtype?$AA@ 0049a0a4     detailobjects.obj
 0002:000010b0       ??_C@_0BI@JJLHFIKC@Placing?5detail?5props?5?3?5?$AA@ 0049a0b0     detailobjects.obj
 0002:000010c8       ??_C@_0EA@HKIIMBGB@Error?$CB?5Too?5many?5detail?5props?5on?5@ 0049a0c8     detailobjects.obj
 0002:00001108       ??_C@_07HAFFKDBK@density?$AA@ 0049a108     detailobjects.obj
 0002:00001110       __real@e753c21c            0049a110     disp_common.obj
 0002:00001114       __real@6753c21c            0049a114     disp_common.obj
 0002:00001118       __real@3c23d70a            0049a118     disp_common.obj
 0002:0000111c       ??_C@_0DK@GOGDGCAF@Found?5a?5displacement?5edge?5abutti@ 0049a11c     disp_common.obj
 0002:00001158       ??_C@_0EM@MEODGKKJ@Warning?3?5invalid?5neighbor?5connec@ 0049a158     disp_common.obj
 0002:000011a4       ??_C@_0DL@OBKBOEFP@Warning?3?5overflowed?5?$CFd?5displacem@ 0049a1a4     disp_common.obj
 0002:000011e0       __real@39800000            0049a1e0     disp_ivp.obj
 0002:000011e4       __real@39000000            0049a1e4     disp_ivp.obj
 0002:000011ec       ??_7CDispMeshEvent@@6B@    0049a1ec     disp_ivp.obj
 0002:000011f8       ??_C@_0N@KPONPEDB@surfaceprop2?$AA@ 0049a1f8     disp_ivp.obj
 0002:00001208       __real@43bf4000            0049a208     disp_ivp.obj
 0002:0000120c       ??_C@_0DN@FLCJBOKC@Can?8t?5compile?5displacement?5physi@ 0049a20c     disp_ivp.obj
 0002:0000124c       ??_C@_0DG@FCCGPPB@Displacement?5?$CFd?5has?5bad?5geometry@ 0049a24c     disp_ivp.obj
 0002:00001288       ??_C@_0EB@LNKDGLEF@Trying?5to?5create?5a?5non?9quad?5disp@ 0049a288     disp_vbsp.obj
 0002:000012d0       ??_C@_0FD@ILAEEOJA@Error?3?5displacement?5found?5on?5a?$CIn@ 0049a2d0     disp_vbsp.obj
 0002:00001324       __real@437fe666            0049a324     disp_vbsp.obj
 0002:00001328       ??_C@_0BG@HIJIAFNE@Displacement?5Alpha?5?3?5?$AA@ 0049a328     disp_vbsp.obj
 0002:00001340       ??_C@_0CG@HOOPHLIA@Finding?5lightmap?5sample?5position@ 0049a340     disp_vbsp.obj
 0002:00001368       ??_C@_0CD@BOCMJHJK@Finding?5displacement?5neighbors?4?4@ 0049a368     disp_vbsp.obj
 0002:0000138c       ??_C@_0CD@HHIGMIOB@HashVec?3?5point?5outside?5valid?5ran@ 0049a38c     faces.obj
 0002:000013b0       ??_C@_0ED@JPHBHMOE@Too?5many?5unique?5verts?0?5max?5?$DN?5?$CFd?5@ 0049a3b0     faces.obj
 0002:000013f8       __real@3f847ae147ae147b    0049a3f8     faces.obj
 0002:00001400       ??_C@_0EO@MBPOMJAM@Edge?5with?5too?5many?5vertices?5due?5@ 0049a400     faces.obj
 0002:00001450       __real@3e800000            0049a450     faces.obj
 0002:00001454       ??_C@_0CI@MMDKAFBP@SubdivideFace?3?5didn?8t?5split?5the?5@ 0049a454     faces.obj
 0002:0000147c       __real@3dcccccd            0049a47c     faces.obj
 0002:00001480       __real@c97423f0            0049a480     faces.obj
 0002:00001484       __real@497423f0            0049a484     faces.obj
 0002:00001488       ??_C@_0DD@FLIEHJFO@error?3?5material?5?$CFs?5doesn?8t?5have?5@ 0049a488     faces.obj
 0002:000014bc       ??_C@_09JCAKHELD@toolsskip?$AA@ 0049a4bc     faces.obj
 0002:000014c8       ??_C@_06MEFHFNAK@nodraw?$AA@ 0049a4c8     faces.obj
 0002:000014d0       ??_C@_0BA@KCFHMCIO@?$CF5i?5subdivided?6?$AA@ 0049a4d0     faces.obj
 0002:000014e0       ??_C@_0M@LENHICMH@?$CF5i?5merged?6?$AA@ 0049a4e0     faces.obj
 0002:000014ec       ??_C@_0P@JLOIMJEC@?$CF5i?5makefaces?6?$AA@ 0049a4ec     faces.obj
 0002:000014fc       ??_C@_0BD@EJBJJFIN@?9?9?9?5MakeFaces?5?9?9?9?6?$AA@ 0049a4fc     faces.obj
 0002:00001510       ??_C@_0EK@NDGGJICH@Too?5many?5t?9junctions?5to?5fix?5up?$CB?5@ 0049a510     faces.obj
 0002:0000155c       ??_C@_0BF@KDMEAIOC@?$CF5i?5bad?5start?5verts?6?$AA@ 0049a55c     faces.obj
 0002:00001574       ??_C@_0BP@FJGOMCCN@?$CF5i?5faces?5added?5by?5tjunctions?6?$AA@ 0049a574     faces.obj
 0002:00001594       ??_C@_0BP@NMMOJFFM@?$CF5i?5edges?5added?5by?5tjunctions?6?$AA@ 0049a594     faces.obj
 0002:000015b4       ??_C@_0BH@MLJGLOGH@?$CF5i?5faces?5degenerated?6?$AA@ 0049a5b4     faces.obj
 0002:000015cc       ??_C@_0BH@PPDCHOOG@?$CF5i?5edges?5degenerated?6?$AA@ 0049a5cc     faces.obj
 0002:000015e4       ??_C@_0BD@HCGCCAKA@?$CFi?5unique?5from?5?$CFi?6?$AA@ 0049a5e4     faces.obj
 0002:000015f8       ??_C@_0BB@DDDNOAPE@?9?9?9?9?5tjunc?5?9?9?9?9?6?$AA@ 0049a5f8     faces.obj
 0002:0000160c       ??_C@_0BG@DMMDOHDA@?9?9?9?9?5snap?5verts?5?9?9?9?9?6?$AA@ 0049a60c     faces.obj
 0002:00001624       ??_C@_0CB@LKNAAKJM@Too?5many?5edges?5in?5map?0?5max?5?$DN?$DN?5?$CFd@ 0049a624     faces.obj
 0002:00001648       ??_C@_0CF@MHKAGILO@?$CF6?43f?5?$CF6?43f?5?$CF6?43f?5?$CF6?43f?5?$CF6?43f?5?$CF6@ 0049a648     glfile.obj
 0002:00001670       __real@3f70101010101010    0049a670     glfile.obj
 0002:00001678       ??_C@_03PELOGHMK@?$CFi?6?$AA@ 0049a678     glfile.obj
 0002:0000167c       ??_C@_0P@EGNPLIPA@?$CF5i?5c_glfaces?6?$AA@ 0049a67c     glfile.obj
 0002:0000168c       ??_C@_0BB@MAHHKGJO@Couldn?8t?5open?5?$CFs?$AA@ 0049a68c     glfile.obj
 0002:000016a0       ??_C@_0M@BBJDCBAD@Writing?5?$CFs?6?$AA@ 0049a6a0     glfile.obj
 0002:000016ac       ??_C@_07NLOFKJIL@?$CFs?$CFs?4gl?$AA@ 0049a6ac     glfile.obj
 0002:000016b8       ??_C@_0BJ@GLFIAOHK@?$CF6?43f?5?$CF6?43f?5?$CF6?43f?50?50?51?6?$AA@ 0049a6b8     ivp.obj
 0002:000016d4       ??_C@_0BJ@FHPKENPN@?$CF6?43f?5?$CF6?43f?5?$CF6?43f?50?51?50?6?$AA@ 0049a6d4     ivp.obj
 0002:000016f0       ??_C@_0BJ@MMONGPPJ@?$CF6?43f?5?$CF6?43f?5?$CF6?43f?51?50?50?6?$AA@ 0049a6f0     ivp.obj
 0002:0000170c       ??_C@_02NMHMJFKO@3?6?$AA@  0049a70c     ivp.obj
 0002:00001710       ??_C@_0P@FLEPLLPM@Writing?5?$CFs?4?4?4?6?$AA@ 0049a710     ivp.obj
 0002:00001724       ??_7CPhysCollisionEntrySolid@@6B@ 0049a724     ivp.obj
 0002:00001730       ??_7CPhysCollisionEntryStaticSolid@@6B@ 0049a730     ivp.obj
 0002:0000173c       ??_7CPhysCollisionEntryStaticMesh@@6B@ 0049a73c     ivp.obj
 0002:00001748       ??_7CPhysCollisionEntryFluid@@6B@ 0049a748     ivp.obj
 0002:00001750       ??_C@_0BE@PBEHMONM@maps?1?$CFs?1?$CFs_depth_?$CFi?$AA@ 0049a750     ivp.obj
 0002:00001764       ??_C@_0M@GPMGDIOD@$waterdepth?$AA@ 0049a764     ivp.obj
 0002:00001770       ??_C@_02IKAHHCAI@?$CFi?$AA@ 0049a770     ivp.obj
 0002:00001774       ??_C@_02GMLFBBN@wb?$AA@    0049a774     ivp.obj
 0002:00001778       ??_C@_0L@LCJFBGLL@?$CFs?$CF03d?4txt?$AA@ 0049a778     ivp.obj
 0002:00001784       ??_C@_0L@JEHPFMNB@?$CFs?$CF03d?4phy?$AA@ 0049a784     ivp.obj
 0002:00001790       ??_C@_07ILMJKKDI@collide?$AA@ 0049a790     ivp.obj
 0002:00001798       ??_C@_0L@CACCOGME@static?$CF02d?$AA@ 0049a798     ivp.obj
 0002:000017a4       ??_C@_08MKICKDHE@mesh?$CF02d?$AA@ 0049a7a4     ivp.obj
 0002:000017b0       ??_C@_09CLPCALOF@water?$CF02d?$AA@ 0049a7b0     ivp.obj
 0002:000017bc       __real@40400000            0049a7bc     ivp.obj
 0002:000017c0       ??_C@_05ELAABIKM@water?$AA@ 0049a7c0     ivp.obj
 0002:000017c8       __real@378976f3            0049a7c8     ivp.obj
 0002:000017cc       ??_C@_07DLHCIBDH@default?$AA@ 0049a7cc     ivp.obj
 0002:000017d4       __real@44800000            0049a7d4     ivp.obj
 0002:000017d8       ??_C@_0L@GIBLANCP@?$CC?$CFs?$CC?5?$CC?$CFd?$CC?6?$AA@ 0049a7d8     ivp.obj
 0002:000017e4       ??_C@_0CB@EAKJLKK@Error?5writing?5collision?5data?5?$CFs?6@ 0049a7e4     ivp.obj
 0002:00001808       ??_C@_0L@MCBCMFKE@?$CC?$CFs?$CC?5?$CC?$CFf?$CC?6?$AA@ 0049a808     ivp.obj
 0002:00001814       ??_C@_02MBJIFMOJ@?$CC?6?$AA@ 0049a814     ivp.obj
 0002:00001818       ??_C@_03JAIJOMNP@?$CFf?5?$AA@ 0049a818     ivp.obj
 0002:0000181c       ??_C@_06EGGGGBNL@?$CC?$CFs?$CC?5?$CC?$AA@ 0049a81c     ivp.obj
 0002:00001824       ??_C@_01BJJEKLCA@?$CC?$AA@ 0049a824     ivp.obj
 0002:00001828       ??_C@_01LOCGONAA@?$AA?$AA@ 0049a828     ivp.obj
 0002:0000182c       ??_C@_08ODCIAOPM@contents?$AA@ 0049a82c     ivp.obj
 0002:00001838       ??_C@_05FKHKFDID@index?$AA@ 0049a838     ivp.obj
 0002:00001840       ??_C@_0P@OEGNPKIB@staticsolid?5?$HL?6?$AA@ 0049a840     ivp.obj
 0002:00001850       ??_C@_0BG@MIFABPEL@done?5?$CI?$CFd?$CJ?5?$CI?$CFd?5bytes?$CJ?6?$AA@ 0049a850     ivp.obj
 0002:00001868       ??_C@_0BB@PAFEBCLK@materialtable?5?$HL?6?$AA@ 0049a868     ivp.obj
 0002:0000187c       ??_C@_0BD@BFDMGGNB@virtualterrain?5?$HL?$HN?6?$AA@ 0049a87c     ivp.obj
 0002:00001890       ??_C@_0CE@ILLOBNPM@Building?5Physics?5collision?5data?4@ 0049a890     ivp.obj
 0002:000018b4       ??_C@_0CK@PKCCIPMA@?$CB?$CB?$CB?5WARNING?3?5Can?8t?5build?5collisi@ 0049a8b4     ivp.obj
 0002:000018e0       ??_C@_0BF@PLKAEACL@VPhysicsCollision007?$AA@ 0049a8e0     ivp.obj
 0002:000018f8       ??_C@_06EMCPHFGM@volume?$AA@ 0049a8f8     ivp.obj
 0002:00001900       ??_C@_0M@CPDICMCJ@surfaceprop?$AA@ 0049a900     ivp.obj
 0002:0000190c       ??_C@_04IJEANHEE@mass?$AA@ 0049a90c     ivp.obj
 0002:00001914       ??_C@_08NEDFMPNN@solid?5?$HL?6?$AA@ 0049a914     ivp.obj
 0002:00001920       ??_C@_0BA@DBPBOMKC@currentvelocity?$AA@ 0049a920     ivp.obj
 0002:00001930       ??_C@_0N@HDKAOPAI@surfaceplane?$AA@ 0049a930     ivp.obj
 0002:00001940       ??_C@_07IANOJGAO@damping?$AA@ 0049a940     ivp.obj
 0002:00001948       ??_C@_08EOKLBGBN@fluid?5?$HL?6?$AA@ 0049a948     ivp.obj
 0002:00001954       ??_C@_0CE@INBCPILM@Entity?5?$CFs?5?$CI?$CF?42f?5?$CF?42f?5?$CF?42f?$CJ?5leake@ 0049a954     leakfile.obj
 0002:00001978       ??_C@_0BE@ONJNDCHC@?$CF5i?5point?5linefile?6?$AA@ 0049a978     leakfile.obj
 0002:0000198c       ??_C@_09MALOBAAJ@?$CFf?5?$CFf?5?$CFf?6?$AA@ 0049a98c     leakfile.obj
 0002:00001998       ??_C@_0BC@ONJICBGP@Couldn?8t?5open?5?$CFs?6?$AA@ 0049a998     leakfile.obj
 0002:000019ac       ??_C@_06MBNJCGIN@?$CFs?4lin?$AA@ 0049a9ac     leakfile.obj
 0002:000019b4       ??_C@_0BC@LPEHNNEG@?9?9?9?5LeakFile?5?9?9?9?6?$AA@ 0049a9b4     leakfile.obj
 0002:000019c8       ??_C@_0BM@DFODNGPI@Areaportal?5leak?5?$CB?5File?3?5?$CFs?5?$AA@ 0049a9c8     leakfile.obj
 0002:000019e4       ??_C@_09CKEIHHKG@Wrote?5?$CFs?6?$AA@ 0049a9e4     leakfile.obj
 0002:000019f0       ??_C@_0BI@GJGMGOAA@Command?5Line?5found?3?5?$CFs?6?$AA@ 0049a9f0     loadcmdline.obj
 0002:00001a08       ??_C@_0BH@FPHGKPHF@?$CFs?1cfg?1commandline?4cfg?$AA@ 0049aa08     loadcmdline.obj
 0002:00001a20       ??_C@_0M@FMINHJIF@CommandLine?$AA@ 0049aa20     loadcmdline.obj
 0002:00001a2c       ??_C@_0BD@JBACICKJ@Not?5a?5Parse?5error?$CB?$AA@ 0049aa2c     map.obj
 0002:00001a40       ??_C@_0CC@NMNJEPNA@Brush?5?$CFi?3?5?$CFs?6Side?5?$CFi?6Texture?3?5?$CFs@ 0049aa40     map.obj
 0002:00001a64       ??_C@_0BH@MAFNOPPO@Brush?5?$CFi?0?5Side?5?$CFi?3?5?$CFs?6?$AA@ 0049aa64     map.obj
 0002:00001a7c       ??_C@_0BA@GNFEIJEF@func_areaportal?$AA@ 0049aa7c     map.obj
 0002:00001a8c       ??_C@_0CF@HOACDEG@Brush?5?$CFi?3?5no?5visible?5sides?5on?5br@ 0049aa8c     map.obj
 0002:00001ab4       ??_C@_0BP@MBAIJKBK@Brush?5?$CFi?3?5bounds?5out?5of?5range?6?$AA@ 0049aab4     map.obj
 0002:00001ad4       ??_C@_03DMHICLNI@row?$AA@  0049aad4     map.obj
 0002:00001ad8       ??_C@_06INICNAFJ@smooth?$AA@ 0049aad8     map.obj
 0002:00001ae0       ??_C@_07KPOMEPOC@mintess?$AA@ 0049aae0     map.obj
 0002:00001ae8       ??_C@_05GECEPKB@flags?$AA@ 0049aae8     map.obj
 0002:00001af0       ??_C@_0O@NBIGDJFH@startposition?$AA@ 0049aaf0     map.obj
 0002:00001b00       ??_C@_05NKILLMJE@vaxis?$AA@ 0049ab00     map.obj
 0002:00001b08       ??_C@_05FMBPMODK@uaxis?$AA@ 0049ab08     map.obj
 0002:00001b10       ??_C@_05PLIADJJL@power?$AA@ 0049ab10     map.obj
 0002:00001b18       ??_C@_06BMHBIPLB@maxs?4z?$AA@ 0049ab18     map.obj
 0002:00001b20       ??_C@_06DHFMNMHC@maxs?4y?$AA@ 0049ab20     map.obj
 0002:00001b28       ??_C@_06COEHONDD@maxs?4x?$AA@ 0049ab28     map.obj
 0002:00001b30       ??_C@_06BPICGPPO@mins?4z?$AA@ 0049ab30     map.obj
 0002:00001b38       ??_C@_06DEKPDMDN@mins?4y?$AA@ 0049ab38     map.obj
 0002:00001b40       ??_C@_06CNLEANHM@mins?4x?$AA@ 0049ab40     map.obj
 0002:00001b48       ??_C@_05JGBIAEON@?$CF2?42f?$AA@ 0049ab48     map.obj
 0002:00001b50       ??_C@_0L@FEPNPAJD@targetname?$AA@ 0049ab50     map.obj
 0002:00001b5c       ??_C@_0BB@FIHILHEL@BackgroundBModel?$AA@ 0049ab5c     map.obj
 0002:00001b70       ??_C@_06JJLAMBGK@target?$AA@ 0049ab70     map.obj
 0002:00001b78       ??_C@_0BB@OGPBFIKB@smoothing_groups?$AA@ 0049ab78     map.obj
 0002:00001b8c       ??_C@_02EGCJHIOB@id?$AA@   0049ab8c     map.obj
 0002:00001b90       ??_C@_0BA@DFPKDOLK@luxel?5size?5of?50?$AA@ 0049ab90     map.obj
 0002:00001ba0       ??_C@_0O@JMIJMGFN@lightmapscale?$AA@ 0049aba0     map.obj
 0002:00001bb0       ??_C@_0BK@EDNAAFKG@parsing?5V?5axis?5definition?$AA@ 0049abb0     map.obj
 0002:00001bcc       ??_C@_0BK@KJFGNIME@parsing?5U?5axis?5definition?$AA@ 0049abcc     map.obj
 0002:00001be8       ??_C@_0BB@LHCKFDFE@?$FL?$CFf?5?$CFf?5?$CFf?5?$CFf?$FN?5?$CFf?$AA@ 0049abe8     map.obj
 0002:00001bfc       ??_C@_08KNOEMJMM@material?$AA@ 0049abfc     map.obj
 0002:00001c08       ??_C@_0BJ@MKMLNGKE@parsing?5plane?5definition?$AA@ 0049ac08     map.obj
 0002:00001c24       ??_C@_0CB@BIIACPHF@?$CI?$CFf?5?$CFf?5?$CFf?$CJ?5?$CI?$CFf?5?$CFf?5?$CFf?$CJ?5?$CI?$CFf?5?$CFf?5?$CFf?$CJ@ 0049ac24     map.obj
 0002:00001c48       ??_C@_05MAIECAHP@plane?$AA@ 0049ac48     map.obj
 0002:00001c50       ??_C@_01CELHOKLL@?$HN?$AA@ 0049ac50     map.obj
 0002:00001c54       ??_C@_01HCONENDN@?$HL?$AA@ 0049ac54     map.obj
 0002:00001c58       ??_C@_0DG@GPKBCONA@ParseDispInfoChunk?3?5nummapdispin@ 0049ac58     map.obj
 0002:00001c90       ??_C@_0P@OPCJGGAO@MAX_MAP_PLANES?$AA@ 0049ac90     map.obj
 0002:00001ca0       ??_C@_0BH@HHAHLGNM@FloatPlane?3?5bad?5normal?$AA@ 0049aca0     map.obj
 0002:00001cb8       __real@3727c5ac            0049acb8     map.obj
 0002:00001cbc       ??_C@_0O@LBPCPJAL@triangle_tags?$AA@ 0049acbc     map.obj
 0002:00001ccc       ??_C@_06HKCDBMPA@alphas?$AA@ 0049accc     map.obj
 0002:00001cd4       ??_C@_07EALNHAIO@offsets?$AA@ 0049acd4     map.obj
 0002:00001cdc       ??_C@_09IIHGAIPH@distances?$AA@ 0049acdc     map.obj
 0002:00001ce8       ??_C@_07MDEPDJDC@normals?$AA@ 0049ace8     map.obj
 0002:00001cf0       ??_C@_0BF@IIALCAPD@plane?5with?5no?5normal?$AA@ 0049acf0     map.obj
 0002:00001d08       ??_C@_0P@JEIPHHHE@mirrored?5plane?$AA@ 0049ad08     map.obj
 0002:00001d18       ??_C@_0BA@IDGBHDDK@duplicate?5plane?$AA@ 0049ad18     map.obj
 0002:00001d28       ??_C@_08OAJLBCOI@dispinfo?$AA@ 0049ad28     map.obj
 0002:00001d34       ??_C@_0BD@MGJMIOFL@MAX_MAP_BRUSHSIDES?$AA@ 0049ad34     map.obj
 0002:00001d48       __real@41800000            0049ad48     map.obj
 0002:00001d4c       ??_C@_05KJODHHKF@sides?$AA@ 0049ad4c     map.obj
 0002:00001d54       ??_C@_03CGENABJP@uv3?$AA@  0049ad54     map.obj
 0002:00001d58       ??_C@_03DPFGDANO@uv2?$AA@  0049ad58     map.obj
 0002:00001d5c       ??_C@_03BEHLGDBN@uv1?$AA@  0049ad5c     map.obj
 0002:00001d60       ??_C@_03NGAFCFM@uv0?$AA@   0049ad60     map.obj
 0002:00001d64       ??_C@_0M@CBNMGMHG@BasisNormal?$AA@ 0049ad64     map.obj
 0002:00001d70       ??_C@_06DAKFJGGD@BasisV?$AA@ 0049ad70     map.obj
 0002:00001d78       ??_C@_06BLIIMFKA@BasisU?$AA@ 0049ad78     map.obj
 0002:00001d80       ??_C@_0M@HMELADEK@BasisOrigin?$AA@ 0049ad80     map.obj
 0002:00001d8c       ??_C@_04NBAIMGMF@EndV?$AA@ 0049ad8c     map.obj
 0002:00001d94       ??_C@_06DKGAJAMI@StartV?$AA@ 0049ad94     map.obj
 0002:00001d9c       ??_C@_04PKCFJFAG@EndU?$AA@ 0049ad9c     map.obj
 0002:00001da4       ??_C@_06BBENMDAL@StartU?$AA@ 0049ada4     map.obj
 0002:00001dac       ??_C@_0DF@DBGEDADE@Overlay?5Material?5Name?5?$CI?$CFs?$CJ?5?$DO?5OVE@ 0049adac     map.obj
 0002:00001de4       ??_C@_0M@GHHOADBD@overlaydata?$AA@ 0049ade4     map.obj
 0002:00001df0       ??_C@_08DIEBNEND@?$CFi?5?$CFi?5?$CFi?$AA@ 0049adf0     map.obj
 0002:00001dfc       ??_C@_0CO@GOILIMJA@Brush?5?$CFi?3?5origin?5brushes?5not?5all@ 0049adfc     map.obj
 0002:00001e2c       ??_C@_04JGNFNGGK@side?$AA@ 0049ae2c     map.obj
 0002:00001e34       ??_C@_0CB@FJNNNLDI@nummapbrushes?5?$DN?$DN?5MAX_MAP_BRUSHES@ 0049ae34     map.obj
 0002:00001e58       ??_C@_0N@KGPHONEC@portalnumber?$AA@ 0049ae58     map.obj
 0002:00001e68       ??_C@_0DG@LEHLNDPI@Entity?5?$CFi?3?5func_areaportal?5can?5o@ 0049ae68     map.obj
 0002:00001ea0       ??_C@_0BH@NALGDPIA@info_no_dynamic_shadow?$AA@ 0049aea0     map.obj
 0002:00001eb8       ??_C@_0BI@OMCMPAEO@info_overlay_transition?$AA@ 0049aeb8     map.obj
 0002:00001ed0       ??_C@_09DFIMFMKC@OverlayID?$AA@ 0049aed0     map.obj
 0002:00001edc       ??_C@_0BG@CNGIAIJF@info_overlay_accessor?$AA@ 0049aedc     map.obj
 0002:00001ef4       ??_C@_0N@BGKIAKKP@info_overlay?$AA@ 0049aef4     map.obj
 0002:00001f04       ??_C@_0O@LNCJIGDK@test_sidelist?$AA@ 0049af04     map.obj
 0002:00001f14       ??_C@_0M@EDMIMGHH@cubemapsize?$AA@ 0049af14     map.obj
 0002:00001f20       ??_C@_0M@OEALFABH@info_ladder?$AA@ 0049af20     map.obj
 0002:00001f2c       ??_C@_0M@OOKLDPAJ@func_ladder?$AA@ 0049af2c     map.obj
 0002:00001f38       ??_C@_0BA@EEDDHHGA@func_viscluster?$AA@ 0049af38     map.obj
 0002:00001f48       ??_C@_0M@MMLAJCHD@func_detail?$AA@ 0049af48     map.obj
 0002:00001f54       ??_C@_0L@BGKEEOJO@maxdxlevel?$AA@ 0049af54     map.obj
 0002:00001f60       ??_C@_0L@NKKJDFJB@mindxlevel?$AA@ 0049af60     map.obj
 0002:00001f6c       ??_C@_0BC@FJHAELML@overlaytransition?$AA@ 0049af6c     map.obj
 0002:00001f80       ??_C@_0M@EAJPACGF@connections?$AA@ 0049af80     map.obj
 0002:00001f8c       ??_C@_05OPIONHBI@solid?$AA@ 0049af8c     map.obj
 0002:00001f94       ??_C@_0CB@GIFGAPCN@num_entities?5?$DN?$DN?5MAX_MAP_ENTITIES@ 0049af94     map.obj
 0002:00001fb8       ??_C@_0CO@GHCPCDGG@size?3?5?$CF5?40f?0?$CF5?40f?0?$CF5?40f?5to?5?$CF5?40f@ 0049afb8     map.obj
 0002:00001fe8       ??_C@_0BB@PBBAPMMD@?$CF5i?5areaportals?6?$AA@ 0049afe8     map.obj
 0002:00001ffc       ??_C@_0M@FHMKEEFP@?$CF5i?5planes?6?$AA@ 0049affc     map.obj
 0002:00002008       ??_C@_0O@HPNIHHPI@?$CF5i?5entities?6?$AA@ 0049b008     map.obj
 0002:00002018       ??_C@_0BA@HPIFLHBK@?$CF5i?5edgebevels?6?$AA@ 0049b018     map.obj
 0002:00002028       ??_C@_0P@FECCOIAO@?$CF5i?5boxbevels?6?$AA@ 0049b028     map.obj
 0002:00002038       ??_C@_0BB@LDGJKFDM@?$CF5i?5total?5sides?6?$AA@ 0049b038     map.obj
 0002:0000204c       ??_C@_0BB@HLCBGCLL@?$CF5i?5clipbrushes?6?$AA@ 0049b04c     map.obj
 0002:00002060       ??_C@_0BH@GDLKMEGB@Error?5opening?5?$CFs?3?5?$CFs?4?6?$AA@ 0049b060     map.obj
 0002:00002078       ??_C@_06GOJKNBFM@entity?$AA@ 0049b078     map.obj
 0002:00002080       ??_C@_05MCBCHHEJ@world?$AA@ 0049b080     map.obj
 0002:00002088       ??_C@_0M@LGGMODLI@Loading?5?$CFs?6?$AA@ 0049b088     map.obj
 0002:00002094       ??_C@_0CD@CLEPENAJ@Infinite?5recursion?5in?5patch?5file@ 0049b094     materialpatch.obj
 0002:000020b8       ??_C@_07CLEHDIEJ@replace?$AA@ 0049b0b8     materialpatch.obj
 0002:000020c0       ??_C@_06OAOPNKHP@insert?$AA@ 0049b0c0     materialpatch.obj
 0002:000020c8       ??_C@_03JLLDDLCC@vmt?$AA@  0049b0c8     materialpatch.obj
 0002:000020cc       ??_C@_07FHOHOHLG@include?$AA@ 0049b0cc     materialpatch.obj
 0002:000020d4       ??_C@_05OCKFKOHN@patch?$AA@ 0049b0d4     materialpatch.obj
 0002:000020dc       ??_C@_0BB@LDFMOGIJ@materials?1?$CFs?4vmt?$AA@ 0049b0dc     materialpatch.obj
 0002:000020f0       ??_C@_04EPOOCEMM@blah?$AA@ 0049b0f0     materialpatch.obj
 0002:000020f8       ??_C@_0CG@LIACKKOF@Couldn?8t?5allocate?5KeyValues?5for?5@ 0049b0f8     materialpatch.obj
 0002:00002120       ??_C@_07DPNAEFKO@AllMaps?$AA@ 0049b120     materialsub.obj
 0002:00002128       ??_C@_0CA@HOILNHCB@Failed?5to?5load?5KeyValues?5file?$CB?6?$AA@ 0049b128     materialsub.obj
 0002:00002148       ??_C@_0O@DMIKEJDC@File?5path?3?5?$CFs?$AA@ 0049b148     materialsub.obj
 0002:00002158       ??_C@_0BF@HKOHJKOO@MaterialReplacements?$AA@ 0049b158     materialsub.obj
 0002:00002170       ??_C@_0BG@MMHIEDBE@?$CFscfg?2materialsub?4cfg?$AA@ 0049b170     materialsub.obj
 0002:00002188       ??_C@_0BK@GFEEBONO@Loading?5Replacement?5Keys?6?$AA@ 0049b188     materialsub.obj
 0002:000021a8       ??_7bad_alloc@std@@6B@     0049b1a8     mstristrip.obj
 0002:000021b0       ??_C@_0CN@MHFNKKHI@g_numvertnormals?5?$DN?$DN?5MAX_MAP_VERT@ 0049b1b0     normals.obj
 0002:000021e0       ??_C@_0DJ@NAANFADH@g_numvertnormalindices?5?$DN?$DN?5MAX_MA@ 0049b1e0     normals.obj
 0002:00002220       ??_C@_0FD@LPHBLOPA@Overlay?5touching?5too?5many?5faces?5@ 0049b220     overlay.obj
 0002:00002274       ??_C@_0CJ@LIPKIIKH@Too?5Many?5Overlays?$CB?6MAX_MAP_OVERL@ 0049b274     overlay.obj
 0002:000022a0       ??_C@_0FJ@IINLDJCB@Water?5Overlay?5touching?5too?5many?5@ 0049b2a0     overlay.obj
 0002:000022fc       ??_C@_0DE@LMCOJDDK@Too?5many?5water?5overlays?$CB?6MAX_MAP@ 0049b2fc     overlay.obj
 0002:00002330       ??_C@_0DP@LKIFHCNF@Overlay?5Material?5Name?5?$CI?$CFs?$CJ?5too?5l@ 0049b330     overlay.obj
 0002:00002370       ??_C@_0DJ@OHEEDLDK@Overlay?5?$CI?$CFs?$CJ?5at?5?$CFf?5?$CFf?5?$CFf?5has?5inv@ 0049b370     overlay.obj
 0002:000023ac       ??_C@_0M@MCPJDFDC@RenderOrder?$AA@ 0049b3ac     overlay.obj
 0002:000023b8       ??_C@_0M@KKMBKHAJ@fademaxdist?$AA@ 0049b3b8     overlay.obj
 0002:000023c4       ??_C@_0M@EMKBAIOI@fademindist?$AA@ 0049b3c4     overlay.obj
 0002:000023d0       ??_C@_0N@IBCKMFJP@VPHYSICS?4DLL?$AA@ 0049b3d0     physdll.obj
 0002:000023e0       ??_C@_0BP@LIHEBGBH@Portal_EntityFlood?3?5not?5a?5leaf?$AA@ 0049b3e0     portals.obj
 0002:00002400       ??_C@_0CD@JFIEIEKB@AddPortalToNode?3?5allready?5includ@ 0049b400     portals.obj
 0002:00002424       ??_C@_0CP@CAKEOEAK@RemovePortalFromNode?3?5portal?5not@ 0049b424     portals.obj
 0002:00002454       ??_C@_0CJ@IIKHMOPG@RemovePortalFromNode?3?5portal?5not@ 0049b454     portals.obj
 0002:00002480       ??_C@_0CL@GHKIMALJ@entity?5reached?5from?5outside?5?9?9?5n@ 0049b480     portals.obj
 0002:000024ac       ??_C@_0CD@DNPJGLB@no?5entities?5in?5open?5?9?9?5no?5fillin@ 0049b4ac     portals.obj
 0002:000024d0       ??_C@_0BC@IHPKIKNE@info_player_start?$AA@ 0049b4d0     portals.obj
 0002:000024e4       ??_C@_0BH@HLBIBACP@?9?9?9?5FloodEntities?5?9?9?9?6?$AA@ 0049b4e4     portals.obj
 0002:000024fc       ??_C@_0DM@NNFAMLGB@WARNING?3?5areaportal?5entity?5?$CFi?5?$CIb@ 0049b4fc     portals.obj
 0002:00002538       ??_C@_0DF@LBOOPFLN@?6Brush?5?$CFi?3?5areaportal?5brush?5does@ 0049b538     portals.obj
 0002:00002570       __real@401921fb60000000    0049b570     portals.obj
 0002:00002578       __real@401921fb54442d18    0049b578     portals.obj
 0002:00002580       ??_C@_0DK@BCHHFABC@FindUniquePoints?3?5overflowed?5uni@ 0049b580     portals.obj
 0002:000025bc       __real@459c4000            0049b5bc     portals.obj
 0002:000025c0       ??_C@_0L@PBOEMMBA@?$CF5i?5areas?6?$AA@ 0049b5c0     portals.obj
 0002:000025cc       ??_C@_0BE@NMCFKNEG@Processing?5areas?4?4?4?$AA@ 0049b5cc     portals.obj
 0002:000025e0       ??_C@_0BE@PLEMBIKP@?9?9?9?5FloodAreas?5?9?9?9?6?$AA@ 0049b5e0     portals.obj
 0002:000025f4       ??_C@_0BC@BLMODMPJ@?$CF5i?5inside?5leafs?6?$AA@ 0049b5f4     portals.obj
 0002:00002608       ??_C@_0BC@DDIBNNOE@?$CF5i?5leafs?5filled?6?$AA@ 0049b608     portals.obj
 0002:0000261c       ??_C@_0BB@EOCBGIME@?$CF5i?5solid?5leafs?6?$AA@ 0049b61c     portals.obj
 0002:00002630       ??_C@_0BF@HAKMMJNB@?9?9?9?5FillOutside?5?9?9?9?6?$AA@ 0049b630     portals.obj
 0002:00002648       ??_C@_0CD@BKLIBDI@CutNodePortals_r?3?5mislinked?5port@ 0049b648     portals.obj
 0002:0000266c       __real@41000000            0049b66c     portals.obj
 0002:00002670       ??_C@_0EB@FMHMLHFO@WARNING?3?5BSP?5node?5with?5unbounded@ 0049b670     portals.obj
 0002:000026b4       ??_C@_0N@IBDKDIFK@?$CI?$CFf?0?5?$CFf?0?5?$CFf?$CJ?$AA@ 0049b6b4     portals.obj
 0002:000026c4       ??_C@_0L@EKPDOEAF@?$DMNO?5BRUSH?$DO?$AA@ 0049b6c4     portals.obj
 0002:000026d0       __real@46801000            0049b6d0     portals.obj
 0002:000026d4       __real@c6801000            0049b6d4     portals.obj
 0002:000026d8       ??_C@_0CA@LKBBLMDG@WARNING?3?5node?5without?5a?5volume?6?$AA@ 0049b6d8     portals.obj
 0002:000026f8       ??_C@_0EH@PAHANHPO@MAX_MAP_PORTALVERTS?5?$CIprobably?5a?5@ 0049b6f8     portals.obj
 0002:00002740       ??_C@_0DJ@GJPMBHMF@Warning?3?5area?5portal?5has?5?$CFd?5vert@ 0049b740     portals.obj
 0002:0000277c       ??_C@_0BE@IDCALIKK@?$CF5i?5numareaportals?6?$AA@ 0049b77c     portals.obj
 0002:00002790       ??_C@_0O@GFHNKNIP@?$CF5i?5numareas?6?$AA@ 0049b790     portals.obj
 0002:000027a0       ??_C@_0FB@FBBGELIA@Map?5is?5split?5into?5too?5many?5uniqu@ 0049b7a0     portals.obj
 0002:000027f4       ??_C@_02PHMGELLB@?6?6?$AA@ 0049b7f4     portals.obj
 0002:000027f8       ??_C@_0L@MOODCIAB@Brush?5?$CFd?3?5?$AA@ 0049b7f8     portals.obj
 0002:00002804       ??_C@_0BG@GECLGKNP@Candidate?5brush?5IDs?3?5?$AA@ 0049b804     portals.obj
 0002:00002820       ??_C@_0EN@FHDPIEOF@Check?5for?5a?5huge?5brush?5enclosing@ 0049b820     portals.obj
 0002:00002870       ??_C@_0FD@FPKNDADB@This?5means?5that?5none?5of?5the?5brus@ 0049b870     portals.obj
 0002:000028c4       ??_C@_0DF@BEFAKAHB@viscontents?5?$CInode?50?5contents?5?$FO?5n@ 0049b8c4     portals.obj
 0002:000028fc       ??_C@_0BF@IKJGHNIN@Leaf?51?5contents?3?5?$CFs?6?$AA@ 0049b8fc     portals.obj
 0002:00002914       ??_C@_0BF@CEPOOMBM@Leaf?50?5contents?3?5?$CFs?6?$AA@ 0049b914     portals.obj
 0002:00002930       ??_C@_0GJ@EOHGFIKL@?6FindPortalSide?3?5Couldn?8t?5find?5a@ 0049b930     portals.obj
 0002:0000299c       ??_C@_0DH@NFIHIFFG@?$CK?$CK?$CK?5Suppressing?5further?5FindPort@ 0049b99c     portals.obj
 0002:000029d4       ??_C@_0CE@DFFGJHBH@WARNING?3?5side?5not?5found?5for?5port@ 0049b9d4     portals.obj
 0002:000029f8       __real@49742400            0049b9f8     portals.obj
 0002:000029fc       ??_C@_0BK@GOPFEKFA@?9?9?9?5MarkVisibleSides?5?9?9?9?6?$AA@ 0049b9fc     portals.obj
 0002:00002a18       ??_C@_03JLNFKLOC@?$CFi?5?$AA@ 0049ba18     prtfile.obj
 0002:00002a1c       ??_C@_02KCKGHPCA@?$CJ?5?$AA@ 0049ba1c     prtfile.obj
 0002:00002a20       ??_C@_01ODHLEDKK@?$CI?$AA@ 0049ba20     prtfile.obj
 0002:00002a24       ??_C@_09IKGGOGBI@?$CFi?5?$CFi?5?$CFi?5?$AA@ 0049ba24     prtfile.obj
 0002:00002a30       __real@3fefae147ae147ae    0049ba30     prtfile.obj
 0002:00002a38       ??_C@_0BA@IGLBFDOH@?$CF5i?5visportals?6?$AA@ 0049ba38     prtfile.obj
 0002:00002a48       ??_C@_0BB@EDOGNKFI@?$CF5i?5visclusters?6?$AA@ 0049ba48     prtfile.obj
 0002:00002a5c       ??_C@_03OFAPEBGM@?$CFs?6?$AA@ 0049ba5c     prtfile.obj
 0002:00002a60       ??_C@_04MNCCIBNO@PRT1?$AA@ 0049ba60     prtfile.obj
 0002:00002a68       ??_C@_0BB@KKAAPNA@Error?5opening?5?$CFs?$AA@ 0049ba68     prtfile.obj
 0002:00002a7c       ??_C@_0CB@PPJANFIF@Building?5visibility?5clusters?4?4?4?6@ 0049ba7c     prtfile.obj
 0002:00002aa0       ??_C@_0O@LMKEHAHJ@writing?5?$CFs?4?4?4?$AA@ 0049baa0     prtfile.obj
 0002:00002ab0       ??_C@_06HLEIHIOA@?$CFs?4prt?$AA@ 0049bab0     prtfile.obj
 0002:00002ab8       ??_C@_0BJ@PPHGGLDL@?9?9?9?5WritePortalFile?5?9?9?9?6?$AA@ 0049bab8     prtfile.obj
 0002:00002ad4       ??_C@_0P@PAEMGLHD@VFileSystem017?$AA@ 0049bad4     scratchpad3d.obj
 0002:00002ae4       ??_C@_0BB@DHLFOMEN@filesystem_stdio?$AA@ 0049bae4     scratchpad3d.obj
 0002:00002af8       ??_C@_02JDPG@rb?$AA@       0049baf8     scratchpad3d.obj
 0002:00002afc       __real@42c80000            0049bafc     scratchpad3d.obj
 0002:00002b08       ??_C@_0M@IHGNALJG@allowstatic?$AA@ 0049bb08     staticprop.obj
 0002:00002b14       ??_C@_09OMCEPKNN@prop_data?$AA@ 0049bb14     staticprop.obj
 0002:00002b20       ??_C@_0CP@JIJCKMIO@Error?5Vertex?5File?5?$CFs?5checksum?5?$CFd@ 0049bb20     staticprop.obj
 0002:00002b50       ??_C@_0CO@EPFJDMKK@Error?5Vertex?5File?5?$CFs?5version?5?$CFd?5@ 0049bb50     staticprop.obj
 0002:00002b80       ??_C@_0CJ@LHDPNPII@Error?5Vertex?5File?5?$CFs?5id?5?$CFd?5shoul@ 0049bb80     staticprop.obj
 0002:00002bac       ??_C@_0BP@FEBLCPLO@Bad?5size?5for?5vertex?5data?5?$CC?$CFs?$CC?6?$AA@ 0049bbac     staticprop.obj
 0002:00002bcc       ??_C@_0CB@HKBKLBIF@Unable?5to?5load?5vertex?5data?5?$CC?$CFs?$CC?6@ 0049bbcc     staticprop.obj
 0002:00002bf0       ??_C@_04FIJFNMIG@?4vvd?$AA@ 0049bbf0     staticprop.obj
 0002:00002bf8       ??_C@_07FLCBLKFO@models?1?$AA@ 0049bbf8     staticprop.obj
 0002:00002c00       ??_C@_0GC@BHCCOAEK@Error?$CB?5?$CFs?5using?5model?5?$CC?$CFs?$CC?0?5whic@ 0049bc00     staticprop.obj
 0002:00002c68       ??_C@_0EP@HKFHEIGH@Error?$CB?5To?5use?5model?5?$CC?$CFs?$CC?6?5?5?5?5?5?5w@ 0049bc68     staticprop.obj
 0002:00002cb8       ??_C@_04LGCIMDIF@IDAG?$AA@ 0049bcb8     staticprop.obj
 0002:00002cc0       ??_C@_04MIGFPFAJ@IDST?$AA@ 0049bcc0     staticprop.obj
 0002:00002cc8       ??_C@_0BD@IMPDAIMD@staticprop?$CF03d?4txt?$AA@ 0049bcc8     staticprop.obj
 0002:00002cdc       ??_C@_0BH@KOMFDDOL@Bad?5geometry?5on?5?$CC?$CFs?$CC?$CB?6?$AA@ 0049bcdc     staticprop.obj
 0002:00002cf4       ??_C@_0M@FOINAKII@prop_static?$AA@ 0049bcf4     staticprop.obj
 0002:00002d00       ??_C@_0DD@EDIJEFGC@Static?5prop?5?$CFs?5outside?5the?5map?5?$CI@ 0049bd00     staticprop.obj
 0002:00002d34       ??_C@_0P@MIILKHBP@lightingorigin?$AA@ 0049bd34     staticprop.obj
 0002:00002d44       ??_C@_09IPECPEGI@fadescale?$AA@ 0049bd44     staticprop.obj
 0002:00002d50       ??_C@_0BA@MNGAFPDH@screenspacefade?$AA@ 0049bd50     staticprop.obj
 0002:00002d60       ??_C@_0BF@JGIMAFIJ@disableselfshadowing?$AA@ 0049bd60     staticprop.obj
 0002:00002d78       ??_C@_0BG@ODLFPOKJ@disablevertexlighting?$AA@ 0049bd78     staticprop.obj
 0002:00002d90       ??_C@_0P@KAMOLJAG@disableshadows?$AA@ 0049bd90     staticprop.obj
 0002:00002da0       ??_C@_0O@MANKHPFF@ignorenormals?$AA@ 0049bda0     staticprop.obj
 0002:00002db0       ??_C@_04NHPAFEHJ@skin?$AA@ 0049bdb0     staticprop.obj
 0002:00002db8       ??_C@_0M@NGBNJMIL@static_prop?$AA@ 0049bdb8     staticprop.obj
 0002:00002dc4       ??_C@_0O@EJEKIFNM@info_lighting?$AA@ 0049bdc4     staticprop.obj
 0002:00002dd4       ??_C@_01HIHLOKLC@1?$AA@    0049bdd4     textures.obj
 0002:00002dd8       ??_C@_04LOAJBDKD@true?$AA@ 0049bdd8     textures.obj
 0002:00002de0       ??_C@_0O@IFAMPFIH@?$CFcompileSlime?$AA@ 0049bde0     textures.obj
 0002:00002df0       ??_C@_0N@KOCEKFOI@UnlitGeneric?$AA@ 0049bdf0     textures.obj
 0002:00002e00       ??_C@_0BC@CEHNDAAO@?$CFcompileKeepLight?$AA@ 0049be00     textures.obj
 0002:00002e14       ??_C@_0P@OENLNILK@?$CFcompileDetail?$AA@ 0049be14     textures.obj
 0002:00002e24       ??_C@_0BB@OCMEMLKF@?$CFcompileBlockLOS?$AA@ 0049be24     textures.obj
 0002:00002e38       ??_C@_0BB@NGKLKFOF@?$CFcompileNonsolid?$AA@ 0049be38     textures.obj
 0002:00002e4c       ??_C@_0BC@DEINFPLN@?$CFcompileInvisible?$AA@ 0049be4c     textures.obj
 0002:00002e60       ??_C@_0P@KFJIHOEH@?$CFcompileNoDraw?$AA@ 0049be60     textures.obj
 0002:00002e70       ??_C@_0BE@PDMIKGIN@?$CFcompilePassBullets?$AA@ 0049be70     textures.obj
 0002:00002e84       ??_C@_09BFAOOCNM@?$CFnoPortal?$AA@ 0049be84     textures.obj
 0002:00002e90       ??_C@_0P@MGMAHFMA@?$CFcompileLadder?$AA@ 0049be90     textures.obj
 0002:00002ea0       ??_C@_0O@EPOOCJEM@?$CFcompileWater?$AA@ 0049bea0     textures.obj
 0002:00002eb0       ??_C@_0BA@GKDMGPNA@?$CFcompileNoLight?$AA@ 0049beb0     textures.obj
 0002:00002ec0       ??_C@_0BA@DHJNKBAM@?$CFcompileTrigger?$AA@ 0049bec0     textures.obj
 0002:00002ed0       ??_C@_0P@GNMDKOGB@?$CFcompileNoChop?$AA@ 0049bed0     textures.obj
 0002:00002ee0       ??_C@_0BA@DEIOCLID@?$CFcompileNpcClip?$AA@ 0049bee0     textures.obj
 0002:00002ef0       ??_C@_0M@FALIBANK@?$CFplayerClip?$AA@ 0049bef0     textures.obj
 0002:00002efc       ??_C@_0N@MLJBDBBL@?$CFcompileClip?$AA@ 0049befc     textures.obj
 0002:00002f0c       ??_C@_0P@HHCCNAAO@?$CFcompileOrigin?$AA@ 0049bf0c     textures.obj
 0002:00002f1c       ??_C@_0N@DGKGJOCA@?$CFcompileSkip?$AA@ 0049bf1c     textures.obj
 0002:00002f2c       ??_C@_0N@OKLMCDLJ@?$CFcompileHint?$AA@ 0049bf2c     textures.obj
 0002:00002f3c       ??_C@_0O@MKHJHEJH@?$CFcompile2DSky?$AA@ 0049bf3c     textures.obj
 0002:00002f4c       ??_C@_0M@LPBDLFMH@?$CFcompileSky?$AA@ 0049bf4c     textures.obj
 0002:00002f58       ??_C@_0BJ@FGKNAKCJ@Material?5not?5found?$CB?3?5?$CFs?6?$AA@ 0049bf58     textures.obj
 0002:00002f74       ??_C@_0CB@NKDKDMKG@Too?5many?5unique?5textures?0?5max?5?$CFd@ 0049bf74     textures.obj
 0002:00002f98       ??_C@_0DK@FPPKOMPC@Can?8t?5find?5surfaceprop?5?$CFs?5for?5ma@ 0049bf98     textures.obj
 0002:00002fd4       ??_C@_0N@CIFOINKH@$surfaceprop?$AA@ 0049bfd4     textures.obj
 0002:00002fe4       ??_C@_0DP@BKEKMNEN@Can?8t?5find?5surfacepropblend?5?$CFs?5f@ 0049bfe4     textures.obj
 0002:00003024       ??_C@_0O@KFOKDMLH@$surfaceprop2?$AA@ 0049c024     textures.obj
 0002:00003034       ??_C@_0CD@GMKDFIIB@WARNING?3?5material?5not?5found?3?5?$CC?$CFs@ 0049c034     textures.obj
 0002:00003058       ??_C@_0CM@BNGGNJNC@Too?5many?5unique?5texture?5mappings@ 0049c058     textures.obj
 0002:00003084       ??_C@_04DAMGJPCA@file?$AA@ 0049c084     textures.obj
 0002:0000308c       ??_C@_04FOKBGDA@GAME?$AA@  0049c08c     textures.obj
 0002:00003094       ??_C@_0CH@KEKFIONI@scripts?1surfaceproperties_manife@ 0049c094     textures.obj
 0002:000030bc       ??_C@_0BI@ENHKJIPO@VPhysicsSurfaceProps001?$AA@ 0049c0bc     textures.obj
 0002:000030d8       ??_C@_0GL@JNBMOEPF@FindOrCreateTexInfo?3?5?5Tried?5to?5c@ 0049c0d8     textures.obj
 0002:00003144       __real@3bb60b61            0049c144     textures.obj
 0002:00003148       __real@43870000            0049c148     textures.obj
 0002:0000314c       __real@42b40000            0049c14c     textures.obj
 0002:00003150       __real@3d800000            0049c150     textures.obj
 0002:00003154       ??_C@_0BM@PHNCGPMA@PruneNodes?3?5node?9?$DObrushlist?$AA@ 0049c154     tree.obj
 0002:00003170       ??_C@_0BL@NPACBAIG@?$CBnode?9?$DOfaces?5with?5children?$AA@ 0049c170     tree.obj
 0002:0000318c       ??_C@_0CG@LNPBEHAO@node?9?$DOfaces?5seperating?5CONTENTS_@ 0049c18c     tree.obj
 0002:000031b4       ??_C@_0BC@CPHJDNDL@?$CF5i?5pruned?5nodes?6?$AA@ 0049c1b4     tree.obj
 0002:000031c8       ??_C@_0BE@MHMEFPNF@?9?9?9?5PruneNodes?5?9?9?9?6?$AA@ 0049c1c8     tree.obj
 0002:000031dc       __real@48800000            0049c1dc     utilmatlib.obj
 0002:000031e0       __real@c8800000            0049c1e0     utilmatlib.obj
 0002:000031e4       __real@40200000            0049c1e4     utilmatlib.obj
 0002:000031e8       __real@437f0000            0049c1e8     utilmatlib.obj
 0002:000031ec       __real@400ccccd            0049c1ec     utilmatlib.obj
 0002:000031f0       ??_C@_0DH@PCDCEHLE@Could?5not?5start?5the?5empty?5shader@ 0049c1f0     utilmatlib.obj
 0002:00003228       ??_C@_0BD@PBEAPLLE@shaderapiempty?4dll?$AA@ 0049c228     utilmatlib.obj
 0002:0000323c       ??_C@_0DP@FFDBPPE@Could?5not?5find?5factory?5interface@ 0049c23c     utilmatlib.obj
 0002:00003280       ??_C@_0FP@CECICCJC@Could?5not?5get?5the?5material?5syste@ 0049c280     utilmatlib.obj
 0002:000032e0       ??_C@_0BD@JIHPMPMC@VMaterialSystem079?$AA@ 0049c2e0     utilmatlib.obj
 0002:000032f4       ??_C@_0BP@LKELEPKN@Can?8t?5load?5MaterialSystem?4dll?6?$AA@ 0049c2f4     utilmatlib.obj
 0002:00003314       ??_C@_0BD@PEHNKAML@materialsystem?4dll?$AA@ 0049c314     utilmatlib.obj
 0002:00003328       ??_C@_0P@IIPEELKE@Other?5textures?$AA@ 0049c328     utilmatlib.obj
 0002:00003338       ??_C@_0O@BJKHNGF@$reflectivity?$AA@ 0049c338     utilmatlib.obj
 0002:00003348       ??_C@_0CP@HJMGEEJC@?$CD?$CD?$CD?$CD?$CD?$CD?$CD?$CD?$CD?$CD?$CD?$CD?$CD?$CD?$CD?5block?5?$CF2i?0?$CF2i?5?$CD?$CD@ 0049c348     vbsp.obj
 0002:00003378       ??_C@_0DJ@FOPOCIBH@bmodel?5?$CFd?5has?5no?5head?5node?5?$CIclas@ 0049c378     vbsp.obj
 0002:000033b4       ??_C@_0O@HDHPHCPK@func_occluder?$AA@ 0049c3b4     vbsp.obj
 0002:000033c4       ??_C@_0P@NMEBHKDB@occludernumber?$AA@ 0049c3c4     vbsp.obj
 0002:000033d4       ??_C@_0N@FNMJMILG@vphysics?4dll?$AA@ 0049c3d4     vbsp.obj
 0002:000033e4       ??_C@_05NKLPODEL@?$CC?$CFs?$CC?5?$AA@ 0049c3e4     vbsp.obj
 0002:000033ec       ??_C@_0P@IFCDDMDK@Command?5line?3?5?$AA@ 0049c3ec     vbsp.obj
 0002:000033fc       ??_C@_0DK@CNKOIEOA@Occluder?5?$CC?$CFs?$CC?5straddles?5multiple@ 0049c3fc     vbsp.obj
 0002:00003438       ??_C@_09GMFECJDN@?$DMno?5name?$DO?$AA@ 0049c438     vbsp.obj
 0002:00003444       ??_C@_0DN@DNJAMNLP@Error?$CB?5Entity?5sky_camera?5in?5soli@ 0049c444     vbsp.obj
 0002:00003484       ??_C@_0L@DFIGMJBA@sky_camera?$AA@ 0049c484     vbsp.obj
 0002:00003490       ??_C@_0BE@MFAIICKC@?9?9?9?5MAP?5LEAKED?5?9?9?9?6?$AA@ 0049c490     vbsp.obj
 0002:000034a4       ??_C@_0N@NOHCKMO@WriteBSP?4?4?4?6?$AA@ 0049c4a4     vbsp.obj
 0002:000034b4       ??_C@_0P@BPJPCEDL@PruneNodes?4?4?4?6?$AA@ 0049c4b4     vbsp.obj
 0002:000034c4       ??_C@_0O@IMCAPANA@FixTjuncs?4?4?4?6?$AA@ 0049c4c4     vbsp.obj
 0002:000034d4       ??_C@_0BC@CLHFLLOE@Building?5Faces?4?4?4?$AA@ 0049c4d4     vbsp.obj
 0002:000034e8       ??_C@_0BC@DGHLLCEI@?$CK?$CK?$CK?$CK?5leaked?5?$CK?$CK?$CK?$CK?6?$AA@ 0049c4e8     vbsp.obj
 0002:000034fc       ??_C@_06KMNNMBLO@?$CF?920s?5?$AA@ 0049c4fc     vbsp.obj
 0002:00003504       ??_C@_0BF@PDAKPJJC@ProcessBlock_Thread?3?$AA@ 0049c504     vbsp.obj
 0002:0000351c       ??_C@_0CO@IHAFINE@?9?9?9?9?9?9?9?9?9?9?9?9?9?9?9?9?9?9?9?9?9?9?9?9?9?9?9?9?9?9?9?9@ 0049c51c     vbsp.obj
 0002:0000354c       __real@3a800000            0049c54c     vbsp.obj
 0002:00003550       __real@ff7fffff            0049c550     vbsp.obj
 0002:00003554       ??_C@_0CK@FBCLDLJF@?$CD?$CD?$CD?$CD?$CD?$CD?$CD?$CD?$CD?$CD?$CD?$CD?$CD?$CD?$CD?5model?5?$CFi?5?$CD?$CD?$CD?$CD?$CD?$CD?$CD@ 0049c554     vbsp.obj
 0002:00003580       ??_C@_0M@JMMNIPIN@?$CFs?5elapsed?6?$AA@ 0049c580     vbsp.obj
 0002:0000358c       ??_C@_09CPDHAACC@stale?4txt?$AA@ 0049c58c     vbsp.obj
 0002:00003598       ??_C@_05BFAEFKPM@stale?$AA@ 0049c598     vbsp.obj
 0002:000035a0       ??_C@_04HKNAPCJF@?4vmf?$AA@ 0049c5a0     vbsp.obj
 0002:000035a8       ??_C@_0BC@FEKMMIHD@materialPath?3?5?$CFs?6?$AA@ 0049c5a8     vbsp.obj
 0002:000035bc       ??_C@_0M@OJGAHGGE@?$CFsmaterials?$AA@ 0049c5bc     vbsp.obj
 0002:000035c8       ??_C@_06BEJGOBHG@?$CFs?4log?$AA@ 0049c5c8     vbsp.obj
 0002:000035d0       ??_C@_0KEN@GAFAFBAJ@Other?5options?5?5?3?6?5?5?9novconfig?5?5?5@ 0049c5d0     vbsp.obj
 0002:00004020       ??_C@_0DLF@GKGIKNMN@usage?5?5?3?5vbsp?5?$FLoptions?4?4?4?$FN?5mapfi@ 0049d020     vbsp.obj
 0002:000043d8       ??_C@_0BM@FHMHAFJB@VBSP?3?5Unknown?5option?5?$CC?$CFs?$CC?6?6?$AA@ 0049d3d8     vbsp.obj
 0002:000043f4       ??_C@_0BA@CJFLDFHJ@verbose?5?$DN?5true?6?$AA@ 0049d3f4     vbsp.obj
 0002:00004404       ??_C@_0P@EOOCKJDE@?9FullMinidumps?$AA@ 0049d404     vbsp.obj
 0002:00004414       ??_C@_0BA@MHKJJLPK@?9nodrawtriggers?$AA@ 0049d414     vbsp.obj
 0002:00004424       ??_C@_0BC@ECNPNNFD@?9replacematerials?$AA@ 0049d424     vbsp.obj
 0002:00004438       ??_C@_0P@KNLBLKHC@?9novirtualmesh?$AA@ 0049d438     vbsp.obj
 0002:00004448       ??_C@_0BD@JFEPMFFD@?9allowdetailcracks?$AA@ 0049d448     vbsp.obj
 0002:0000445c       ??_C@_05JOPKDNB@?9xbox?$AA@ 0049d45c     vbsp.obj
 0002:00004464       ??_C@_0O@FEHBJGCK@?9keepstalezip?$AA@ 0049d464     vbsp.obj
 0002:00004474       ??_C@_05FACLEBO@?9game?$AA@ 0049d474     vbsp.obj
 0002:0000447c       ??_C@_09NFNCOJPN@?9vproject?$AA@ 0049d47c     vbsp.obj
 0002:00004488       ??_C@_06NIKDPCHB@?9steam?$AA@ 0049d488     vbsp.obj
 0002:00004490       ??_C@_0M@OJHILNKA@?9allowdebug?$AA@ 0049d490     vbsp.obj
 0002:0000449c       ??_C@_0L@JACELBLD@?9NoVConfig?$AA@ 0049d49c     vbsp.obj
 0002:000044a8       ??_C@_0BA@HBAANLBK@?9lightifmissing?$AA@ 0049d4a8     vbsp.obj
 0002:000044b8       ??_C@_04FCIJMIMA@?9low?$AA@ 0049d4b8     vbsp.obj
 0002:000044c0       ??_C@_08HBKMCN@?9bumpall?$AA@ 0049d4c0     vbsp.obj
 0002:000044cc       ??_C@_0O@MPJAIIJE@DXLevel?5?$DN?5?$CFd?6?$AA@ 0049d4cc     vbsp.obj
 0002:000044dc       ??_C@_08GIKFLJE@?9dxlevel?$AA@ 0049d4dc     vbsp.obj
 0002:000044e8       ??_C@_0P@HDPEMMMK@?9minluxelscale?$AA@ 0049d4e8     vbsp.obj
 0002:000044f8       ??_C@_0M@FOIFAPBE@?9luxelscale?$AA@ 0049d4f8     vbsp.obj
 0002:00004504       ??_C@_04PBCBKGHJ@?1tmp?$AA@ 0049d504     vbsp.obj
 0002:0000450c       ??_C@_07NHBNKOHO@?9tmpout?$AA@ 0049d50c     vbsp.obj
 0002:00004514       ??_C@_0BK@IBFOGJLN@Enabled?5vis?5in?53d?5skybox?6?$AA@ 0049d514     vbsp.obj
 0002:00004530       ??_C@_0N@EJPCONLA@?9forceskyvis?$AA@ 0049d530     vbsp.obj
 0002:00004540       ??_C@_0CL@HKKFBLKO@Dumping?5static?5props?5to?5staticpr@ 0049d540     vbsp.obj
 0002:0000456c       ??_C@_0BA@PJFEFJJO@?9dumpstaticprop?$AA@ 0049d56c     vbsp.obj
 0002:0000457c       ??_C@_0CM@LBENMKOK@Dumping?5collision?5models?5to?5coll@ 0049d57c     vbsp.obj
 0002:000045a8       ??_C@_0N@GFFGPNIL@?9dumpcollide?$AA@ 0049d5a8     vbsp.obj
 0002:000045b8       ??_C@_0BI@GPFNOONF@blocks?3?5?$CFi?0?$CFi?5to?5?$CFi?0?$CFi?6?$AA@ 0049d5b8     vbsp.obj
 0002:000045d0       ??_C@_07OJNAHDHJ@?9blocks?$AA@ 0049d5d0     vbsp.obj
 0002:000045d8       ??_C@_0O@LDGKLHEB@block?3?5?$CFi?0?$CFi?6?$AA@ 0049d5d8     vbsp.obj
 0002:000045e8       ??_C@_06HKNKGMIA@?9block?$AA@ 0049d5e8     vbsp.obj
 0002:000045f0       ??_C@_0BD@BFABFADB@snap?5axial?5?$DN?5true?6?$AA@ 0049d5f0     vbsp.obj
 0002:00004604       ??_C@_0L@GMPPNCKE@?9snapaxial?$AA@ 0049d604     vbsp.obj
 0002:00004610       ??_C@_0BI@HFJEOMHB@verboseentities?5?$DN?5true?6?$AA@ 0049d610     vbsp.obj
 0002:00004628       ??_C@_0BB@HMBOKPMN@?9verboseentities?$AA@ 0049d628     vbsp.obj
 0002:0000463c       ??_C@_0BB@FBDMOHFN@leaktest?5?$DN?5true?6?$AA@ 0049d63c     vbsp.obj
 0002:00004650       ??_C@_09NGDGFAIL@?9leaktest?$AA@ 0049d650     vbsp.obj
 0002:0000465c       ??_C@_0BC@FCFCFNJN@microvolume?5?$DN?5?$CFf?6?$AA@ 0049d65c     vbsp.obj
 0002:00004670       ??_C@_06HADCOCNO@?9micro?$AA@ 0049d670     vbsp.obj
 0002:00004678       ??_C@_0BC@HELGDFAB@onlyprops?5?$DN?5true?6?$AA@ 0049d678     vbsp.obj
 0002:0000468c       ??_C@_0L@CIBPLCFK@?9onlyprops?$AA@ 0049d68c     vbsp.obj
 0002:00004698       ??_C@_0BB@PAELMIAC@onlyents?5?$DN?5true?6?$AA@ 0049d698     vbsp.obj
 0002:000046ac       ??_C@_09FNJHALDJ@?9onlyents?$AA@ 0049d6ac     vbsp.obj
 0002:000046b8       ??_C@_0BD@MHFIDIPG@fulldetail?5?$DN?5true?6?$AA@ 0049d6b8     vbsp.obj
 0002:000046cc       ??_C@_0M@LBOAMCBH@?9fulldetail?$AA@ 0049d6cc     vbsp.obj
 0002:000046d8       ??_C@_0BB@PCIJEAJB@nodetail?5?$DN?5true?6?$AA@ 0049d6d8     vbsp.obj
 0002:000046ec       ??_C@_09BNPKADLK@?9nodetail?$AA@ 0049d6ec     vbsp.obj
 0002:000046f8       ??_C@_0BB@PHJFPDJO@nosubdiv?5?$DN?5true?6?$AA@ 0049d6f8     vbsp.obj
 0002:0000470c       ??_C@_09NEAGMLKK@?9nosubdiv?$AA@ 0049d70c     vbsp.obj
 0002:00004718       ??_C@_0BF@HBKNCEF@nomergewater?5?$DN?5true?6?$AA@ 0049d718     vbsp.obj
 0002:00004730       ??_C@_0O@IOEPNIGE@?9nomergewater?$AA@ 0049d730     vbsp.obj
 0002:00004740       ??_C@_0BA@BKKNDMCH@nomerge?5?$DN?5true?6?$AA@ 0049d740     vbsp.obj
 0002:00004750       ??_C@_08KDELMOMJ@?9nomerge?$AA@ 0049d750     vbsp.obj
 0002:0000475c       ??_C@_0BA@NEEAHJI@noprune?5?$DN?5true?6?$AA@ 0049d75c     vbsp.obj
 0002:0000476c       ??_C@_08FMMFJHCI@?9noprune?$AA@ 0049d76c     vbsp.obj
 0002:00004778       ??_C@_0O@LDPAGHJG@noopt?5?$DN?5true?6?$AA@ 0049d778     vbsp.obj
 0002:00004788       ??_C@_06JJICMFJM@?9noopt?$AA@ 0049d788     vbsp.obj
 0002:00004790       ??_C@_0BA@BMLCDGPG@nowater?5?$DN?5true?6?$AA@ 0049d790     vbsp.obj
 0002:000047a0       ??_C@_08NHOKEGNA@?9nowater?$AA@ 0049d7a0     vbsp.obj
 0002:000047ac       ??_C@_0BA@PHPCINHD@notjunc?5?$DN?5true?6?$AA@ 0049d7ac     vbsp.obj
 0002:000047bc       ??_C@_08MBJOKOPL@?9notjunc?$AA@ 0049d7bc     vbsp.obj
 0002:000047c8       ??_C@_0BA@FEIPGCDA@noshare?5?$DN?5true?6?$AA@ 0049d7c8     vbsp.obj
 0002:000047d8       ??_C@_08DKEGPAHJ@?9noshare?$AA@ 0049d7d8     vbsp.obj
 0002:000047e4       ??_C@_0O@ODIBHGPN@nocsg?5?$DN?5true?6?$AA@ 0049d7e4     vbsp.obj
 0002:000047f4       ??_C@_06LAPNIFOP@?9nocsg?$AA@ 0049d7f4     vbsp.obj
 0002:000047fc       ??_C@_0P@KLOLGE@noweld?5?$DN?5true?6?$AA@ 0049d7fc     vbsp.obj
 0002:0000480c       ??_C@_07NNNDHKCP@?9noweld?$AA@ 0049d80c     vbsp.obj
 0002:00004814       ??_C@_08FBJJFDKJ@?9verbose?$AA@ 0049d814     vbsp.obj
 0002:00004820       ??_C@_02EJEOCNCO@?9v?$AA@  0049d820     vbsp.obj
 0002:00004824       ??_C@_07NHFHKBEH@?9glview?$AA@ 0049d824     vbsp.obj
 0002:0000482c       ??_C@_08CFGFJOBF@?9threads?$AA@ 0049d82c     vbsp.obj
 0002:00004838       ??_C@_0CA@CKNGMBPO@Valve?5Software?5?9?5vbsp?4exe?5?$CI?$CFs?$CJ?6?$AA@ 0049d838     vbsp.obj
 0002:00004858       ??_C@_0M@EJMLDBD@May?510?52010?$AA@ 0049d858     vbsp.obj
 0002:00004864       ??_C@_04KHOIINPK@vbsp?$AA@ 0049d864     vbsp.obj
 0002:0000486c       ??_C@_09DNECJBKD@developer?$AA@ 0049d86c     vbsp.obj
 0002:00004878       ??_C@_0EG@LAHCHCLD@Generated?5worldvertextransition?5@ 0049d878     worldvertextransitionfixup.obj
 0002:000048c0       ??_C@_0BF@LNCGHEFN@maps?1?$CFs?1?$CFs_wvt_patch?$AA@ 0049d8c0     worldvertextransitionfixup.obj
 0002:000048d8       ??_C@_0BL@MBEPANAB@Patching?5WVT?5material?3?5?$CFs?6?$AA@ 0049d8d8     worldvertextransitionfixup.obj
 0002:000048f4       ??_C@_0BF@JNPIKMOF@$BASETEXTURENOENVMAP?$AA@ 0049d8f4     worldvertextransitionfixup.obj
 0002:0000490c       ??_C@_0BA@IEBBPPCM@$maskedblending?$AA@ 0049d90c     worldvertextransitionfixup.obj
 0002:0000491c       ??_C@_0BG@BLNABPGE@$blendmodulatetexture?$AA@ 0049d91c     worldvertextransitionfixup.obj
 0002:00004934       ??_C@_0BG@HFLMEPDJ@$basetexture2noenvmap?$AA@ 0049d934     worldvertextransitionfixup.obj
 0002:0000494c       ??_C@_0M@OGEHLGNN@$bumpframe2?$AA@ 0049d94c     worldvertextransitionfixup.obj
 0002:00004958       ??_C@_09HGBMDNKK@$bumpmap2?$AA@ 0049d958     worldvertextransitionfixup.obj
 0002:00004964       ??_C@_0O@FOMCHCMA@$basetexture2?$AA@ 0049d964     worldvertextransitionfixup.obj
 0002:00004974       ??_C@_0BD@FHIKDCGP@LightmappedGeneric?$AA@ 0049d974     worldvertextransitionfixup.obj
 0002:00004988       ??_C@_0L@LJANLFFK@_wvt_patch?$AA@ 0049d988     worldvertextransitionfixup.obj
 0002:00004994       ??_C@_0BG@EKOIMHEG@worldvertextransition?$AA@ 0049d994     worldvertextransitionfixup.obj
 0002:000049ac       ??_C@_0CH@CABCCPPD@Too?5many?5detail?5brush?5faces?0?5max@ 0049d9ac     writebsp.obj
 0002:000049d4       ??_C@_0N@CHDONEPJ@Bad?5leafface?$AA@ 0049d9d4     writebsp.obj
 0002:000049e4       ??_C@_0CH@JAONPFDO@Too?5many?5brushes?5in?5one?5leaf?0?5ma@ 0049d9e4     writebsp.obj
 0002:00004a0c       ??_C@_0BO@KPBGGBDO@Too?5many?5BSP?5leaves?0?5max?5?$DN?5?$CFd?$AA@ 0049da0c     writebsp.obj
 0002:00004a30       ??_C@_0EC@KGDDHLOB@Too?5much?5brush?5geometry?5in?5bsp?0?5@ 0049da30     writebsp.obj
 0002:00004a74       ??_C@_0CA@CIKMMFBO@Too?5many?5faces?5in?5map?0?5max?5?$DN?5?$CFd?$AA@ 0049da74     writebsp.obj
 0002:00004a94       ??_C@_03JLINDLFM@?$CK?$CFi?$AA@ 0049da94     writebsp.obj
 0002:00004a98       ??_C@_0N@ODLHJNBO@defaultstyle?$AA@ 0049da98     writebsp.obj
 0002:00004aa8       ??_C@_05IAKJCFIM@style?$AA@ 0049daa8     writebsp.obj
 0002:00004ab0       ??_C@_0DH@JBALGJNA@Too?5many?5switched?5lights?5?$CIerror?5@ 0049dab0     writebsp.obj
 0002:00004ae8       ??_C@_0O@JOPJPNEO@light_dynamic?$AA@ 0049dae8     writebsp.obj
 0002:00004af8       ??_C@_05OEPGNJB@light?$AA@ 0049daf8     writebsp.obj
 0002:00004b00       ??_C@_0BG@FCCCHMGD@cheapwaterenddistance?$AA@ 0049db00     writebsp.obj
 0002:00004b18       ??_C@_04OJDKMIMG@2000?$AA@ 0049db18     writebsp.obj
 0002:00004b20       ??_C@_0BI@IJDCAKBF@cheapwaterstartdistance?$AA@ 0049db20     writebsp.obj
 0002:00004b38       ??_C@_04KOJKLCBG@1000?$AA@ 0049db38     writebsp.obj
 0002:00004b40       ??_C@_0EH@ILOLGID@Water?5found?5with?5no?5water_lod_co@ 0049db40     writebsp.obj
 0002:00004b88       ??_C@_0BC@NGKELJID@water_lod_control?$AA@ 0049db88     writebsp.obj
 0002:00004b9c       ??_C@_0CH@MFDCAFMG@Too?5many?5brush?5models?5in?5map?0?5ma@ 0049db9c     writebsp.obj
 0002:00004bc4       ??_C@_0L@EHFOKKK@world_maxs?$AA@ 0049dbc4     writebsp.obj
 0002:00004bd0       ??_C@_0L@NJGKBNIH@world_mins?$AA@ 0049dbd0     writebsp.obj
 0002:00004bdc       ??_C@_0BM@EIABJHKK@NODRAW?5on?5terrain?5surface?$CB?6?$AA@ 0049dbdc     writebsp.obj
 0002:00004bf8       ??_C@_0BP@NGOCBDLI@WriteDrawNodes_r?3?5odd?5planenum?$AA@ 0049dbf8     writebsp.obj
 0002:00004c18       ??_C@_0O@FHHLJHDC@MAX_MAP_NODES?$AA@ 0049dc18     writebsp.obj
 0002:00004c28       ??_C@_0BE@CMKAOOGK@?$CF5i?5original?5faces?6?$AA@ 0049dc28     writebsp.obj
 0002:00004c3c       ??_C@_0L@LBCDOAFM@?$CF5i?5faces?6?$AA@ 0049dc3c     writebsp.obj
 0002:00004c48       ??_C@_0BJ@PODJOBCA@?$CF5i?5nodes?5without?5faces?6?$AA@ 0049dc48     writebsp.obj
 0002:00004c64       ??_C@_0BG@JBDJMDA@?$CF5i?5nodes?5with?5faces?6?$AA@ 0049dc64     writebsp.obj
 0002:00004c7c       ??_C@_0BC@GGMDFDDP@?9?9?9?5WriteBSP?5?9?9?9?6?$AA@ 0049dc7c     writebsp.obj
 0002:00004c90       ??_C@_0CM@KJJLEJKL@Reduced?5?$CFd?5texdatas?5to?5?$CFd?5?$CI?$CFd?5by@ 0049dc90     writebsp.obj
 0002:00004cbc       ??_C@_0BL@HFNBAJOH@Reduced?5?$CFd?5texinfos?5to?5?$CFd?6?$AA@ 0049dcbc     writebsp.obj
 0002:00004cd8       ??_C@_0CH@MNJGFCJ@Compacting?5texture?1material?5tabl@ 0049dcd8     writebsp.obj
 0002:00004d00       ??_C@_0BO@MHMPJPKO@?9?9?5DiscoverMacroTextures?3?5?$CFs?6?$AA@ 0049dd00     writebsp.obj
 0002:00004d20       ??_C@_0P@LPPLJJCF@$macro_texture?$AA@ 0049dd20     writebsp.obj
 0002:00004d30       ??_C@_0BK@FBHKPEMJ@ZIP_PreloadDirectoryEntry?$AA@ 0049dd30     zip_utils.obj
 0002:00004d4c       ??_C@_0BC@HEOACHKI@ZIP_PreloadHeader?$AA@ 0049dd4c     zip_utils.obj
 0002:00004d60       ??_C@_0BE@DFBHNPNK@ZIP_LocalFileHeader?$AA@ 0049dd60     zip_utils.obj
 0002:00004d74       ??_C@_0P@DELNDGBJ@ZIP_FileHeader?$AA@ 0049dd74     zip_utils.obj
 0002:00004d84       ??_C@_0BK@HMMNJNAE@ZIP_EndOfCentralDirRecord?$AA@ 0049dd84     zip_utils.obj
 0002:00004da0       ??_C@_0BD@DIHGEHMN@?$CFd_?$CFd_?$CFd_?$CFd_?$CFd?4tmp?$AA@ 0049dda0     zip_utils.obj
 0002:00004db4       ??_C@_07PDHECPID@_?$CFs?4tmp?$AA@ 0049ddb4     zip_utils.obj
 0002:00004dc0       ??_7CFileStream@@6B@       0049ddc0     zip_utils.obj
 0002:00004dc8       ??_C@_08CBJJBCAI@XZP?$CFc?5?$CFd?$AA@ 0049ddc8     zip_utils.obj
 0002:00004dd4       ??_C@_03LJCPBJM@XZP?$AA@   0049ddd4     zip_utils.obj
 0002:00004ddc       ??_7CBufferStream@@6B@     0049dddc     zip_utils.obj
 0002:00004de4       ??_C@_0BK@CAOLELCJ@CUtlLinkedList?5overflow?$CB?6?$AA@ 0049dde4     zip_utils.obj
 0002:00004e00       ??_C@_09CMIIOJHF@signature?$AA@ 0049de00     zip_utils.obj
 0002:00004e0c       ??_C@_0BB@LEECKDMO@numberOfThisDisk?$AA@ 0049de0c     zip_utils.obj
 0002:00004e20       ??_C@_0CL@OMGIEOOH@numberOfTheDiskWithStartOfCentra@ 0049de20     zip_utils.obj
 0002:00004e4c       ??_C@_0CC@CAOEOPLI@nCentralDirectoryEntries_ThisDis@ 0049de4c     zip_utils.obj
 0002:00004e70       ??_C@_0BP@GOGNIAAK@nCentralDirectoryEntries_Total?$AA@ 0049de70     zip_utils.obj
 0002:00004e90       ??_C@_0BF@DGGHGBPA@centralDirectorySize?$AA@ 0049de90     zip_utils.obj
 0002:00004ea8       ??_C@_0BI@PHNJPAJL@startOfCentralDirOffset?$AA@ 0049dea8     zip_utils.obj
 0002:00004ec0       ??_C@_0O@PEAODJEB@commentLength?$AA@ 0049dec0     zip_utils.obj
 0002:00004ed0       ??_C@_0O@OABAGKLC@versionMadeBy?$AA@ 0049ded0     zip_utils.obj
 0002:00004ee0       ??_C@_0BH@KAODBOOK@versionNeededToExtract?$AA@ 0049dee0     zip_utils.obj
 0002:00004ef8       ??_C@_0BC@JMCGMPDB@compressionMethod?$AA@ 0049def8     zip_utils.obj
 0002:00004f0c       ??_C@_0BB@LHLABCIP@lastModifiedTime?$AA@ 0049df0c     zip_utils.obj
 0002:00004f20       ??_C@_0BB@BBDDFBN@lastModifiedDate?$AA@ 0049df20     zip_utils.obj
 0002:00004f34       ??_C@_05KBIBMHFC@crc32?$AA@ 0049df34     zip_utils.obj
 0002:00004f3c       ??_C@_0P@IEFIMPBE@compressedSize?$AA@ 0049df3c     zip_utils.obj
 0002:00004f4c       ??_C@_0BB@BDLNGEJN@uncompressedSize?$AA@ 0049df4c     zip_utils.obj
 0002:00004f60       ??_C@_0P@GEFKFGAH@fileNameLength?$AA@ 0049df60     zip_utils.obj
 0002:00004f70       ??_C@_0BB@MBCIFNFD@extraFieldLength?$AA@ 0049df70     zip_utils.obj
 0002:00004f84       ??_C@_0BC@JLPEPFDC@fileCommentLength?$AA@ 0049df84     zip_utils.obj
 0002:00004f98       ??_C@_0BA@EPOPKLNJ@diskNumberStart?$AA@ 0049df98     zip_utils.obj
 0002:00004fa8       ??_C@_0BE@CBMOBGJC@internalFileAttribs?$AA@ 0049dfa8     zip_utils.obj
 0002:00004fbc       ??_C@_0BE@HMGGBLGA@externalFileAttribs?$AA@ 0049dfbc     zip_utils.obj
 0002:00004fd0       ??_C@_0BM@OJCDHDKM@relativeOffsetOfLocalHeader?$AA@ 0049dfd0     zip_utils.obj
 0002:00004fec       ??_C@_07NGFJPNPN@Version?$AA@ 0049dfec     zip_utils.obj
 0002:00004ff4       ??_C@_0BB@GFAJHKJ@DirectoryEntries?$AA@ 0049dff4     zip_utils.obj
 0002:00005008       ??_C@_0BI@IAOOMPJP@PreloadDirectoryEntries?$AA@ 0049e008     zip_utils.obj
 0002:00005020       ??_C@_09FBMAGD@Alignment?$AA@ 0049e020     zip_utils.obj
 0002:0000502c       ??_C@_06MHCOIGNA@Length?$AA@ 0049e02c     zip_utils.obj
 0002:00005034       ??_C@_0L@HLJLKILN@DataOffset?$AA@ 0049e034     zip_utils.obj
 0002:00005044       ??_7CZip@@6B@              0049e044     zip_utils.obj
 0002:00005094       ??_C@_0BI@OECFCPNB@swapmoppsurfaceheader_t?$AA@ 0049e094     bsplib.obj
 0002:000050ac       ??_C@_0BL@DNFCANOP@swapcompactsurfaceheader_t?$AA@ 0049e0ac     bsplib.obj
 0002:000050c8       ??_C@_0BE@OFLJJEKJ@swapcollideheader_t?$AA@ 0049e0c8     bsplib.obj
 0002:000050dc       ??_C@_0BD@OLKDGEE@LUMP_OVERLAY_FADES?$AA@ 0049e0dc     bsplib.obj
 0002:000050f0       ??_C@_0P@IIOJAODF@LUMP_MAP_FLAGS?$AA@ 0049e0f0     bsplib.obj
 0002:00005100       ??_C@_0P@FDJNLOGC@LUMP_FACES_HDR?$AA@ 0049e100     bsplib.obj
 0002:00005110       ??_C@_0BB@NEDFPAGN@LUMP_XZIPPAKFILE?$AA@ 0049e110     bsplib.obj
 0002:00005124       ??_C@_0BL@BKCBAMMA@LUMP_LEAF_AMBIENT_LIGHTING?$AA@ 0049e124     bsplib.obj
 0002:00005140       ??_C@_0BP@BFFHMJPJ@LUMP_LEAF_AMBIENT_LIGHTING_HDR?$AA@ 0049e140     bsplib.obj
 0002:00005160       ??_C@_0BF@CANCIIGC@LUMP_WORLDLIGHTS_HDR?$AA@ 0049e160     bsplib.obj
 0002:00005178       ??_C@_0BC@KEAACHGA@LUMP_LIGHTING_HDR?$AA@ 0049e178     bsplib.obj
 0002:0000518c       ??_C@_0BI@BMFPOHKD@LUMP_LEAF_AMBIENT_INDEX?$AA@ 0049e18c     bsplib.obj
 0002:000051a4       ??_C@_0BM@MBKMFPBI@LUMP_LEAF_AMBIENT_INDEX_HDR?$AA@ 0049e1a4     bsplib.obj
 0002:000051c0       ??_C@_0BD@CLELFBLI@LUMP_WATEROVERLAYS?$AA@ 0049e1c0     bsplib.obj
 0002:000051d4       ??_C@_0BI@NJJHKFEP@LUMP_PHYSCOLLIDESURFACE?$AA@ 0049e1d4     bsplib.obj
 0002:000051ec       ??_C@_0P@ILJIKKIG@LUMP_DISP_TRIS?$AA@ 0049e1ec     bsplib.obj
 0002:000051fc       ??_C@_0BN@FKFFDEEC@LUMP_FACE_MACRO_TEXTURE_INFO?$AA@ 0049e1fc     bsplib.obj
 0002:0000521c       ??_C@_0BI@PEOPPAME@LUMP_LEAFMINDISTTOWATER?$AA@ 0049e21c     bsplib.obj
 0002:00005234       ??_C@_0O@EGIHIGHE@LUMP_OVERLAYS?$AA@ 0049e234     bsplib.obj
 0002:00005244       ??_C@_0BK@HOIMAHNF@LUMP_TEXDATA_STRING_TABLE?$AA@ 0049e244     bsplib.obj
 0002:00005260       ??_C@_0BJ@PGCIOLBP@LUMP_TEXDATA_STRING_DATA?$AA@ 0049e260     bsplib.obj
 0002:0000527c       ??_C@_0O@MHPJGMBB@LUMP_CUBEMAPS?$AA@ 0049e27c     bsplib.obj
 0002:0000528c       ??_C@_0BF@NDALMOFD@LUMP_CLIPPORTALVERTS?$AA@ 0049e28c     bsplib.obj
 0002:000052a4       ??_C@_0N@GNKDOCCI@LUMP_PAKFILE?$AA@ 0049e2a4     bsplib.obj
 0002:000052b4       ??_C@_0BB@KPDLNDCB@LUMP_PRIMINDICES?$AA@ 0049e2b4     bsplib.obj
 0002:000052c8       ??_C@_0P@OELFIIM@LUMP_PRIMVERTS?$AA@ 0049e2c8     bsplib.obj
 0002:000052d8       ??_C@_0BA@IJBIAGAH@LUMP_PRIMITIVES?$AA@ 0049e2d8     bsplib.obj
 0002:000052e8       ??_C@_0BD@ODLDHPKI@LUMP_LEAFWATERDATA?$AA@ 0049e2e8     bsplib.obj
 0002:000052fc       ??_C@_0P@GGMDDMAI@LUMP_GAME_LUMP?$AA@ 0049e2fc     bsplib.obj
 0002:0000530c       ??_C@_0CE@CBCIIDNL@LUMP_DISP_LIGHTMAP_SAMPLE_POSITI@ 0049e30c     bsplib.obj
 0002:00005330       ??_C@_0BA@IIJJJMKK@LUMP_DISP_VERTS?$AA@ 0049e330     bsplib.obj
 0002:00005340       ??_C@_0BK@HINDNDEN@LUMP_DISP_LIGHTMAP_ALPHAS?$AA@ 0049e340     bsplib.obj
 0002:0000535c       ??_C@_0BH@FFAKLLAA@LUMP_VERTNORMALINDICES?$AA@ 0049e35c     bsplib.obj
 0002:00005374       ??_C@_0BB@DBIDJPFD@LUMP_VERTNORMALS?$AA@ 0049e374     bsplib.obj
 0002:00005388       ??_C@_0BB@MBCNHCIA@LUMP_PHYSCOLLIDE?$AA@ 0049e388     bsplib.obj
 0002:0000539c       ??_C@_0O@OEJDLIOJ@LUMP_PHYSDISP?$AA@ 0049e39c     bsplib.obj
 0002:000053ac       ??_C@_0BD@EJIHOJDL@LUMP_ORIGINALFACES?$AA@ 0049e3ac     bsplib.obj
 0002:000053c0       ??_C@_0O@EJABBFOH@LUMP_DISPINFO?$AA@ 0049e3c0     bsplib.obj
 0002:000053d0       ??_C@_0N@HPHHNHMM@LUMP_UNUSED3?$AA@ 0049e3d0     bsplib.obj
 0002:000053e0       ??_C@_0N@GGGMOGIN@LUMP_UNUSED2?$AA@ 0049e3e0     bsplib.obj
 0002:000053f0       ??_C@_0N@ENEBLFEO@LUMP_UNUSED1?$AA@ 0049e3f0     bsplib.obj
 0002:00005400       ??_C@_0N@FEFKIEAP@LUMP_UNUSED0?$AA@ 0049e400     bsplib.obj
 0002:00005410       ??_C@_0BB@OJCKABCN@LUMP_AREAPORTALS?$AA@ 0049e410     bsplib.obj
 0002:00005424       ??_C@_0L@HCKCACPC@LUMP_AREAS?$AA@ 0049e424     bsplib.obj
 0002:00005430       ??_C@_0BA@BNCFENGJ@LUMP_BRUSHSIDES?$AA@ 0049e430     bsplib.obj
 0002:00005440       ??_C@_0N@DPCCMAAJ@LUMP_BRUSHES?$AA@ 0049e440     bsplib.obj
 0002:00005450       ??_C@_0BB@HIKJEPMN@LUMP_LEAFBRUSHES?$AA@ 0049e450     bsplib.obj
 0002:00005464       ??_C@_0P@CJINAEPL@LUMP_LEAFFACES?$AA@ 0049e464     bsplib.obj
 0002:00005474       ??_C@_0BB@LDCFDKDP@LUMP_WORLDLIGHTS?$AA@ 0049e474     bsplib.obj
 0002:00005488       ??_C@_0M@BPMHBODO@LUMP_MODELS?$AA@ 0049e488     bsplib.obj
 0002:00005494       ??_C@_0P@GAMKMAKO@LUMP_SURFEDGES?$AA@ 0049e494     bsplib.obj
 0002:000054a4       ??_C@_0L@KLJDECJB@LUMP_EDGES?$AA@ 0049e4a4     bsplib.obj
 0002:000054b0       ??_C@_0N@GOAPMGFG@LUMP_FACEIDS?$AA@ 0049e4b0     bsplib.obj
 0002:000054c0       ??_C@_0L@JGNBNLGM@LUMP_LEAFS?$AA@ 0049e4c0     bsplib.obj
 0002:000054cc       ??_C@_0P@FFNBCDDI@LUMP_OCCLUSION?$AA@ 0049e4cc     bsplib.obj
 0002:000054dc       ??_C@_0O@ENKADPOO@LUMP_LIGHTING?$AA@ 0049e4dc     bsplib.obj
 0002:000054ec       ??_C@_0L@GKIFCIBI@LUMP_FACES?$AA@ 0049e4ec     bsplib.obj
 0002:000054f8       ??_C@_0N@HABLHKMA@LUMP_TEXINFO?$AA@ 0049e4f8     bsplib.obj
 0002:00005508       ??_C@_0L@KEDBCMKN@LUMP_NODES?$AA@ 0049e508     bsplib.obj
 0002:00005514       ??_C@_0BA@JJJJNMIF@LUMP_VISIBILITY?$AA@ 0049e514     bsplib.obj
 0002:00005524       ??_C@_0O@PFMNCFLL@LUMP_VERTEXES?$AA@ 0049e524     bsplib.obj
 0002:00005534       ??_C@_0N@FBMJPELH@LUMP_TEXDATA?$AA@ 0049e534     bsplib.obj
 0002:00005544       ??_C@_0M@IPGKKCGA@LUMP_PLANES?$AA@ 0049e544     bsplib.obj
 0002:00005550       ??_C@_0O@FEFHONOO@LUMP_ENTITIES?$AA@ 0049e550     bsplib.obj
 0002:00005560       ??_C@_0N@MKKKCKNB@FileHeader_t?$AA@ 0049e560     bsplib.obj
 0002:00005570       ??_C@_0N@OAJJGDEO@MeshHeader_t?$AA@ 0049e570     bsplib.obj
 0002:00005580       ??_C@_0BM@MCIAFPDJ@DetailPropLightstylesLump_t?$AA@ 0049e580     bsplib.obj
 0002:0000559c       ??_C@_0BH@MHMAAGLE@DetailSpriteDictLump_t?$AA@ 0049e59c     bsplib.obj
 0002:000055b4       ??_C@_0BD@PIOIBHCF@DetailObjectLump_t?$AA@ 0049e5b4     bsplib.obj
 0002:000055c8       ??_C@_0BH@NLNJCPJB@DetailObjectDictLump_t?$AA@ 0049e5c8     bsplib.obj
 0002:000055e0       ??_C@_0BF@EHIAMEIF@StaticPropLeafLump_t?$AA@ 0049e5e0     bsplib.obj
 0002:000055f8       ??_C@_0BD@LEBBNIAA@StaticPropLumpV5_t?$AA@ 0049e5f8     bsplib.obj
 0002:0000560c       ??_C@_0BD@MKNLPGF@StaticPropLumpV4_t?$AA@ 0049e60c     bsplib.obj
 0002:00005620       ??_C@_0BB@KBIEIIMO@StaticPropLump_t?$AA@ 0049e620     bsplib.obj
 0002:00005634       ??_C@_0BF@PHBHNLJO@StaticPropDictLump_t?$AA@ 0049e634     bsplib.obj
 0002:0000564c       ??_C@_0M@OMEEDGMC@dgamelump_t?$AA@ 0049e64c     bsplib.obj
 0002:00005658       ??_C@_0BC@DOHNMHNB@dgamelumpheader_t?$AA@ 0049e658     bsplib.obj
 0002:0000566c       ??_C@_0P@GCGCOJHF@doverlayfade_t?$AA@ 0049e66c     bsplib.obj
 0002:0000567c       ??_C@_0BA@LPAAAJLB@dwateroverlay_t?$AA@ 0049e67c     bsplib.obj
 0002:0000568c       ??_C@_0L@NFDMIKGD@doverlay_t?$AA@ 0049e68c     bsplib.obj
 0002:00005698       ??_C@_0BB@PEILJHEN@dcubemapsample_t?$AA@ 0049e698     bsplib.obj
 0002:000056ac       ??_C@_0BE@LJCKGEBK@doccluderpolydata_t?$AA@ 0049e6ac     bsplib.obj
 0002:000056c0       ??_C@_0BA@DGINHBJN@doccluderdata_t?$AA@ 0049e6c0     bsplib.obj
 0002:000056d0       ??_C@_0BB@LPGCFBAA@dleafwaterdata_t?$AA@ 0049e6d0     bsplib.obj
 0002:000056e4       ??_C@_0O@KHFJINND@dworldlight_t?$AA@ 0049e6e4     bsplib.obj
 0002:000056f4       ??_C@_0O@FELKPDKA@dareaportal_t?$AA@ 0049e6f4     bsplib.obj
 0002:00005704       ??_C@_07FLKMNIGI@darea_t?$AA@ 0049e704     bsplib.obj
 0002:0000570c       ??_C@_0M@EEEPECPF@dphysdisp_t?$AA@ 0049e70c     bsplib.obj
 0002:00005718       ??_C@_0N@JKAKAPKN@dphysmodel_t?$AA@ 0049e718     bsplib.obj
 0002:00005728       ??_C@_08LBJNJKCK@dmodel_t?$AA@ 0049e728     bsplib.obj
 0002:00005734       ??_C@_07IPMONJMK@dedge_t?$AA@ 0049e734     bsplib.obj
 0002:0000573c       ??_C@_0N@DICEINDF@dbrushside_t?$AA@ 0049e73c     bsplib.obj
 0002:0000574c       ??_C@_08MGPMFBMD@dbrush_t?$AA@ 0049e74c     bsplib.obj
 0002:00005758       ??_C@_09BJPDADAO@dfaceid_t?$AA@ 0049e758     bsplib.obj
 0002:00005764       ??_C@_07BLGLPECE@dface_t?$AA@ 0049e764     bsplib.obj
 0002:0000576c       ??_C@_0M@IELDMBMH@dprimvert_t?$AA@ 0049e76c     bsplib.obj
 0002:00005778       ??_C@_0N@JCLKPMCB@dprimitive_t?$AA@ 0049e778     bsplib.obj
 0002:00005788       ??_C@_0BG@DPNAMNGO@CFaceMacroTextureInfo?$AA@ 0049e788     bsplib.obj
 0002:000057a0       ??_C@_08JOFBHKDH@CDispTri?$AA@ 0049e7a0     bsplib.obj
 0002:000057ac       ??_C@_09FEANDIFA@CDispVert?$AA@ 0049e7ac     bsplib.obj
 0002:000057b8       ??_C@_0BB@CINMEECK@CDispSubNeighbor?$AA@ 0049e7b8     bsplib.obj
 0002:000057cc       ??_C@_0BF@GAGKEJIM@CDispCornerNeighbors?$AA@ 0049e7cc     bsplib.obj
 0002:000057e4       ??_C@_0O@KJLBJMCP@CDispNeighbor?$AA@ 0049e7e4     bsplib.obj
 0002:000057f4       ??_C@_0M@HCKLBNLM@ddispinfo_t?$AA@ 0049e7f4     bsplib.obj
 0002:00005800       ??_C@_0L@PNLMHHJK@dtexdata_t?$AA@ 0049e800     bsplib.obj
 0002:0000580c       ??_C@_09PPMCCLHO@texinfo_t?$AA@ 0049e80c     bsplib.obj
 0002:00005818       ??_C@_07KAKOAHCD@dnode_t?$AA@ 0049e818     bsplib.obj
 0002:00005820       ??_C@_09OHGFAMOH@dvertex_t?$AA@ 0049e820     bsplib.obj
 0002:0000582c       ??_C@_0BH@JAMCCGHN@dleafambientlighting_t?$AA@ 0049e82c     bsplib.obj
 0002:00005844       ??_C@_0BE@ILNCIEDE@dleafambientindex_t?$AA@ 0049e844     bsplib.obj
 0002:00005858       ??_C@_0BE@EMOGJPEN@CompressedLightCube?$AA@ 0049e858     bsplib.obj
 0002:0000586c       ??_C@_07EMPPBFPC@dleaf_t?$AA@ 0049e86c     bsplib.obj
 0002:00005874       ??_C@_0BC@EHFLNAFD@dleaf_version_0_t?$AA@ 0049e874     bsplib.obj
 0002:00005888       ??_C@_08DNNOELGF@dplane_t?$AA@ 0049e888     bsplib.obj
 0002:00005894       ??_C@_0N@LGEPKNAO@dflagslump_t?$AA@ 0049e894     bsplib.obj
 0002:000058a4       ??_C@_06FDEEFMHN@lump_t?$AA@ 0049e8a4     bsplib.obj
 0002:000058ac       ??_C@_09LJDKPBKI@dheader_t?$AA@ 0049e8ac     bsplib.obj
 0002:000058b8       ??_C@_07NFANNNEC@UNKNOWN?$AA@ 0049e8b8     bsplib.obj
 0002:000058c0       ??_C@_0CO@EDJFKPFP@ValidateLump?3?5old?5version?5for?5lu@ 0049e8c0     bsplib.obj
 0002:000058f0       ??_C@_0CD@HCMHJLHJ@ValidateLump?3?5odd?5size?5for?5lump?5@ 0049e8f0     bsplib.obj
 0002:00005914       ??_C@_0BJ@EBHLPGFH@?$CFs?5is?5version?5?$CFi?0?5not?5?$CFi?$AA@ 0049e914     bsplib.obj
 0002:00005930       ??_C@_0BG@HLMOFCME@?$CFs?5is?5not?5a?5IBSP?5file?$AA@ 0049e930     bsplib.obj
 0002:00005948       ??_C@_0CM@NMKLEGFP@Error?5opening?5?$CFs?$CB?5?$CICheck?5for?5wri@ 0049e948     bsplib.obj
 0002:00005978       __real@4059000000000000    0049e978     bsplib.obj
 0002:00005980       ??_C@_0M@HBEEPJK@?$CFlf?5?$CFlf?5?$CFlf?$AA@ 0049e980     bsplib.obj
 0002:0000598c       ??_C@_07JNLHAIBP@?$CFlf?5?$CFlf?$AA@ 0049e98c     bsplib.obj
 0002:00005994       ??_C@_04KPILAJPA@?4bsp?$AA@ 0049e994     bsplib.obj
 0002:0000599c       ??_C@_0DJ@IALAKHCH@Unknown?5Static?5Prop?5Lump?5version@ 0049e99c     bsplib.obj
 0002:000059d8       ??_C@_0CM@DGBFFHA@Unknown?5game?5lump?5?8?$CFs?8?5didn?8t?5ge@ 0049e9d8     bsplib.obj
 0002:00005a04       ??_C@_0CP@MLMNILJJ@?$CB?$CB?$CB?5WARNING?3?5Can?8t?5swap?5the?5phys@ 0049ea04     bsplib.obj
 0002:00005a34       ??_C@_0CF@KAOEHNKC@Writing?5unknown?5lump?5?$CD?$CFd?5?$CI?$CFd?5byt@ 0049ea34     bsplib.obj
 0002:00005a60       ??_C@_0IA@GAOHBJHI@Bad?5surface?5extents?5?9?5surface?5is@ 0049ea60     bsplib.obj
 0002:00005ae0       ??_C@_0CF@NFIIJEKN@Bad?5surface?5extents?5point?3?5?$CFf?5?$CFf@ 0049eae0     bsplib.obj
 0002:00005b08       ??_C@_07EMAOIIJD@texdata?$AA@ 0049eb08     bsplib.obj
 0002:00005b10       ??_C@_0CF@BMEFMFJB@Reading?5unknown?5lump?5?$CD?$CFd?5?$CI?$CFd?5byt@ 0049eb10     bsplib.obj
 0002:00005b38       ??_C@_0DJ@MFKFBFPP@Map?5has?5too?5many?5texinfos?5?$CIhas?5?$CF@ 0049eb38     bsplib.obj
 0002:00005b74       ??_C@_05IJGIMKK@ident?$AA@ 0049eb74     bsplib.obj
 0002:00005b7c       ??_C@_07CPCPJPKL@version?$AA@ 0049eb7c     bsplib.obj
 0002:00005b84       ??_C@_05JJJGJDHJ@lumps?$AA@ 0049eb84     bsplib.obj
 0002:00005b8c       ??_C@_0M@HBIBAMBI@mapRevision?$AA@ 0049eb8c     bsplib.obj
 0002:00005b98       ??_C@_07JHJOMNHC@fileofs?$AA@ 0049eb98     bsplib.obj
 0002:00005ba0       ??_C@_07HIABLANJ@filelen?$AA@ 0049eba0     bsplib.obj
 0002:00005ba8       ??_C@_06CKNLMMCG@fourCC?$AA@ 0049eba8     bsplib.obj
 0002:00005bb0       ??_C@_0N@EFAKEOG@m_LevelFlags?$AA@ 0049ebb0     bsplib.obj
 0002:00005bc0       ??_C@_06IKLLLDHL@normal?$AA@ 0049ebc0     bsplib.obj
 0002:00005bc8       ??_C@_04OKFALBN@dist?$AA@  0049ebc8     bsplib.obj
 0002:00005bd0       ??_C@_04GPMDFGEJ@type?$AA@ 0049ebd0     bsplib.obj
 0002:00005bd8       ??_C@_07NKHKICEG@cluster?$AA@ 0049ebd8     bsplib.obj
 0002:00005be0       ??_C@_02HIEKPFIC@bf?$AA@   0049ebe0     bsplib.obj
 0002:00005be4       ??_C@_04FIAKMPII@mins?$AA@ 0049ebe4     bsplib.obj
 0002:00005bec       ??_C@_04IFBFDIKF@maxs?$AA@ 0049ebec     bsplib.obj
 0002:00005bf4       ??_C@_0O@JFONBDAD@firstleafface?$AA@ 0049ebf4     bsplib.obj
 0002:00005c04       ??_C@_0N@BDFNHCAO@numleaffaces?$AA@ 0049ec04     bsplib.obj
 0002:00005c14       ??_C@_0P@OFLACFMD@firstleafbrush?$AA@ 0049ec14     bsplib.obj
 0002:00005c24       ??_C@_0P@FMNNGKO@numleafbrushes?$AA@ 0049ec24     bsplib.obj
 0002:00005c34       ??_C@_0BA@IKLKJAHM@leafWaterDataID?$AA@ 0049ec34     bsplib.obj
 0002:00005c44       ??_C@_0BC@OICOOBDE@m_AmbientLighting?$AA@ 0049ec44     bsplib.obj
 0002:00005c58       ??_C@_07LJHCELCO@m_Color?$AA@ 0049ec58     bsplib.obj
 0002:00005c60       ??_C@_0BD@BFDCJBID@ambientSampleCount?$AA@ 0049ec60     bsplib.obj
 0002:00005c74       ??_C@_0BD@HFMKPMGE@firstAmbientSample?$AA@ 0049ec74     bsplib.obj
 0002:00005c88       ??_C@_04OIHHNFHN@cube?$AA@ 0049ec88     bsplib.obj
 0002:00005c90       ??_C@_01FJMABOPO@x?$AA@    0049ec90     bsplib.obj
 0002:00005c94       ??_C@_01EANLCPLP@y?$AA@    0049ec94     bsplib.obj
 0002:00005c98       ??_C@_01GLPGHMHM@z?$AA@    0049ec98     bsplib.obj
 0002:00005c9c       ??_C@_03PNAAIPML@pad?$AA@  0049ec9c     bsplib.obj
 0002:00005ca0       ??_C@_05BBEJFBFA@point?$AA@ 0049eca0     bsplib.obj
 0002:00005ca8       ??_C@_08HJGMHDFH@planenum?$AA@ 0049eca8     bsplib.obj
 0002:00005cb4       ??_C@_08GOINNFB@children?$AA@ 0049ecb4     bsplib.obj
 0002:00005cc0       ??_C@_09FEPJDPNN@firstface?$AA@ 0049ecc0     bsplib.obj
 0002:00005ccc       ??_C@_08JKOEMKBP@numfaces?$AA@ 0049eccc     bsplib.obj
 0002:00005cd8       ??_C@_04GOEDGNCF@area?$AA@ 0049ecd8     bsplib.obj
 0002:00005ce0       ??_C@_0BP@NMBCBGBE@textureVecsTexelsPerWorldUnits?$AA@ 0049ece0     bsplib.obj
 0002:00005d00       ??_C@_0CA@IPOFBMEA@lightmapVecsLuxelsPerWorldUnits?$AA@ 0049ed00     bsplib.obj
 0002:00005d20       ??_C@_0N@LJNLFOD@reflectivity?$AA@ 0049ed20     bsplib.obj
 0002:00005d30       ??_C@_0BC@OEOFGALD@nameStringTableID?$AA@ 0049ed30     bsplib.obj
 0002:00005d44       ??_C@_05IGKADHGO@width?$AA@ 0049ed44     bsplib.obj
 0002:00005d4c       ??_C@_06LNLHEAAG@height?$AA@ 0049ed4c     bsplib.obj
 0002:00005d54       ??_C@_0L@CHMFFBH@view_width?$AA@ 0049ed54     bsplib.obj
 0002:00005d60       ??_C@_0M@JEOKFFPM@view_height?$AA@ 0049ed60     bsplib.obj
 0002:00005d6c       ??_C@_0O@FDHHLLPE@startPosition?$AA@ 0049ed6c     bsplib.obj
 0002:00005d7c       ??_C@_0BB@BEGJFCOK@m_iDispVertStart?$AA@ 0049ed7c     bsplib.obj
 0002:00005d90       ??_C@_0BA@EEICBDCB@m_iDispTriStart?$AA@ 0049ed90     bsplib.obj
 0002:00005da0       ??_C@_07GOCNGAOG@minTess?$AA@ 0049eda0     bsplib.obj
 0002:00005da8       ??_C@_0P@JNKEKPLM@smoothingAngle?$AA@ 0049eda8     bsplib.obj
 0002:00005db8       ??_C@_0L@CFKODFKO@m_iMapFace?$AA@ 0049edb8     bsplib.obj
 0002:00005dc4       ??_C@_0BG@DDOEIFEL@m_iLightmapAlphaStart?$AA@ 0049edc4     bsplib.obj
 0002:00005ddc       ??_C@_0BP@PAFNNLAB@m_iLightmapSamplePositionStart?$AA@ 0049eddc     bsplib.obj
 0002:00005dfc       ??_C@_0BA@KPACCIDF@m_EdgeNeighbors?$AA@ 0049edfc     bsplib.obj
 0002:00005e0c       ??_C@_0BC@NIPPIPEI@m_CornerNeighbors?$AA@ 0049ee0c     bsplib.obj
 0002:00005e20       ??_C@_0P@LOALHPHF@m_AllowedVerts?$AA@ 0049ee20     bsplib.obj
 0002:00005e30       ??_C@_0P@MHNHNEHJ@m_SubNeighbors?$AA@ 0049ee30     bsplib.obj
 0002:00005e40       ??_C@_0M@PJNEJPND@m_Neighbors?$AA@ 0049ee40     bsplib.obj
 0002:00005e4c       ??_C@_0N@NFFMJJFJ@m_nNeighbors?$AA@ 0049ee4c     bsplib.obj
 0002:00005e5c       ??_C@_0M@BHAIIGNN@m_iNeighbor?$AA@ 0049ee5c     bsplib.obj
 0002:00005e68       ??_C@_0BG@LCLHGLFD@m_NeighborOrientation?$AA@ 0049ee68     bsplib.obj
 0002:00005e80       ??_C@_06NDMNEFDP@m_Span?$AA@ 0049ee80     bsplib.obj
 0002:00005e88       ??_C@_0P@OADNGDCO@m_NeighborSpan?$AA@ 0049ee88     bsplib.obj
 0002:00005e98       ??_C@_09IDMJOBKC@m_vVector?$AA@ 0049ee98     bsplib.obj
 0002:00005ea4       ??_C@_08FJDFPGMN@m_flDist?$AA@ 0049eea4     bsplib.obj
 0002:00005eb0       ??_C@_09GMODKCE@m_flAlpha?$AA@ 0049eeb0     bsplib.obj
 0002:00005ebc       ??_C@_08KOPEMDCL@m_uiTags?$AA@ 0049eebc     bsplib.obj
 0002:00005ec8       ??_C@_0BF@IGHHBDIM@m_MacroTextureNameID?$AA@ 0049eec8     bsplib.obj
 0002:00005ee0       ??_C@_0L@PGKNLMCD@firstIndex?$AA@ 0049eee0     bsplib.obj
 0002:00005eec       ??_C@_0L@PBJJKAHO@indexCount?$AA@ 0049eeec     bsplib.obj
 0002:00005ef8       ??_C@_09DEIHPKFL@firstVert?$AA@ 0049eef8     bsplib.obj
 0002:00005f04       ??_C@_09MANBFGEA@vertCount?$AA@ 0049ef04     bsplib.obj
 0002:00005f10       ??_C@_03PCBNCGFH@pos?$AA@  0049ef10     bsplib.obj
 0002:00005f14       ??_C@_06POEBIPME@onNode?$AA@ 0049ef14     bsplib.obj
 0002:00005f1c       ??_C@_09CDIOBNOD@firstedge?$AA@ 0049ef1c     bsplib.obj
 0002:00005f28       ??_C@_08FLPCKAJG@numedges?$AA@ 0049ef28     bsplib.obj
 0002:00005f34       ??_C@_07GNNMAGOE@texinfo?$AA@ 0049ef34     bsplib.obj
 0002:00005f3c       ??_C@_0BD@KHDHNEKP@surfaceFogVolumeID?$AA@ 0049ef3c     bsplib.obj
 0002:00005f50       ??_C@_06OAJMEMBL@styles?$AA@ 0049ef50     bsplib.obj
 0002:00005f58       ??_C@_08OBOMOBNA@lightofs?$AA@ 0049ef58     bsplib.obj
 0002:00005f64       ??_C@_0BO@KLAFEDGH@m_LightmapTextureMinsInLuxels?$AA@ 0049ef64     bsplib.obj
 0002:00005f84       ??_C@_0BO@NBHLKPOL@m_LightmapTextureSizeInLuxels?$AA@ 0049ef84     bsplib.obj
 0002:00005fa4       ??_C@_08HJLENCAJ@origFace?$AA@ 0049efa4     bsplib.obj
 0002:00005fb0       ??_C@_0L@NCAJFDDK@m_NumPrims?$AA@ 0049efb0     bsplib.obj
 0002:00005fbc       ??_C@_0M@KIFLCOML@firstPrimID?$AA@ 0049efbc     bsplib.obj
 0002:00005fc8       ??_C@_0BA@NGBALEKI@smoothingGroups?$AA@ 0049efc8     bsplib.obj
 0002:00005fd8       ??_C@_0N@OPGHGHFA@hammerfaceid?$AA@ 0049efd8     bsplib.obj
 0002:00005fe8       ??_C@_09DMACBJEF@firstside?$AA@ 0049efe8     bsplib.obj
 0002:00005ff4       ??_C@_08GEFICKEP@numsides?$AA@ 0049eff4     bsplib.obj
 0002:00006000       ??_C@_05JDNDNKBA@bevel?$AA@ 0049f000     bsplib.obj
 0002:00006008       ??_C@_01MHEDDDHA@v?$AA@    0049f008     bsplib.obj
 0002:0000600c       ??_C@_08MKPBLOEI@headnode?$AA@ 0049f00c     bsplib.obj
 0002:00006018       ??_C@_0L@OJKNJKNO@modelIndex?$AA@ 0049f018     bsplib.obj
 0002:00006024       ??_C@_08KHMGMMON@dataSize?$AA@ 0049f024     bsplib.obj
 0002:00006030       ??_C@_0M@EIAFECAC@keydataSize?$AA@ 0049f030     bsplib.obj
 0002:0000603c       ??_C@_0L@BOALBGOC@solidCount?$AA@ 0049f03c     bsplib.obj
 0002:00006048       ??_C@_0BB@NNJGKKC@numDisplacements?$AA@ 0049f048     bsplib.obj
 0002:0000605c       ??_C@_0P@JEEOJIEO@numareaportals?$AA@ 0049f05c     bsplib.obj
 0002:0000606c       ??_C@_0BA@PNCAMLID@firstareaportal?$AA@ 0049f06c     bsplib.obj
 0002:0000607c       ??_C@_0M@HGJDIFIH@m_PortalKey?$AA@ 0049f07c     bsplib.obj
 0002:00006088       ??_C@_09FKCCELOM@otherarea?$AA@ 0049f088     bsplib.obj
 0002:00006094       ??_C@_0BG@GLOJEMCM@m_FirstClipPortalVert?$AA@ 0049f094     bsplib.obj
 0002:000060ac       ??_C@_0BD@FMOIFBLK@m_nClipPortalVerts?$AA@ 0049f0ac     bsplib.obj
 0002:000060c0       ??_C@_09DDBFFAKC@intensity?$AA@ 0049f0c0     bsplib.obj
 0002:000060cc       ??_C@_07BMMJEPCG@stopdot?$AA@ 0049f0cc     bsplib.obj
 0002:000060d4       ??_C@_08DPGBBIMD@stopdot2?$AA@ 0049f0d4     bsplib.obj
 0002:000060e0       ??_C@_08EGJNFMPO@exponent?$AA@ 0049f0e0     bsplib.obj
 0002:000060ec       ??_C@_06KGHINEPG@radius?$AA@ 0049f0ec     bsplib.obj
 0002:000060f4       ??_C@_0O@CNHFALEA@constant_attn?$AA@ 0049f0f4     bsplib.obj
 0002:00006104       ??_C@_0M@CJNGHEBK@linear_attn?$AA@ 0049f104     bsplib.obj
 0002:00006110       ??_C@_0P@FEPJNKCE@quadratic_attn?$AA@ 0049f110     bsplib.obj
 0002:00006120       ??_C@_05HEIBENID@owner?$AA@ 0049f120     bsplib.obj
 0002:00006128       ??_C@_08BCLLBMPF@surfaceZ?$AA@ 0049f128     bsplib.obj
 0002:00006134       ??_C@_04BMEMFAGD@minZ?$AA@ 0049f134     bsplib.obj
 0002:0000613c       ??_C@_0BB@HHFELCML@surfaceTexInfoID?$AA@ 0049f13c     bsplib.obj
 0002:00006150       ??_C@_09LGKNDAKM@firstpoly?$AA@ 0049f150     bsplib.obj
 0002:0000615c       ??_C@_09FHKLOLHG@polycount?$AA@ 0049f15c     bsplib.obj
 0002:00006168       ??_C@_0BB@KCKOGCPC@firstvertexindex?$AA@ 0049f168     bsplib.obj
 0002:0000617c       ??_C@_0M@LGFIEHAP@vertexcount?$AA@ 0049f17c     bsplib.obj
 0002:00006188       ??_C@_04IAGNFIBA@size?$AA@ 0049f188     bsplib.obj
 0002:00006190       ??_C@_03HLJILIDP@nId?$AA@  0049f190     bsplib.obj
 0002:00006194       ??_C@_08ECOBNKEH@nTexInfo?$AA@ 0049f194     bsplib.obj
 0002:000061a0       ??_C@_0BL@BMLGJAII@m_nFaceCountAndRenderOrder?$AA@ 0049f1a0     bsplib.obj
 0002:000061bc       ??_C@_06FBJMKLEP@aFaces?$AA@ 0049f1bc     bsplib.obj
 0002:000061c4       ??_C@_03EGPHBDGJ@flU?$AA@  0049f1c4     bsplib.obj
 0002:000061c8       ??_C@_03GNNKEAKK@flV?$AA@  0049f1c8     bsplib.obj
 0002:000061cc       ??_C@_0M@DNMEENHI@vecUVPoints?$AA@ 0049f1cc     bsplib.obj
 0002:000061d8       ??_C@_09NFLAMELP@vecOrigin?$AA@ 0049f1d8     bsplib.obj
 0002:000061e4       ??_C@_0P@BCDLPAHE@vecBasisNormal?$AA@ 0049f1e4     bsplib.obj
 0002:000061f4       ??_C@_0BA@OHDMMINB@flFadeDistMinSq?$AA@ 0049f1f4     bsplib.obj
 0002:00006204       ??_C@_0BA@KCDOILFD@flFadeDistMaxSq?$AA@ 0049f204     bsplib.obj
 0002:00006214       ??_C@_09NEJACIE@lumpCount?$AA@ 0049f214     bsplib.obj
 0002:00006220       ??_C@_06EJPGAGFJ@m_Name?$AA@ 0049f220     bsplib.obj
 0002:00006228       ??_C@_08ECNOKJJC@m_Origin?$AA@ 0049f228     bsplib.obj
 0002:00006234       ??_C@_08PILCLMDH@m_Angles?$AA@ 0049f234     bsplib.obj
 0002:00006240       ??_C@_0L@DKADNPBA@m_PropType?$AA@ 0049f240     bsplib.obj
 0002:0000624c       ??_C@_0M@PCPKPBEP@m_FirstLeaf?$AA@ 0049f24c     bsplib.obj
 0002:00006258       ??_C@_0M@HIJBBFID@m_LeafCount?$AA@ 0049f258     bsplib.obj
 0002:00006264       ??_C@_07KCLBIANA@m_Solid?$AA@ 0049f264     bsplib.obj
 0002:0000626c       ??_C@_07ELHNBIGJ@m_Flags?$AA@ 0049f26c     bsplib.obj
 0002:00006274       ??_C@_06FKMGMEBJ@m_Skin?$AA@ 0049f274     bsplib.obj
 0002:0000627c       ??_C@_0O@NDJEDMNM@m_FadeMinDist?$AA@ 0049f27c     bsplib.obj
 0002:0000628c       ??_C@_0O@DFPEJDDN@m_FadeMaxDist?$AA@ 0049f28c     bsplib.obj
 0002:0000629c       ??_C@_0BB@LGCHAJAF@m_LightingOrigin?$AA@ 0049f29c     bsplib.obj
 0002:000062b0       ??_C@_0BE@CDLLNLBJ@m_flForcedFadeScale?$AA@ 0049f2b0     bsplib.obj
 0002:000062c4       ??_C@_0O@DNAIOLB@m_nMinDXLevel?$AA@ 0049f2c4     bsplib.obj
 0002:000062d4       ??_C@_0O@MPNNPFLO@m_nMaxDXLevel?$AA@ 0049f2d4     bsplib.obj
 0002:000062e4       ??_C@_06JOGDGIMJ@m_Leaf?$AA@ 0049f2e4     bsplib.obj
 0002:000062ec       ??_C@_0O@IFMDLEOF@m_DetailModel?$AA@ 0049f2ec     bsplib.obj
 0002:000062fc       ??_C@_0L@DIBKBJPK@m_Lighting?$AA@ 0049f2fc     bsplib.obj
 0002:00006308       ??_C@_0O@JEEBDPBL@m_LightStyles?$AA@ 0049f308     bsplib.obj
 0002:00006318       ??_C@_0BC@PMMMLGGN@m_LightStyleCount?$AA@ 0049f318     bsplib.obj
 0002:0000632c       ??_C@_0N@OCPKHEBL@m_SwayAmount?$AA@ 0049f32c     bsplib.obj
 0002:0000633c       ??_C@_0N@PHKBCMEN@m_ShapeAngle?$AA@ 0049f33c     bsplib.obj
 0002:0000634c       ??_C@_0M@LMGIPCHC@m_ShapeSize?$AA@ 0049f34c     bsplib.obj
 0002:00006358       ??_C@_0O@IEBBNBA@m_Orientation?$AA@ 0049f358     bsplib.obj
 0002:00006368       ??_C@_0L@CKJLJANI@m_Padding2?$AA@ 0049f368     bsplib.obj
 0002:00006374       ??_C@_06OCPFMGCJ@m_Type?$AA@ 0049f374     bsplib.obj
 0002:0000637c       ??_C@_0L@DDIAKBJJ@m_Padding3?$AA@ 0049f37c     bsplib.obj
 0002:00006388       ??_C@_09EBEAFDEH@m_flScale?$AA@ 0049f388     bsplib.obj
 0002:00006394       ??_C@_04PNKKEILI@m_UL?$AA@ 0049f394     bsplib.obj
 0002:0000639c       ??_C@_04DKBMOPJI@m_LR?$AA@ 0049f39c     bsplib.obj
 0002:000063a4       ??_C@_07FKFDNKFP@m_TexUL?$AA@ 0049f3a4     bsplib.obj
 0002:000063ac       ??_C@_07JNOFHNHP@m_TexLR?$AA@ 0049f3ac     bsplib.obj
 0002:000063b4       ??_C@_07MNJGHCEE@m_Style?$AA@ 0049f3b4     bsplib.obj
 0002:000063bc       ??_C@_06MAPALLJB@m_nLod?$AA@ 0049f3bc     bsplib.obj
 0002:000063c4       ??_C@_0M@NBOPACBB@m_nVertexes?$AA@ 0049f3c4     bsplib.obj
 0002:000063d0       ??_C@_09FGLPPFBG@m_nOffset?$AA@ 0049f3d0     bsplib.obj
 0002:000063dc       ??_C@_09BEMAELPI@m_nUnused?$AA@ 0049f3dc     bsplib.obj
 0002:000063e8       ??_C@_0L@JPACMPLE@m_nVersion?$AA@ 0049f3e8     bsplib.obj
 0002:000063f4       ??_C@_0M@LAEBCFFC@m_nChecksum?$AA@ 0049f3f4     bsplib.obj
 0002:00006400       ??_C@_0P@LGPPEEMA@m_nVertexFlags?$AA@ 0049f400     bsplib.obj
 0002:00006410       ??_C@_0O@ONPOBLGK@m_nVertexSize?$AA@ 0049f410     bsplib.obj
 0002:00006420       ??_C@_09CHONMIDK@m_nMeshes?$AA@ 0049f420     bsplib.obj
 0002:0000642c       ??_C@_0CB@HNEIEEGN@Unknown?5occlusion?5lump?5version?$CB?6@ 0049f42c     bsplib.obj
 0002:00006450       ??_C@_0L@JODPFALJ@vphysicsID?$AA@ 0049f450     bsplib.obj
 0002:0000645c       ??_C@_09NOHACFLB@modelType?$AA@ 0049f45c     bsplib.obj
 0002:00006468       ??_C@_0M@DBJCOOM@surfaceSize?$AA@ 0049f468     bsplib.obj
 0002:00006474       ??_C@_0O@IFELHGBJ@dragAxisAreas?$AA@ 0049f474     bsplib.obj
 0002:00006484       ??_C@_0M@HLOKJILB@axisMapSize?$AA@ 0049f484     bsplib.obj
 0002:00006490       ??_C@_08CCCKJNKJ@moppSize?$AA@ 0049f490     bsplib.obj
 0002:0000649c       ??_C@_0BJ@JDOEEAFA@odd?5size?5for?5LUMP_LEAFS?6?$AA@ 0049f49c     bsplib.obj
 0002:000064b8       ??_C@_0BM@KBEAGEDM@Unknown?5LUMP_LEAFS?5version?6?$AA@ 0049f4b8     bsplib.obj
 0002:000064d4       ??_C@_0L@KFNFGCAJ@?$CC?$CFs?$CC?5?$CC?$CFs?$CC?6?$AA@ 0049f4d4     bsplib.obj
 0002:000064e0       __real@4e6e6b28            0049f4e0     builddisp.obj
 0002:000064e4       __real@47c34f80            0049f4e4     builddisp.obj
 0002:000064e8       __real@3fe0000000000000    0049f4e8     builddisp.obj
 0002:000064f0       __real@42fa0000            0049f4f0     builddisp.obj
 0002:000064f8       ??_7CDispUtilsHelper@@6B@  0049f4f8     builddisp.obj
 0002:0000650c       ??_7CCoreDispInfo@@6B@     0049f50c     builddisp.obj
 0002:0000651c       __real@3f800054            0049f51c     builddisp.obj
 0002:00006520       __real@3f800008            0049f520     builddisp.obj
 0002:00006528       ??_7ios_base@std@@6B@      0049f528     chunkfile.obj
 0002:0000652c       ??_C@_08HPBFPDOD@error?5?$CFd?$AA@ 0049f52c     chunkfile.obj
 0002:00006538       ??_C@_0CH@BEKFMMLP@unterminated?5string?5or?5string?5to@ 0049f538     chunkfile.obj
 0002:00006560       ??_C@_0BH@IIAFKHHE@unexpected?5symbol?5?8?$CFs?8?$AA@ 0049f560     chunkfile.obj
 0002:00006578       ??_C@_0BH@CFIIDOJD@unexpected?5end?5of?5file?$AA@ 0049f578     chunkfile.obj
 0002:00006590       ??_C@_0L@OGNGFIGA@?$FL?$CFf?5?$CFf?5?$CFf?$FN?$AA@ 0049f590     chunkfile.obj
 0002:000065a0       ??_7?$basic_istream@DU?$char_traits@D@std@@@std@@6B@ 0049f5a0     chunkfile.obj
 0002:000065a4       ??_C@_0BA@JFNIOLAK@string?5too?5long?$AA@ 0049f5a4     chunkfile.obj
 0002:000065bc       ??_7?$basic_streambuf@DU?$char_traits@D@std@@@std@@6B@ 0049f5bc     chunkfile.obj
 0002:000065fc       ??_7?$basic_filebuf@DU?$char_traits@D@std@@@std@@6B@ 0049f5fc     chunkfile.obj
 0002:0000663c       ??_7runtime_error@std@@6B@ 0049f63c     chunkfile.obj
 0002:00006648       ??_7facet@locale@std@@6B@  0049f648     chunkfile.obj
 0002:0000664c       ??_C@_0BI@CFPLBAOH@invalid?5string?5position?$AA@ 0049f64c     chunkfile.obj
 0002:00006668       ??_7?$codecvt@DDH@std@@6B@ 0049f668     chunkfile.obj
 0002:00006688       ??_C@_0BA@ELKIONDK@bad?5locale?5name?$AA@ 0049f688     chunkfile.obj
 0002:00006698       ??_C@_08EPJLHIJG@bad?5cast?$AA@ 0049f698     chunkfile.obj
 0002:000066a8       ??_7?$basic_ifstream@DU?$char_traits@D@std@@@std@@6B@ 0049f6a8     chunkfile.obj
 0002:000066ac       ??_C@_0BJ@HHDOALOL@?6Press?5any?5key?5to?5quit?4?6?$AA@ 0049f6ac     cmdlib.obj
 0002:000066c8       ??_C@_01KICIPPFI@?2?$AA@   0049f6c8     cmdlib.obj
 0002:000066cc       ??_C@_0M@BBODMOGM@?$CFd?5second?$CFs?$AA@ 0049f6cc     cmdlib.obj
 0002:000066d8       ??_C@_0BJ@KMIJFNCM@?$CFd?5minute?$CFs?0?5?$CFd?5second?$CFs?$AA@ 0049f6d8     cmdlib.obj
 0002:000066f4       ??_C@_0CE@PALCMKJH@?$CFd?5hour?$CFs?0?5?$CFd?5minute?$CFs?0?5?$CFd?5secon@ 0049f6f4     cmdlib.obj
 0002:00006718       ??_C@_01LKDEMHDF@s?$AA@    0049f718     cmdlib.obj
 0002:0000671c       ??_C@_0BO@EENJAGHE@CmdLib_InitFileSystem?5failed?4?$AA@ 0049f71c     cmdlib.obj
 0002:0000673c       ??_C@_0BC@HMDGJKFB@Error?5opening?5?$CFs?6?$AA@ 0049f73c     cmdlib.obj
 0002:00006750       ??_C@_0BC@OGGEBGDM@File?5read?5failure?$AA@ 0049f750     cmdlib.obj
 0002:00006764       ??_C@_0BD@IHJMODLC@File?5write?5failure?$AA@ 0049f764     cmdlib.obj
 0002:00006778       ??_C@_01OGPIMHDM@?$DP?$AA@ 0049f778     cmdlib.obj
 0002:0000677c       ??_C@_01NBENCBCI@?$CK?$AA@ 0049f77c     cmdlib.obj
 0002:00006780       ??_C@_0CP@DAHDEIHG@CmdLib_FPrintf?3?5can?8t?5allocate?5s@ 0049f780     cmdlib.obj
 0002:000067b0       ??_C@_03EGHOKNNL@?6?6?6?$AA@ 0049f7b0     cmdlib.obj
 0002:000067b4       ??_C@_0BL@BBEKHHIC@Can?8t?5create?5LogFile?3?$CC?$CFs?$CC?6?$AA@ 0049f7b4     cmdlib.obj
 0002:000067d0       ??_C@_01MCMALHOG@a?$AA@    0049f7d0     cmdlib.obj
 0002:000067d4       ??_C@_05JPPLNOIE@?$CFs?$DN?$CFs?$AA@ 0049f7d4     filesystem_init.obj
 0002:000067dc       ??_C@_03HFAIOBFI@?$CFs?$DN?$AA@ 0049f7dc     filesystem_init.obj
 0002:000067e0       ??_C@_0BI@HONGKJJH@?$CFs?$CFclocalization?$CFc?$CFs_?$CFs?$AA@ 0049f7e0     filesystem_init.obj
 0002:000067f8       ??_C@_06KGBLPGBA@?2game?2?$AA@ 0049f7f8     filesystem_init.obj
 0002:00006800       ??_C@_05ONEOBAM@?$CFs_?$CFs?$AA@ 0049f800     filesystem_init.obj
 0002:00006808       ??_C@_07FIIABPFG@GAMEBIN?$AA@ 0049f808     filesystem_init.obj
 0002:00006810       ??_C@_07FCGPJGAE@?$CFs?$CFcbin?$AA@ 0049f810     filesystem_init.obj
 0002:00006818       ??_C@_0N@GOJIOGBD@User?5Token?53?$AA@ 0049f818     filesystem_init.obj
 0002:00006828       ??_C@_0N@HHIDNHFC@User?5Token?52?$AA@ 0049f828     filesystem_init.obj
 0002:00006838       ??_C@_0BP@EFOCGGID@Software?2Valve?2Source?2Settings?$AA@ 0049f838     filesystem_init.obj
 0002:00006858       ??_C@_03FIBGOAPP@MOD?$AA@  0049f858     filesystem_init.obj
 0002:0000685c       ??_C@_0P@OBDLCKKL@?$CFs_tempcontent?$AA@ 0049f85c     filesystem_init.obj
 0002:0000686c       ??_C@_0N@MOHILAIK@?9tempcontent?$AA@ 0049f86c     filesystem_init.obj
 0002:0000687c       ??_C@_05MOIKDAG@?$CFs_lv?$AA@ 0049f87c     filesystem_init.obj
 0002:00006884       ??_C@_04MJNAPEEI@game?$AA@ 0049f884     filesystem_init.obj
 0002:00006890       ??_C@_0EB@JBHGIPO@FileSystem_AddLoadedSearchPath?5?9@ 0049f890     filesystem_init.obj
 0002:000068d4       ??_C@_0BE@MHMPCCEN@SteamUserPassphrase?$AA@ 0049f8d4     filesystem_init.obj
 0002:000068e8       ??_C@_0BN@ILMJFDLH@Missing?5SteamAppId?5in?5?$CFs?2?$CFs?4?$AA@ 0049f8e8     filesystem_init.obj
 0002:00006908       ??_C@_0N@DDAKDDIF@gameinfo?4txt?$AA@ 0049f908     filesystem_init.obj
 0002:00006918       ??_C@_0L@ECGBBIEJ@SteamAppId?$AA@ 0049f918     filesystem_init.obj
 0002:00006924       ??_C@_08FONOGHLN@PLATFORM?$AA@ 0049f924     filesystem_init.obj
 0002:00006930       ??_C@_0N@MHLNGBBM@?1?4?4?1platform?$AA@ 0049f930     filesystem_init.obj
 0002:00006940       ??_C@_08CBHCFJJK@platform?$AA@ 0049f940     filesystem_init.obj
 0002:0000694c       ??_C@_04OJGJKDCG@?2bin?$AA@ 0049f94c     filesystem_init.obj
 0002:00006954       ??_C@_03PDOMKJON@bin?$AA@  0049f954     filesystem_init.obj
 0002:00006958       ??_C@_0M@HIDIPGMM@?$CFs?$CFc?4?4?$CFcbin?$AA@ 0049f958     filesystem_init.obj
 0002:00006964       ??_C@_08BBHFPNLA@VProject?$AA@ 0049f964     filesystem_init.obj
 0002:00006970       ??_C@_0M@BPBMEHMA@vconfig?4exe?$AA@ 0049f970     filesystem_init.obj
 0002:0000697c       ??_C@_09FEGFDDAO@orangebox?$AA@ 0049f97c     filesystem_init.obj
 0002:00006988       ??_C@_0DG@DHDKLFGP@Can?8t?5find?5steam?4dll?5relative?5to@ 0049f988     filesystem_init.obj
 0002:000069c0       ??_C@_05LKJAIBFI@?$CFs?$DL?$CFs?$AA@ 0049f9c0     filesystem_init.obj
 0002:000069c8       ??_C@_0DH@CHNFKOPG@Can?8t?5find?5steam?4dll?5relative?5to@ 0049f9c8     filesystem_init.obj
 0002:00006a00       ??_C@_0N@KIPMNOMO@steamapp?4cfg?$AA@ 0049fa00     filesystem_init.obj
 0002:00006a10       ??_C@_09OPNECJBP@steam?4dll?$AA@ 0049fa10     filesystem_init.obj
 0002:00006a1c       ??_C@_0CE@ICDPACDF@FileSystem_GetExecutableDir?5fail@ 0049fa1c     filesystem_init.obj
 0002:00006a40       ??_C@_0DK@HCONFMCF@SetSteamInstallPath?3?5FileSystem_@ 0049fa40     filesystem_init.obj
 0002:00006a7c       ??_C@_0BA@PDPKJDAD@EXECUTABLE_PATH?$AA@ 0049fa7c     filesystem_init.obj
 0002:00006a8c       ??_C@_0BJ@EDPLIIJG@?$CFs?$CFcfilesystem_steam?4dll?$AA@ 0049fa8c     filesystem_init.obj
 0002:00006aa8       ??_C@_0M@LHJIEJJB@?9steamlocal?$AA@ 0049faa8     filesystem_init.obj
 0002:00006ab4       ??_C@_0BJ@PBHGGHGE@?$CFs?$CFcfilesystem_stdio?4dll?$AA@ 0049fab4     filesystem_init.obj
 0002:00006ad0       ??_C@_06HPIJBGJD@?1game?1?$AA@ 0049fad0     filesystem_init.obj
 0002:00006ad8       ??_C@_09EOPDDICB@?1content?1?$AA@ 0049fad8     filesystem_init.obj
 0002:00006ae8       ??_C@_0OI@HCHEELJO@Unable?5to?5find?5?$CFs?4?5Solutions?3?6?61@ 0049fae8     filesystem_init.obj
 0002:00006bd0       ??_C@_01LFCBOECM@?4?$AA@   0049fbd0     filesystem_init.obj
 0002:00006bd8       ??_C@_0EA@HIENCNPL@Warning?3?5falling?5back?5to?5auto?5de@ 0049fbd8     filesystem_init.obj
 0002:00006c18       ??_C@_0GD@JOJOEGKB@Setup?5file?5?8?$CFs?8?5doesn?8t?5exist?5in@ 0049fc18     filesystem_init.obj
 0002:00006c7c       ??_C@_0DB@DMFGMLBG@bOnlyUseDirectoryName?$DN1?5and?5pDir@ 0049fc7c     filesystem_init.obj
 0002:00006cb0       ??_C@_04LNEJFJGI@path?$AA@ 0049fcb0     filesystem_init.obj
 0002:00006cb8       ??_C@_0N@JBMCJGB@SteamAppUser?$AA@ 0049fcb8     filesystem_init.obj
 0002:00006cc8       ??_C@_0M@OGFGHLLN@SearchPaths?$AA@ 0049fcc8     filesystem_init.obj
 0002:00006cd4       ??_C@_0BK@LENANHBB@?$CFs?5is?5not?5a?5valid?5format?4?$AA@ 0049fcd4     filesystem_init.obj
 0002:00006cf0       ??_C@_0L@FPFLHALM@FileSystem?$AA@ 0049fcf0     filesystem_init.obj
 0002:00006cfc       ??_C@_0P@BAICOJOC@?$CFs?5is?5missing?4?$AA@ 0049fcfc     filesystem_init.obj
 0002:00006d0c       ??_C@_0DK@HDHHNFK@FileSystem_LoadSearchPaths?3?5Inva@ 0049fd0c     filesystem_init.obj
 0002:00006d48       ??_C@_0BD@BIHGFCAJ@DEFAULT_WRITE_PATH?$AA@ 0049fd48     filesystem_init.obj
 0002:00006d5c       ??_C@_03FFONCNID@mod?$AA@  0049fd5c     filesystem_init.obj
 0002:00006d60       ??_C@_07KFNNKDNC@gamebin?$AA@ 0049fd60     filesystem_init.obj
 0002:00006d68       ??_C@_0BA@LLOKIJCD@executable_path?$AA@ 0049fd68     filesystem_init.obj
 0002:00006d78       ??_C@_06NKJBFAKB@?4?4?$CFc?$CFs?$AA@ 0049fd78     filesystem_init.obj
 0002:00006d80       ??_C@_0BK@FOIMLNGE@?$HMall_source_engine_paths?$HM?$AA@ 0049fd80     filesystem_init.obj
 0002:00006d9c       ??_C@_0BA@MDDINGGJ@?$HMgameinfo_path?$HM?$AA@ 0049fd9c     filesystem_init.obj
 0002:00006dac       ??_C@_0BO@DKGHAMPB@FileSystem_GetBaseDir?5failed?4?$AA@ 0049fdac     filesystem_init.obj
 0002:00006dcc       ??_C@_0CA@LJBFCIPK@Can?8t?5find?5steam?5app?5user?5info?4?$AA@ 0049fdcc     filesystem_init.obj
 0002:00006dec       ??_C@_0O@JKIHLNMO@AutoLoginUser?$AA@ 0049fdec     filesystem_init.obj
 0002:00006dfc       ??_C@_0BI@FPAAOPPO@config?2SteamAppData?4vdf?$AA@ 0049fdfc     filesystem_init.obj
 0002:00006e14       ??_C@_0O@GIMNLJAG@steaminfo?4txt?$AA@ 0049fe14     filesystem_init.obj
 0002:00006e24       ??_C@_0L@INNOAPAJ@ToolsAppId?$AA@ 0049fe24     filesystem_init.obj
 0002:00006e30       ??_C@_0BN@OJPKFLKO@?$CFs?5IFileSystem?3?3Init?5failed?4?$AA@ 0049fe30     filesystem_init.obj
 0002:00006e50       ??_C@_0CA@KIDODKHJ@?$CFs?5IFileSystem?3?3Connect?5failed?4?$AA@ 0049fe50     filesystem_init.obj
 0002:00006e70       ??_C@_0P@HNMHCAOM@Can?8t?5load?5?$CFs?4?$AA@ 0049fe70     filesystem_init.obj
 0002:00006e80       ??_C@_0DB@IJEHBEGI@Unable?5to?5mount?5Steam?5content?5in@ 0049fe80     filesystem_init.obj
 0002:00006eb4       ??_C@_0M@CHBCHPDB@?4?4?1platform?$AA@ 0049feb4     filesystem_tools.obj
 0002:00006ec0       ??_C@_0L@HEEMIGIK@mapversion?$AA@ 0049fec0     map_shared.obj
 0002:00006ecc       ??_C@_08GKHEJHEP@hammerid?$AA@ 0049fecc     map_shared.obj
 0002:00006ed8       ??_C@_0L@CGBMHOHE@func_water?$AA@ 0049fed8     map_shared.obj
 0002:00006ee4       __real@42200000            0049fee4     pacifier.obj
 0002:00006ee8       ??_C@_0CD@BOFJFDD@FreeWinding?3?5freed?5a?5freed?5windi@ 0049fee8     polylib.obj
 0002:00006f0c       __real@47800000            0049ff0c     polylib.obj
 0002:00006f10       ??_C@_0CD@BHBKGNIF@BaseWindingForPlane?3?5no?5axis?5fou@ 0049ff10     polylib.obj
 0002:00006f34       ??_C@_0CD@PEDPMDOJ@ClipWinding?3?5MAX_POINTS_ON_WINDI@ 0049ff34     polylib.obj
 0002:00006f58       ??_C@_0CG@OLJCNKCC@ClipWinding?3?5points?5exceeded?5est@ 0049ff58     polylib.obj
 0002:00006f80       ??_C@_0CK@NIJIDEPG@ReadFileToBuffer?$CI?$CJ?3?5Error?5openin@ 0049ff80     scriplib.obj
 0002:00006fac       ??_C@_06IHDMMOPO@?$CFs?4tmp?$AA@ 0049ffac     scriplib.obj
 0002:00006fb4       ??_C@_04IMHDFGMD@mgd_?$AA@ 0049ffb4     scriplib.obj
 0002:00006fc0       ??_7CScriptLib@@6B@        0049ffc0     scriplib.obj
 0002:00006fdc       ??_C@_02DJGKEECL@?4?4?$AA@ 0049ffdc     scriplib.obj
 0002:00006fe0       ??_C@_02CEGDFPFP@?4?2?$AA@ 0049ffe0     scriplib.obj
 0002:00006fe4       ??_C@_03FFNGDGKN@tmp?$AA@  0049ffe4     scriplib.obj
 0002:00006fe8       ??_C@_04FGEHGIFJ@temp?$AA@ 0049ffe8     scriplib.obj
 0002:00006ff0       ??_C@_0M@FBLNEIAD@?$CFi?5threads?6?$AA@ 0049fff0     threads.obj
 0002:00006ffc       ??_C@_0BG@BEEOCMHK@Recursive?5ThreadLock?6?$AA@ 0049fffc     threads.obj
 0002:00007014       ??_C@_0BL@HADBLPO@ThreadUnlock?5without?5lock?6?$AA@ 004a0014     threads.obj
 0002:00007030       ??_C@_06MEKNBDFO@?5?$CI?$CFi?$CJ?6?$AA@ 004a0030     threads.obj
 0002:00007038       ?nanmask@@3HB              004a0038     mathlib:mathlib_base.obj
 0002:0000703c       __real@34000000            004a003c     mathlib:mathlib_base.obj
 0002:00007040       __real@3f70000000000000    004a0040     mathlib:mathlib_base.obj
 0002:00007048       __real@4000000000000000    004a0048     mathlib:mathlib_base.obj
 0002:00007050       __real@42652ee1            004a0050     mathlib:mathlib_base.obj
 0002:00007058       __real@3fd45f306dc9c883    004a0058     mathlib:mathlib_base.obj
 0002:00007060       __real@3c8efa35            004a0060     mathlib:mathlib_base.obj
 0002:00007068       __real@3f91df46a2529d39    004a0068     mathlib:mathlib_base.obj
 0002:00007070       __real@3e000000            004a0070     mathlib:mathlib_base.obj
 0002:00007074       __real@c0000000            004a0074     mathlib:mathlib_base.obj
 0002:00007080       ?Four_PointFives@@3T__m128@@B 004a0080     mathlib:sseconst.obj
 0002:00007090       ?Four_Zeros@@3T__m128@@B   004a0090     mathlib:sseconst.obj
 0002:000070a0       ?Four_Ones@@3T__m128@@B    004a00a0     mathlib:sseconst.obj
 0002:000070b0       ?Four_Twos@@3T__m128@@B    004a00b0     mathlib:sseconst.obj
 0002:000070c0       ?Four_Threes@@3T__m128@@B  004a00c0     mathlib:sseconst.obj
 0002:000070d0       ?Four_Fours@@3T__m128@@B   004a00d0     mathlib:sseconst.obj
 0002:000070e0       ?Four_Origin@@3T__m128@@B  004a00e0     mathlib:sseconst.obj
 0002:000070f0       ?Four_NegativeOnes@@3T__m128@@B 004a00f0     mathlib:sseconst.obj
 0002:00007100       ?Four_2ToThe21s@@3T__m128@@B 004a0100     mathlib:sseconst.obj
 0002:00007110       ?Four_2ToThe22s@@3T__m128@@B 004a0110     mathlib:sseconst.obj
 0002:00007120       ?Four_2ToThe23s@@3T__m128@@B 004a0120     mathlib:sseconst.obj
 0002:00007130       ?Four_2ToThe24s@@3T__m128@@B 004a0130     mathlib:sseconst.obj
 0002:00007140       ?Four_Point225s@@3T__m128@@B 004a0140     mathlib:sseconst.obj
 0002:00007150       ?Four_Epsilons@@3T__m128@@B 004a0150     mathlib:sseconst.obj
 0002:00007160       ?Four_FLT_MAX@@3T__m128@@B 004a0160     mathlib:sseconst.obj
 0002:00007170       ?Four_Negative_FLT_MAX@@3T__m128@@B 004a0170     mathlib:sseconst.obj
 0002:00007180       ?g_SIMD_0123@@3T__m128@@B  004a0180     mathlib:sseconst.obj
 0002:00007190       ?g_SIMD_clear_signmask@@3QBHB 004a0190     mathlib:sseconst.obj
 0002:000071a0       ?g_SIMD_signmask@@3QBHB    004a01a0     mathlib:sseconst.obj
 0002:000071b0       ?g_SIMD_lsbmask@@3QBHB     004a01b0     mathlib:sseconst.obj
 0002:000071c0       ?g_SIMD_clear_wmask@@3QBHB 004a01c0     mathlib:sseconst.obj
 0002:000071d0       ?g_SIMD_AllOnesMask@@3QBHB 004a01d0     mathlib:sseconst.obj
 0002:000071e0       ?g_SIMD_Low16BitsMask@@3QBHB 004a01e0     mathlib:sseconst.obj
 0002:000071f0       ?g_SIMD_ComponentMask@@3QAY03$$CBHA 004a01f0     mathlib:sseconst.obj
 0002:00007230       ?g_SIMD_SkipTailMask@@3QAY03$$CBHA 004a0230     mathlib:sseconst.obj
 0002:00007270       __real@40019999a0000000    004a0270     mathlib:color_conversion.obj
 0002:00007278       __real@3fdd1745c0000000    004a0278     mathlib:color_conversion.obj
 0002:00007280       __real@3f50000000000000    004a0280     mathlib:color_conversion.obj
 0002:00007288       __real@3fec000000000000    004a0288     mathlib:color_conversion.obj
 0002:00007290       __real@3f50040100401004    004a0290     mathlib:color_conversion.obj
 0002:00007298       __real@3fc0000000000000    004a0298     mathlib:color_conversion.obj
 0002:000072a0       __real@3fb3333333333333    004a02a0     mathlib:color_conversion.obj
 0002:000072a8       __real@3d4ccccd            004a02a8     mathlib:color_conversion.obj
 0002:00007370       __real@4048000000000000    004a0370     tier1:strtools.obj
 0002:00007378       ??_C@_0CH@DNILKGJA@V_AppendSlash?3?5ran?5out?5of?5space?5@ 004a0378     tier1:strtools.obj
 0002:000073a0       __real@447a0000            004a03a0     tier1:strtools.obj
 0002:000073a4       ??_C@_01JOAMLHOP@?9?$AA@   004a03a4     tier1:strtools.obj
 0002:000073a8       ??_C@_03OOAAEEIB@?4?$CFc?$AA@ 004a03a8     tier1:strtools.obj
 0002:000073ac       ??_C@_02CAHBHFGK@?4?1?$AA@ 004a03ac     tier1:strtools.obj
 0002:000073b0       ??_C@_0DB@FOILCOJM@V_MakeAbsolutePath?3?5tried?5to?5?$CC?4?4@ 004a03b0     tier1:strtools.obj
 0002:000073e4       ??_C@_0CE@INIPJBEP@V_MakeAbsolutePath?3?5_getcwd?5fail@ 004a03e4     tier1:strtools.obj
 0002:00007408       ??_C@_01GEODFPGF@?8?$AA@   004a0408     tier1:utlbuffer.obj
 0002:0000740c       ??_C@_01INIBCBCB@f?$AA@    004a040c     tier1:utlbuffer.obj
 0002:00007410       ??_C@_01KDCPPGHE@r?$AA@    004a0410     tier1:utlbuffer.obj
 0002:00007414       ??_C@_01OJONOECF@b?$AA@    004a0414     tier1:utlbuffer.obj
 0002:00007418       ??_C@_01PFHFFBPC@t?$AA@    004a0418     tier1:utlbuffer.obj
 0002:0000741c       ??_C@_01EFFIKLCJ@n?$AA@    004a041c     tier1:utlbuffer.obj
 0002:00007424       ??_7CUtlCharConversion@@6B@ 004a0424     tier1:utlbuffer.obj
 0002:0000742c       ??_7CUtlNoEscConversion@@6B@ 004a042c     tier1:utlbuffer.obj
 0002:00007434       ??_7CUtlCStringConversion@@6B@ 004a0434     tier1:utlbuffer.obj
 0002:00007438       ??_C@_02HAOIJKIC@?$CFc?$AA@ 004a0438     tier1:utlbuffer.obj
 0002:0000743c       ??_C@_07CIFAGBMG@unknown?$AA@ 004a043c     tier1:KeyValues.obj
 0002:00007444       ??_C@_04HIBGFPH@NULL?$AA@  004a0444     tier1:KeyValues.obj
 0002:0000744c       ??_C@_08KKMCJABH@?$CI?$CK?$CFs?$CK?$CJ?0?5?$AA@ 004a044c     tier1:KeyValues.obj
 0002:00007458       ??_C@_04ONKFDMMC@?$CFs?0?5?$AA@ 004a0458     tier1:KeyValues.obj
 0002:00007460       ??_C@_0CA@NDDGCEEP@KeyValues?5Error?3?5?$CFs?5in?5file?5?$CFs?6?$AA@ 004a0460     tier1:KeyValues.obj
 0002:00007480       ??_C@_0BE@CCEENLEF@?5ReadToken?5overflow?$AA@ 004a0480     tier1:KeyValues.obj
 0002:00007494       ??_C@_08HHEPHHEL@?$FL$WIN32?$FN?$AA@ 004a0494     tier1:KeyValues.obj
 0002:000074a0       ??_C@_01GPOEFGEJ@?7?$AA@   004a04a0     tier1:KeyValues.obj
 0002:000074a8       ??_C@_0EE@MCLHPPL@KeyValues?3?3RecursiveSaveToFile?3?5@ 004a04a8     tier1:KeyValues.obj
 0002:000074ec       ??_C@_02NJPGOMH@?$CFf?$AA@ 004a04ec     tier1:KeyValues.obj
 0002:000074f0       ??_C@_0L@BJLDBJPB@0x?$CF016I64X?$AA@ 004a04f0     tier1:KeyValues.obj
 0002:000074fc       ??_C@_04FHLHEGKD@?$CC?7?7?$CC?$AA@ 004a04fc     tier1:KeyValues.obj
 0002:00007504       ??_C@_05OKCMKDO@?$CFI64i?$AA@ 004a0504     tier1:KeyValues.obj
 0002:00007510       ??_C@_0EA@NBPAKPMP@RecursiveLoadFromBuffer?3?5?5got?5co@ 004a0510     tier1:KeyValues.obj
 0002:00007550       ??_C@_0CH@FAEPDIPE@RecursiveLoadFromBuffer?3?5?5got?5?$HN?5@ 004a0550     tier1:KeyValues.obj
 0002:00007578       ??_C@_0CH@HEKCOJBB@RecursiveLoadFromBuffer?3?5?5got?5NU@ 004a0578     tier1:KeyValues.obj
 0002:000075a0       ??_C@_0CM@EGPGDPNF@RecursiveLoadFromBuffer?3?5?5got?5em@ 004a05a0     tier1:KeyValues.obj
 0002:000075cc       ??_C@_0DF@BNKODCEE@RecursiveLoadFromBuffer?3?5?5got?5EO@ 004a05cc     tier1:KeyValues.obj
 0002:00007608       ??_C@_0EH@OAIGODPC@KeyValues?3?3ParseIncludedKeys?3?5Co@ 004a0608     tier1:KeyValues.obj
 0002:00007650       ??_C@_0BK@NIPBBFNB@LoadFromBuffer?3?5missing?5?$HL?$AA@ 004a0650     tier1:KeyValues.obj
 0002:0000766c       ??_C@_0P@NHINIODK@?$CDbase?5is?5NULL?5?$AA@ 004a066c     tier1:KeyValues.obj
 0002:0000767c       ??_C@_05OBFANEGE@?$CDbase?$AA@ 004a067c     tier1:KeyValues.obj
 0002:00007684       ??_C@_0BC@NGELGJPP@?$CDinclude?5is?5NULL?5?$AA@ 004a0684     tier1:KeyValues.obj
 0002:00007698       ??_C@_08GPLAJCBH@?$CDinclude?$AA@ 004a0698     tier1:KeyValues.obj
 0002:000076a4       ??_C@_04HLONOPDM@?4dll?$AA@ 004a06a4     tier1:interface.obj
 0002:000076ac       ??_C@_0BM@OIEJAJOK@Module?5?$CFs?5is?5a?5debug?5build?6?$AA@ 004a06ac     tier1:interface.obj
 0002:000076c8       ??_C@_0L@EJCNAOMG@BuiltDebug?$AA@ 004a06c8     tier1:interface.obj
 0002:000076d4       ??_C@_09ILGMALND@?$CFs?1bin?1?$CFs?$AA@ 004a06d4     tier1:interface.obj
 0002:000076e0       ??_C@_05GFOLEBJA@?$CFs?1?$CFs?$AA@ 004a06e0     tier1:interface.obj
 0002:000076e8       ??_C@_04MMFEEKAB@bin?1?$AA@ 004a06e8     tier1:interface.obj
 0002:000076f0       ??_C@_0BA@OBHPCBFP@CreateInterface?$AA@ 004a06f0     tier1:interface.obj
 0002:00007b00       ??_C@_0BD@DDNAMMCP@File?5?$CFs?0?5line?5?$CFd?3?5?$AA@ 004a0b00     tier1:tokenreader.obj
 0002:00007b18       ??_7?$basic_ios@DU?$char_traits@D@std@@@std@@6B@ 004a0b18     tier1:tokenreader.obj
 0002:00007b20       ??_7?$ctype@D@std@@6B@     004a0b20     tier1:tokenreader.obj
 0002:00007b48       ??_7system_error@std@@6B@  004a0b48     tier1:tokenreader.obj
 0002:00007b54       ??_7failure@ios_base@std@@6B@ 004a0b54     tier1:tokenreader.obj
 0002:00007b5c       ??_C@_0BF@OOHOMBOF@ios_base?3?3eofbit?5set?$AA@ 004a0b5c     tier1:tokenreader.obj
 0002:00007b74       ??_C@_0BG@FMKFHCIL@ios_base?3?3failbit?5set?$AA@ 004a0b74     tier1:tokenreader.obj
 0002:00007b8c       ??_C@_0BF@PHHKMMFD@ios_base?3?3badbit?5set?$AA@ 004a0b8c     tier1:tokenreader.obj
 0002:00007ba4       ??_8?$basic_ifstream@DU?$char_traits@D@std@@@std@@7B@ 004a0ba4     tier1:tokenreader.obj
 0002:00007bb0       ??_7TokenReader@@6B@       004a0bb0     tier1:tokenreader.obj
 0002:00007bb4       ??_8TokenReader@@7B@       004a0bb4     tier1:tokenreader.obj
 0002:00007bbc       ??_C@_0BE@DFJMOMFG@VTFFileHeaderX360_t?$AA@ 004a0bbc     vtf:vtf.obj
 0002:00007bd0       ??_C@_0BA@PDDLLJA@VTFFileHeader_t?$AA@ 004a0bd0     vtf:vtf.obj
 0002:00007be0       ??_C@_0BE@HIKFGPMP@VTFFileHeaderV7_3_t?$AA@ 004a0be0     vtf:vtf.obj
 0002:00007bf4       ??_C@_0BE@MABJAIKK@VTFFileHeaderV7_2_t?$AA@ 004a0bf4     vtf:vtf.obj
 0002:00007c08       ??_C@_0BE@NCKMKHEE@VTFFileHeaderV7_1_t?$AA@ 004a0c08     vtf:vtf.obj
 0002:00007c1c       ??_C@_0BE@HCIDAHJO@VTFFileBaseHeader_t?$AA@ 004a0c1c     vtf:vtf.obj
 0002:00007c30       __real@3ecccccd            004a0c30     vtf:vtf.obj
 0002:00007c34       ??_C@_0DO@GBPJBKJC@Warning?$CB?5Encountered?5old?5format?5@ 004a0c34     vtf:vtf.obj
 0002:00007c74       ??_C@_0DJ@LIBGGGAP@?$CK?$CK?$CK?5Encountered?5VTF?5file?5with?5an@ 004a0c74     vtf:vtf.obj
 0002:00007cb0       __real@3e4ccccd            004a0cb0     vtf:vtf.obj
 0002:00007cb4       ??_C@_0P@DBIAMLO@?5?5?5?$CFc?$DN?$CFd?5?$HO?$CFd?$CF?$CF?$AA@ 004a0cb4     vtf:vtf.obj
 0002:00007cc4       ??_C@_0BI@BDJEJLNC@Blending?5mip?$CFd?5?$CFdx?$CFd?5to?$AA@ 004a0cc4     vtf:vtf.obj
 0002:00007cdc       ??_C@_0DF@GPPDIPDC@BlendCubeMapFaceEdges?3?5unsupport@ 004a0cdc     vtf:vtf.obj
 0002:00007d14       ??_C@_0DH@FCHKBKML@?$CK?$CK?$CK?5Encountered?5VTF?5file?5with?5an@ 004a0d14     vtf:vtf.obj
 0002:00007d4c       ??_C@_0DD@PIDBFMOO@?$CK?$CK?$CK?5Encountered?5VTF?5file?5with?5an@ 004a0d4c     vtf:vtf.obj
 0002:00007d80       ??_C@_0DB@LAMDBMNJ@?$CK?$CK?$CK?5Tried?5to?5load?5a?5non?9VTF?5file@ 004a0d80     vtf:vtf.obj
 0002:00007db4       ??_C@_03PNELBOHC@VTF?$AA@  004a0db4     vtf:vtf.obj
 0002:00007db8       ??_C@_0DI@LLDOCADD@?$CK?$CK?$CK?5Error?5unserializing?5VTF?5file@ 004a0db8     vtf:vtf.obj
 0002:00007df4       ??_7CVTFTexture@@6B@       004a0df4     vtf:vtf.obj
 0002:00007ed0       ??_C@_0DA@JGJBJOIC@?$CK?$CK?$CK?5Unable?5to?5serialize?4?4?4?5have?5@ 004a0ed0     vtf:vtf.obj
 0002:00007f00       ??_C@_0P@MLAPKELC@fileTypeString?$AA@ 004a0f00     vtf:vtf.obj
 0002:00007f10       ??_C@_0L@LBANHNIC@headerSize?$AA@ 004a0f10     vtf:vtf.obj
 0002:00007f1c       ??_C@_09GEKACOOO@numFrames?$AA@ 004a0f1c     vtf:vtf.obj
 0002:00007f28       ??_C@_0L@DAFMKFBI@startFrame?$AA@ 004a0f28     vtf:vtf.obj
 0002:00007f34       ??_C@_09FKIAOKBL@bumpScale?$AA@ 004a0f34     vtf:vtf.obj
 0002:00007f40       ??_C@_0M@KCNMOFJC@imageFormat?$AA@ 004a0f40     vtf:vtf.obj
 0002:00007f4c       ??_C@_0N@PAMEODPM@numMipLevels?$AA@ 004a0f4c     vtf:vtf.obj
 0002:00007f5c       ??_C@_0BC@ODLGANAI@lowResImageFormat?$AA@ 004a0f5c     vtf:vtf.obj
 0002:00007f70       ??_C@_0BB@HCODKAMG@lowResImageWidth?$AA@ 004a0f70     vtf:vtf.obj
 0002:00007f84       ??_C@_0BC@GFEOCIEL@lowResImageHeight?$AA@ 004a0f84     vtf:vtf.obj
 0002:00007f98       ??_C@_05BJGJGKJC@depth?$AA@ 004a0f98     vtf:vtf.obj
 0002:00007fa0       ??_C@_0N@GMGDCOGH@numResources?$AA@ 004a0fa0     vtf:vtf.obj
 0002:00007fb0       ??_C@_0BA@NBJOFFPL@preloadDataSize?$AA@ 004a0fb0     vtf:vtf.obj
 0002:00007fc0       ??_C@_0N@JKABNMJG@mipSkipCount?$AA@ 004a0fc0     vtf:vtf.obj
 0002:00007fd0       ??_C@_0BC@PHJIOAED@lowResImageSample?$AA@ 004a0fd0     vtf:vtf.obj
 0002:00007fe4       ??_C@_0CL@EOJJNAIP@?$CK?$CK?$CK?5Encountered?5VTF?5invalid?5text@ 004a0fe4     vtf:vtf.obj
 0002:00008010       ??_C@_0CN@NDAFOEKI@?$CK?$CK?$CK?5Encountered?5VTF?5volume?5textu@ 004a1010     vtf:vtf.obj
 0002:00008040       ??_C@_0CJ@MFDAKNAJ@?$CK?$CK?$CK?5Encountered?5VTF?5non?9square?5c@ 004a1040     vtf:vtf.obj
 0002:0000806c       ??_C@_0CJ@JBJPBPEG@Image?5dimensions?5must?5be?5multipl@ 004a106c     vtf:vtf.obj
 0002:00008098       ??_C@_0BP@KGAAMOBJ@Depth?5must?5be?51?5for?5cubemaps?$CB?6?$AA@ 004a1098     vtf:vtf.obj
 0002:000080b8       ??_C@_0CO@IPADFNJN@Height?5and?5width?5must?5be?5equal?5f@ 004a10b8     vtf:vtf.obj
 0002:000080e8       ??_C@_0CP@BOKKEMAO@GenerateRepresentativePalette?3?5n@ 004a10e8     vtf:s3tc_decode.obj
 0002:00008118       __FPinit                   004a1118     LIBCMT:_fpinit_.obj
 0002:00008120       ??_7type_info@@6B@         004a1120     LIBCMT:typinfo.obj
 0002:00008184       ??_7exception@std@@6B@     004a1184     LIBCMT:stdexcpt.obj
 0002:0000818c       ??_C@_0BC@EOODALEL@Unknown?5exception?$AA@ 004a118c     LIBCMT:stdexcpt.obj
 0002:000081a4       ??_7bad_cast@std@@6B@      004a11a4     LIBCMT:stdexcpt.obj
 0002:000081d0       __OP_FMODjmptab            004a11d0     LIBCMT:_87fmod_.obj
 0002:00008220       ??_C@_0P@MIGLKIOC@CorExitProcess?$AA@ 004a1220     LIBCMT:crt0dat.obj
 0002:00008230       ??_C@_1BI@BGOHAHKC@?$AAm?$AAs?$AAc?$AAo?$AAr?$AAe?$AAe?$AA?4?$AAd?$AAl?$AAl?$AA?$AA@ 004a1230     LIBCMT:crt0dat.obj
 0002:00008298       ??_C@_0EA@FCLIIPNN@Visual?5C?$CL?$CL?5CRT?3?5Not?5enough?5memor@ 004a1298     LIBCMT:strerror.obj
 0002:000082d8       ??_C@_03FICNPLNB@TMP?$AA@  004a12d8     LIBCMT:tempnam.obj
 0002:000082dc       ??_C@_05KLBDPFGC@e?$CL000?$AA@ 004a12dc     LIBCMT:cvt.obj
 0002:000082e4       ??_C@_1O@CEDCILHN@?$AA?$CI?$AAn?$AAu?$AAl?$AAl?$AA?$CJ?$AA?$AA@ 004a12e4     LIBCMT:output.obj
 0002:000082f4       ??_C@_06OJHGLDPL@?$CInull?$CJ?$AA@ 004a12f4     LIBCMT:output.obj
 0002:00008300       ___lookuptable             004a1300     LIBCMT:output.obj
 0002:0000837c       ??_C@_1BK@DBDEIDLH@?$AAK?$AAE?$AAR?$AAN?$AAE?$AAL?$AA3?$AA2?$AA?4?$AAD?$AAL?$AAL?$AA?$AA@ 004a137c     LIBCMT:tidtable.obj
 0002:00008398       ??_C@_07PEJMOBNF@FlsFree?$AA@ 004a1398     LIBCMT:tidtable.obj
 0002:000083a0       ??_C@_0M@JCPCPOEF@FlsSetValue?$AA@ 004a13a0     LIBCMT:tidtable.obj
 0002:000083ac       ??_C@_0M@GDNOONDI@FlsGetValue?$AA@ 004a13ac     LIBCMT:tidtable.obj
 0002:000083b8       ??_C@_08KNHFBNJ@FlsAlloc?$AA@ 004a13b8     LIBCMT:tidtable.obj
 0002:000083c4       ??_C@_1BO@BKOMIGKJ@?$AAr?$AAu?$AAn?$AAt?$AAi?$AAm?$AAe?$AA?5?$AAe?$AAr?$AAr?$AAo?$AAr?$AA?5?$AA?$AA@ 004a13c4     LIBCMT:crt0msg.obj
 0002:000083e4       ??_C@_15JNBOKNOG@?$AA?$AN?$AA?6?$AA?$AA@ 004a13e4     LIBCMT:crt0msg.obj
 0002:000083ec       ??_C@_1BM@JBBEPPHI@?$AAT?$AAL?$AAO?$AAS?$AAS?$AA?5?$AAe?$AAr?$AAr?$AAo?$AAr?$AA?$AN?$AA?6?$AA?$AA@ 004a13ec     LIBCMT:crt0msg.obj
 0002:00008408       ??_C@_1BK@KMOMNAAI@?$AAS?$AAI?$AAN?$AAG?$AA?5?$AAe?$AAr?$AAr?$AAo?$AAr?$AA?$AN?$AA?6?$AA?$AA@ 004a1408     LIBCMT:crt0msg.obj
 0002:00008424       ??_C@_1BO@BFCDCGC@?$AAD?$AAO?$AAM?$AAA?$AAI?$AAN?$AA?5?$AAe?$AAr?$AAr?$AAo?$AAr?$AA?$AN?$AA?6?$AA?$AA@ 004a1424     LIBCMT:crt0msg.obj
 0002:00008448       ??_C@_1BOO@KGEDBGAJ@?$AAR?$AA6?$AA0?$AA3?$AA3?$AA?$AN?$AA?6?$AA?9?$AA?5?$AAA?$AAt?$AAt?$AAe?$AAm?$AAp?$AAt?$AA?5?$AAt?$AAo?$AA?5?$AAu?$AAs?$AAe?$AA?5?$AAM?$AAS?$AAI?$AAL?$AA?5?$AAc?$AAo?$AAd@ 004a1448     LIBCMT:crt0msg.obj
 0002:00008638       ??_C@_1GG@GOPILAJP@?$AAR?$AA6?$AA0?$AA3?$AA2?$AA?$AN?$AA?6?$AA?9?$AA?5?$AAn?$AAo?$AAt?$AA?5?$AAe?$AAn?$AAo?$AAu?$AAg?$AAh?$AA?5?$AAs?$AAp?$AAa?$AAc?$AAe?$AA?5?$AAf?$AAo?$AAr?$AA?5?$AAl?$AAo@ 004a1638     LIBCMT:crt0msg.obj
 0002:000086a0       ??_C@_1MG@ENCOOIDF@?$AAR?$AA6?$AA0?$AA3?$AA1?$AA?$AN?$AA?6?$AA?9?$AA?5?$AAA?$AAt?$AAt?$AAe?$AAm?$AAp?$AAt?$AA?5?$AAt?$AAo?$AA?5?$AAi?$AAn?$AAi?$AAt?$AAi?$AAa?$AAl?$AAi?$AAz?$AAe?$AA?5?$AAt@ 004a16a0     LIBCMT:crt0msg.obj
 0002:00008768       ??_C@_1DO@BMFCDCD@?$AAR?$AA6?$AA0?$AA3?$AA0?$AA?$AN?$AA?6?$AA?9?$AA?5?$AAC?$AAR?$AAT?$AA?5?$AAn?$AAo?$AAt?$AA?5?$AAi?$AAn?$AAi?$AAt?$AAi?$AAa?$AAl?$AAi?$AAz?$AAe?$AAd?$AA?$AN?$AA?6?$AA?$AA@ 004a1768     LIBCMT:crt0msg.obj
 0002:000087a8       ??_C@_1EK@HHFLMAOL@?$AAR?$AA6?$AA0?$AA2?$AA8?$AA?$AN?$AA?6?$AA?9?$AA?5?$AAu?$AAn?$AAa?$AAb?$AAl?$AAe?$AA?5?$AAt?$AAo?$AA?5?$AAi?$AAn?$AAi?$AAt?$AAi?$AAa?$AAl?$AAi?$AAz?$AAe?$AA?5?$AAh?$AAe@ 004a17a8     LIBCMT:crt0msg.obj
 0002:000087f8       ??_C@_1GK@MFGOKLAG@?$AAR?$AA6?$AA0?$AA2?$AA7?$AA?$AN?$AA?6?$AA?9?$AA?5?$AAn?$AAo?$AAt?$AA?5?$AAe?$AAn?$AAo?$AAu?$AAg?$AAh?$AA?5?$AAs?$AAp?$AAa?$AAc?$AAe?$AA?5?$AAf?$AAo?$AAr?$AA?5?$AAl?$AAo@ 004a17f8     LIBCMT:crt0msg.obj
 0002:00008868       ??_C@_1GK@MCAAGJMO@?$AAR?$AA6?$AA0?$AA2?$AA6?$AA?$AN?$AA?6?$AA?9?$AA?5?$AAn?$AAo?$AAt?$AA?5?$AAe?$AAn?$AAo?$AAu?$AAg?$AAh?$AA?5?$AAs?$AAp?$AAa?$AAc?$AAe?$AA?5?$AAf?$AAo?$AAr?$AA?5?$AAs?$AAt@ 004a1868     LIBCMT:crt0msg.obj
 0002:000088d8       ??_C@_1EM@MAADIHMB@?$AAR?$AA6?$AA0?$AA2?$AA5?$AA?$AN?$AA?6?$AA?9?$AA?5?$AAp?$AAu?$AAr?$AAe?$AA?5?$AAv?$AAi?$AAr?$AAt?$AAu?$AAa?$AAl?$AA?5?$AAf?$AAu?$AAn?$AAc?$AAt?$AAi?$AAo?$AAn?$AA?5?$AAc@ 004a18d8     LIBCMT:crt0msg.obj
 0002:00008928       ??_C@_1GK@FHCKBEFA@?$AAR?$AA6?$AA0?$AA2?$AA4?$AA?$AN?$AA?6?$AA?9?$AA?5?$AAn?$AAo?$AAt?$AA?5?$AAe?$AAn?$AAo?$AAu?$AAg?$AAh?$AA?5?$AAs?$AAp?$AAa?$AAc?$AAe?$AA?5?$AAf?$AAo?$AAr?$AA?5?$AA_?$AAo@ 004a1928     LIBCMT:crt0msg.obj
 0002:00008998       ??_C@_1FC@ECHBIFBC@?$AAR?$AA6?$AA0?$AA1?$AA9?$AA?$AN?$AA?6?$AA?9?$AA?5?$AAu?$AAn?$AAa?$AAb?$AAl?$AAe?$AA?5?$AAt?$AAo?$AA?5?$AAo?$AAp?$AAe?$AAn?$AA?5?$AAc?$AAo?$AAn?$AAs?$AAo?$AAl?$AAe?$AA?5@ 004a1998     LIBCMT:crt0msg.obj
 0002:000089f0       ??_C@_1EC@JIBHAOPH@?$AAR?$AA6?$AA0?$AA1?$AA8?$AA?$AN?$AA?6?$AA?9?$AA?5?$AAu?$AAn?$AAe?$AAx?$AAp?$AAe?$AAc?$AAt?$AAe?$AAd?$AA?5?$AAh?$AAe?$AAa?$AAp?$AA?5?$AAe?$AAr?$AAr?$AAo?$AAr?$AA?$AN?$AA?6@ 004a19f0     LIBCMT:crt0msg.obj
 0002:00008a38       ??_C@_1FK@BEOGODMC@?$AAR?$AA6?$AA0?$AA1?$AA7?$AA?$AN?$AA?6?$AA?9?$AA?5?$AAu?$AAn?$AAe?$AAx?$AAp?$AAe?$AAc?$AAt?$AAe?$AAd?$AA?5?$AAm?$AAu?$AAl?$AAt?$AAi?$AAt?$AAh?$AAr?$AAe?$AAa?$AAd?$AA?5@ 004a1a38     LIBCMT:crt0msg.obj
 0002:00008a98       ??_C@_1FI@LOGNIKDM@?$AAR?$AA6?$AA0?$AA1?$AA6?$AA?$AN?$AA?6?$AA?9?$AA?5?$AAn?$AAo?$AAt?$AA?5?$AAe?$AAn?$AAo?$AAu?$AAg?$AAh?$AA?5?$AAs?$AAp?$AAa?$AAc?$AAe?$AA?5?$AAf?$AAo?$AAr?$AA?5?$AAt?$AAh@ 004a1a98     LIBCMT:crt0msg.obj
 0002:00008af0       ??_C@_1EG@BEHAGFJD@?$AAR?$AA6?$AA0?$AA1?$AA0?$AA?$AN?$AA?6?$AA?9?$AA?5?$AAa?$AAb?$AAo?$AAr?$AAt?$AA?$CI?$AA?$CJ?$AA?5?$AAh?$AAa?$AAs?$AA?5?$AAb?$AAe?$AAe?$AAn?$AA?5?$AAc?$AAa?$AAl?$AAl?$AAe?$AAd@ 004a1af0     LIBCMT:crt0msg.obj
 0002:00008b38       ??_C@_1FI@HONFMGBI@?$AAR?$AA6?$AA0?$AA0?$AA9?$AA?$AN?$AA?6?$AA?9?$AA?5?$AAn?$AAo?$AAt?$AA?5?$AAe?$AAn?$AAo?$AAu?$AAg?$AAh?$AA?5?$AAs?$AAp?$AAa?$AAc?$AAe?$AA?5?$AAf?$AAo?$AAr?$AA?5?$AAe?$AAn@ 004a1b38     LIBCMT:crt0msg.obj
 0002:00008b90       ??_C@_1FE@LLNEDJMD@?$AAR?$AA6?$AA0?$AA0?$AA8?$AA?$AN?$AA?6?$AA?9?$AA?5?$AAn?$AAo?$AAt?$AA?5?$AAe?$AAn?$AAo?$AAu?$AAg?$AAh?$AA?5?$AAs?$AAp?$AAa?$AAc?$AAe?$AA?5?$AAf?$AAo?$AAr?$AA?5?$AAa?$AAr@ 004a1b90     LIBCMT:crt0msg.obj
 0002:00008be8       ??_C@_1FK@PGACCAFB@?$AAR?$AA6?$AA0?$AA0?$AA2?$AA?$AN?$AA?6?$AA?9?$AA?5?$AAf?$AAl?$AAo?$AAa?$AAt?$AAi?$AAn?$AAg?$AA?5?$AAp?$AAo?$AAi?$AAn?$AAt?$AA?5?$AAs?$AAu?$AAp?$AAp?$AAo?$AAr?$AAt?$AA?5@ 004a1be8     LIBCMT:crt0msg.obj
 0002:00008cf8       ??_C@_1EK@MBDPDCGA@?$AAM?$AAi?$AAc?$AAr?$AAo?$AAs?$AAo?$AAf?$AAt?$AA?5?$AAV?$AAi?$AAs?$AAu?$AAa?$AAl?$AA?5?$AAC?$AA?$CL?$AA?$CL?$AA?5?$AAR?$AAu?$AAn?$AAt?$AAi?$AAm?$AAe?$AA?5?$AAL?$AAi?$AAb@ 004a1cf8     LIBCMT:crt0msg.obj
 0002:00008d44       ??_C@_15IABLJNFO@?$AA?6?$AA?6?$AA?$AA@ 004a1d44     LIBCMT:crt0msg.obj
 0002:00008d4c       ??_C@_17LGKOMLJ@?$AA?4?$AA?4?$AA?4?$AA?$AA@ 004a1d4c     LIBCMT:crt0msg.obj
 0002:00008d54       ??_C@_1CO@EAEJAADC@?$AA?$DM?$AAp?$AAr?$AAo?$AAg?$AAr?$AAa?$AAm?$AA?5?$AAn?$AAa?$AAm?$AAe?$AA?5?$AAu?$AAn?$AAk?$AAn?$AAo?$AAw?$AAn?$AA?$DO?$AA?$AA@ 004a1d54     LIBCMT:crt0msg.obj
 0002:00008d84       ??_C@_1DE@JNGNBFGO@?$AAR?$AAu?$AAn?$AAt?$AAi?$AAm?$AAe?$AA?5?$AAE?$AAr?$AAr?$AAo?$AAr?$AA?$CB?$AA?6?$AA?6?$AAP?$AAr?$AAo?$AAg?$AAr?$AAa?$AAm?$AA?3?$AA?5?$AA?$AA@ 004a1d84     LIBCMT:crt0msg.obj
 0002:00008db8       ??_C@_1BC@GDGBMEMK@?$AAH?$AAH?$AA?3?$AAm?$AAm?$AA?3?$AAs?$AAs?$AA?$AA@ 004a1db8     LIBCMT:nlsdata2.obj
 0002:00008dcc       ??_C@_1CI@KNAKOEBC@?$AAd?$AAd?$AAd?$AAd?$AA?0?$AA?5?$AAM?$AAM?$AAM?$AAM?$AA?5?$AAd?$AAd?$AA?0?$AA?5?$AAy?$AAy?$AAy?$AAy?$AA?$AA@ 004a1dcc     LIBCMT:nlsdata2.obj
 0002:00008df4       ??_C@_1BC@IEBCMHCM@?$AAM?$AAM?$AA?1?$AAd?$AAd?$AA?1?$AAy?$AAy?$AA?$AA@ 004a1df4     LIBCMT:nlsdata2.obj
 0002:00008e08       ??_C@_15CLMNNGEL@?$AAP?$AAM?$AA?$AA@ 004a1e08     LIBCMT:nlsdata2.obj
 0002:00008e10       ??_C@_15ODEHAHHF@?$AAA?$AAM?$AA?$AA@ 004a1e10     LIBCMT:nlsdata2.obj
 0002:00008e18       ??_C@_1BC@FEMKIFH@?$AAD?$AAe?$AAc?$AAe?$AAm?$AAb?$AAe?$AAr?$AA?$AA@ 004a1e18     LIBCMT:nlsdata2.obj
 0002:00008e2c       ??_C@_1BC@BGLIFPF@?$AAN?$AAo?$AAv?$AAe?$AAm?$AAb?$AAe?$AAr?$AA?$AA@ 004a1e2c     LIBCMT:nlsdata2.obj
 0002:00008e40       ??_C@_1BA@EPANDLNG@?$AAO?$AAc?$AAt?$AAo?$AAb?$AAe?$AAr?$AA?$AA@ 004a1e40     LIBCMT:nlsdata2.obj
 0002:00008e50       ??_C@_1BE@DKAAMBJL@?$AAS?$AAe?$AAp?$AAt?$AAe?$AAm?$AAb?$AAe?$AAr?$AA?$AA@ 004a1e50     LIBCMT:nlsdata2.obj
 0002:00008e64       ??_C@_1O@PAHLKOAC@?$AAA?$AAu?$AAg?$AAu?$AAs?$AAt?$AA?$AA@ 004a1e64     LIBCMT:nlsdata2.obj
 0002:00008e74       ??_C@_19BIFMLPCD@?$AAJ?$AAu?$AAl?$AAy?$AA?$AA@ 004a1e74     LIBCMT:nlsdata2.obj
 0002:00008e80       ??_C@_19EPFLPGAP@?$AAJ?$AAu?$AAn?$AAe?$AA?$AA@ 004a1e80     LIBCMT:nlsdata2.obj
 0002:00008e8c       ??_C@_1M@GJNLMHFD@?$AAA?$AAp?$AAr?$AAi?$AAl?$AA?$AA@ 004a1e8c     LIBCMT:nlsdata2.obj
 0002:00008e98       ??_C@_1M@IKEENEDF@?$AAM?$AAa?$AAr?$AAc?$AAh?$AA?$AA@ 004a1e98     LIBCMT:nlsdata2.obj
 0002:00008ea4       ??_C@_1BC@JGDDFFAM@?$AAF?$AAe?$AAb?$AAr?$AAu?$AAa?$AAr?$AAy?$AA?$AA@ 004a1ea4     LIBCMT:nlsdata2.obj
 0002:00008eb8       ??_C@_1BA@EFMEIEBA@?$AAJ?$AAa?$AAn?$AAu?$AAa?$AAr?$AAy?$AA?$AA@ 004a1eb8     LIBCMT:nlsdata2.obj
 0002:00008ec8       ??_C@_17EGKACKIF@?$AAD?$AAe?$AAc?$AA?$AA@ 004a1ec8     LIBCMT:nlsdata2.obj
 0002:00008ed0       ??_C@_17BBDMLCIG@?$AAN?$AAo?$AAv?$AA?$AA@ 004a1ed0     LIBCMT:nlsdata2.obj
 0002:00008ed8       ??_C@_17FNLKOI@?$AAO?$AAc?$AAt?$AA?$AA@ 004a1ed8     LIBCMT:nlsdata2.obj
 0002:00008ee0       ??_C@_17HCHCOKMG@?$AAS?$AAe?$AAp?$AA?$AA@ 004a1ee0     LIBCMT:nlsdata2.obj
 0002:00008ee8       ??_C@_17ICPELBCN@?$AAA?$AAu?$AAg?$AA?$AA@ 004a1ee8     LIBCMT:nlsdata2.obj
 0002:00008ef0       ??_C@_17IJPCKHK@?$AAJ?$AAu?$AAl?$AA?$AA@ 004a1ef0     LIBCMT:nlsdata2.obj
 0002:00008ef8       ??_C@_17KCJGOCPB@?$AAJ?$AAu?$AAn?$AA?$AA@ 004a1ef8     LIBCMT:nlsdata2.obj
 0002:00008f00       ??_C@_17PNNKMEED@?$AAM?$AAa?$AAy?$AA?$AA@ 004a1f00     LIBCMT:nlsdata2.obj
 0002:00008f08       ??_C@_17LFPOIHDD@?$AAA?$AAp?$AAr?$AA?$AA@ 004a1f08     LIBCMT:nlsdata2.obj
 0002:00008f10       ??_C@_17CKNLEDEC@?$AAM?$AAa?$AAr?$AA?$AA@ 004a1f10     LIBCMT:nlsdata2.obj
 0002:00008f18       ??_C@_17LMDJEKJN@?$AAF?$AAe?$AAb?$AA?$AA@ 004a1f18     LIBCMT:nlsdata2.obj
 0002:00008f20       ??_C@_17DKNBKCHM@?$AAJ?$AAa?$AAn?$AA?$AA@ 004a1f20     LIBCMT:nlsdata2.obj
 0002:00008f28       ??_C@_1BC@ENMNNPAJ@?$AAS?$AAa?$AAt?$AAu?$AAr?$AAd?$AAa?$AAy?$AA?$AA@ 004a1f28     LIBCMT:nlsdata2.obj
 0002:00008f3c       ??_C@_1O@PDICJHAG@?$AAF?$AAr?$AAi?$AAd?$AAa?$AAy?$AA?$AA@ 004a1f3c     LIBCMT:nlsdata2.obj
 0002:00008f4c       ??_C@_1BC@HHMNLIHE@?$AAT?$AAh?$AAu?$AAr?$AAs?$AAd?$AAa?$AAy?$AA?$AA@ 004a1f4c     LIBCMT:nlsdata2.obj
 0002:00008f60       ??_C@_1BE@EBOGMDOH@?$AAW?$AAe?$AAd?$AAn?$AAe?$AAs?$AAd?$AAa?$AAy?$AA?$AA@ 004a1f60     LIBCMT:nlsdata2.obj
 0002:00008f74       ??_C@_1BA@ENFBFFEK@?$AAT?$AAu?$AAe?$AAs?$AAd?$AAa?$AAy?$AA?$AA@ 004a1f74     LIBCMT:nlsdata2.obj
 0002:00008f84       ??_C@_1O@MMNBFLIA@?$AAM?$AAo?$AAn?$AAd?$AAa?$AAy?$AA?$AA@ 004a1f84     LIBCMT:nlsdata2.obj
 0002:00008f94       ??_C@_1O@IHNHDHPB@?$AAS?$AAu?$AAn?$AAd?$AAa?$AAy?$AA?$AA@ 004a1f94     LIBCMT:nlsdata2.obj
 0002:00008fa4       ??_C@_17GGIBDPIH@?$AAS?$AAa?$AAt?$AA?$AA@ 004a1fa4     LIBCMT:nlsdata2.obj
 0002:00008fac       ??_C@_17HFOLPPLP@?$AAF?$AAr?$AAi?$AA?$AA@ 004a1fac     LIBCMT:nlsdata2.obj
 0002:00008fb4       ??_C@_17PDPHAADD@?$AAT?$AAh?$AAu?$AA?$AA@ 004a1fb4     LIBCMT:nlsdata2.obj
 0002:00008fbc       ??_C@_17CJEDCEPE@?$AAW?$AAe?$AAd?$AA?$AA@ 004a1fbc     LIBCMT:nlsdata2.obj
 0002:00008fc4       ??_C@_17BMKGEGOJ@?$AAT?$AAu?$AAe?$AA?$AA@ 004a1fc4     LIBCMT:nlsdata2.obj
 0002:00008fcc       ??_C@_17KBOMKBF@?$AAM?$AAo?$AAn?$AA?$AA@ 004a1fcc     LIBCMT:nlsdata2.obj
 0002:00008fd4       ??_C@_17MBGCMIPB@?$AAS?$AAu?$AAn?$AA?$AA@ 004a1fd4     LIBCMT:nlsdata2.obj
 0002:00008fdc       ??_C@_08JCCMCCIL@HH?3mm?3ss?$AA@ 004a1fdc     LIBCMT:nlsdata2.obj
 0002:00008fe8       ??_C@_0BE@CKGJFCPC@dddd?0?5MMMM?5dd?0?5yyyy?$AA@ 004a1fe8     LIBCMT:nlsdata2.obj
 0002:00008ffc       ??_C@_08BPBNCDIB@MM?1dd?1yy?$AA@ 004a1ffc     LIBCMT:nlsdata2.obj
 0002:00009008       ??_C@_02CJNFDJBF@PM?$AA@   004a2008     LIBCMT:nlsdata2.obj
 0002:0000900c       ??_C@_02DEDBPAFC@AM?$AA@   004a200c     LIBCMT:nlsdata2.obj
 0002:00009010       ??_C@_08EDHMEBNP@December?$AA@ 004a2010     LIBCMT:nlsdata2.obj
 0002:0000901c       ??_C@_08HCHEGEOA@November?$AA@ 004a201c     LIBCMT:nlsdata2.obj
 0002:00009028       ??_C@_07JJNFCEND@October?$AA@ 004a2028     LIBCMT:nlsdata2.obj
 0002:00009030       ??_C@_09BHHEALKD@September?$AA@ 004a2030     LIBCMT:nlsdata2.obj
 0002:0000903c       ??_C@_06LBBHFDDG@August?$AA@ 004a203c     LIBCMT:nlsdata2.obj
 0002:00009044       ??_C@_04MIEPOIFP@July?$AA@ 004a2044     LIBCMT:nlsdata2.obj
 0002:0000904c       ??_C@_04CNLMGBGM@June?$AA@ 004a204c     LIBCMT:nlsdata2.obj
 0002:00009054       ??_C@_05DMJDNLEJ@April?$AA@ 004a2054     LIBCMT:nlsdata2.obj
 0002:0000905c       ??_C@_05HPCKOFNC@March?$AA@ 004a205c     LIBCMT:nlsdata2.obj
 0002:00009064       ??_C@_08GNJGEPFN@February?$AA@ 004a2064     LIBCMT:nlsdata2.obj
 0002:00009070       ??_C@_07CGJPFGJA@January?$AA@ 004a2070     LIBCMT:nlsdata2.obj
 0002:00009078       ??_C@_03MKABNOCG@Dec?$AA@  004a2078     LIBCMT:nlsdata2.obj
 0002:0000907c       ??_C@_03JPJOFNIA@Nov?$AA@  004a207c     LIBCMT:nlsdata2.obj
 0002:00009080       ??_C@_03BMAOKBAD@Oct?$AA@  004a2080     LIBCMT:nlsdata2.obj
 0002:00009084       ??_C@_03GGCAPAJC@Sep?$AA@  004a2084     LIBCMT:nlsdata2.obj
 0002:00009088       ??_C@_03IFJFEIGA@Aug?$AA@  004a2088     LIBCMT:nlsdata2.obj
 0002:0000908c       ??_C@_03LBGABGKK@Jul?$AA@  004a208c     LIBCMT:nlsdata2.obj
 0002:00009090       ??_C@_03IDFGHECI@Jun?$AA@  004a2090     LIBCMT:nlsdata2.obj
 0002:00009094       ??_C@_03CNMDKL@May?$AA@    004a2094     LIBCMT:nlsdata2.obj
 0002:00009098       ??_C@_03LEOLGMJP@Apr?$AA@  004a2098     LIBCMT:nlsdata2.obj
 0002:0000909c       ??_C@_03ODNJBKGA@Mar?$AA@  004a209c     LIBCMT:nlsdata2.obj
 0002:000090a0       ??_C@_03HJBDCHOM@Feb?$AA@  004a20a0     LIBCMT:nlsdata2.obj
 0002:000090a4       ??_C@_03JIHJHPIE@Jan?$AA@  004a20a4     LIBCMT:nlsdata2.obj
 0002:000090a8       ??_C@_08INBOOONO@Saturday?$AA@ 004a20a8     LIBCMT:nlsdata2.obj
 0002:000090b4       ??_C@_06JECMNKMI@Friday?$AA@ 004a20b4     LIBCMT:nlsdata2.obj
 0002:000090bc       ??_C@_08HACCIKIA@Thursday?$AA@ 004a20bc     LIBCMT:nlsdata2.obj
 0002:000090c8       ??_C@_09DLIGFAKA@Wednesday?$AA@ 004a20c8     LIBCMT:nlsdata2.obj
 0002:000090d4       ??_C@_07BAAGCFCM@Tuesday?$AA@ 004a20d4     LIBCMT:nlsdata2.obj
 0002:000090dc       ??_C@_06JLEDEDGH@Monday?$AA@ 004a20dc     LIBCMT:nlsdata2.obj
 0002:000090e4       ??_C@_06OOPIFAJ@Sunday?$AA@ 004a20e4     LIBCMT:nlsdata2.obj
 0002:000090ec       ??_C@_03FEFJNEK@Sat?$AA@   004a20ec     LIBCMT:nlsdata2.obj
 0002:000090f0       ??_C@_03IDIOELNC@Fri?$AA@  004a20f0     LIBCMT:nlsdata2.obj
 0002:000090f4       ??_C@_03IOFIKPDN@Thu?$AA@  004a20f4     LIBCMT:nlsdata2.obj
 0002:000090f8       ??_C@_03MHOMLAJA@Wed?$AA@  004a20f8     LIBCMT:nlsdata2.obj
 0002:000090fc       ??_C@_03NAGEINEP@Tue?$AA@  004a20fc     LIBCMT:nlsdata2.obj
 0002:00009100       ??_C@_03PDAGKDH@Mon?$AA@   004a2100     LIBCMT:nlsdata2.obj
 0002:00009104       ??_C@_03KOEHGMDN@Sun?$AA@  004a2104     LIBCMT:nlsdata2.obj
 0002:00009170       ??_C@_03IIINPABG@tan?$AA@  004a2170     LIBCMT:_libm_error_.obj
 0002:00009174       ??_C@_03LALBNOCG@cos?$AA@  004a2174     LIBCMT:_libm_error_.obj
 0002:00009178       ??_C@_03BLEJJJBH@sin?$AA@  004a2178     LIBCMT:_libm_error_.obj
 0002:0000917c       ??_C@_04EHEDPDJG@modf?$AA@ 004a217c     LIBCMT:_libm_error_.obj
 0002:00009184       ??_C@_05PBJFFIGL@floor?$AA@ 004a2184     LIBCMT:_libm_error_.obj
 0002:0000918c       ??_C@_04GFPJNGEK@ceil?$AA@ 004a218c     LIBCMT:_libm_error_.obj
 0002:00009194       ??_C@_04MLLJIGOK@atan?$AA@ 004a2194     LIBCMT:_libm_error_.obj
 0002:0000919c       ??_C@_05EOHGHCHD@exp10?$AA@ 004a219c     LIBCMT:_libm_error_.obj
 0002:000091a4       ??_C@_04PDIFKINK@acos?$AA@ 004a21a4     LIBCMT:_libm_error_.obj
 0002:000091ac       ??_C@_04FIHNOPOL@asin?$AA@ 004a21ac     LIBCMT:_libm_error_.obj
 0002:000091b4       ??_C@_03MGHMBJCF@log?$AA@  004a21b4     LIBCMT:_libm_error_.obj
 0002:000091b8       ??_C@_05HGHHAHAP@log10?$AA@ 004a21b8     LIBCMT:_libm_error_.obj
 0002:000091c0       ??_C@_03KHJOGHMM@exp?$AA@  004a21c0     LIBCMT:_libm_error_.obj
 0002:000091c4       ??_C@_03JGHBODFD@pow?$AA@  004a21c4     LIBCMT:_libm_error_.obj
 0002:000091c8       __pDestructExceptionObject 004a21c8     LIBCMT:frame.obj
 0002:000091d0       ??_7bad_exception@std@@6B@ 004a21d0     LIBCMT:frame.obj
 0002:000091d8       ??_C@_0O@DPKOEFFH@bad?5exception?$AA@ 004a21d8     LIBCMT:frame.obj
 0002:00009220       __indefinite               004a2220     LIBCMT:_87disp_.obj
 0002:0000922a       __piby2                    004a222a     LIBCMT:_87disp_.obj
 0002:0000924c       ??_C@_07LCBHPJJN@LC_TIME?$AA@ 004a224c     LIBCMT:setlocal.obj
 0002:00009254       ??_C@_0L@DLHIECNL@LC_NUMERIC?$AA@ 004a2254     LIBCMT:setlocal.obj
 0002:00009260       ??_C@_0M@MIENIKLA@LC_MONETARY?$AA@ 004a2260     LIBCMT:setlocal.obj
 0002:0000926c       ??_C@_08EADHIDAD@LC_CTYPE?$AA@ 004a226c     LIBCMT:setlocal.obj
 0002:00009278       ??_C@_0L@KFJHEKIK@LC_COLLATE?$AA@ 004a2278     LIBCMT:setlocal.obj
 0002:00009284       ??_C@_06NEFDFEKB@LC_ALL?$AA@ 004a2284     LIBCMT:setlocal.obj
 0002:00009290       ___lc_category             004a2290     LIBCMT:setlocal.obj
 0002:00009358       ??_C@_03EGDHDPFD@_?4?0?$AA@ 004a2358     LIBCMT:setlocal.obj
 0002:0000935c       ??_C@_01ICJEACDI@?$DL?$AA@ 004a235c     LIBCMT:setlocal.obj
 0002:00009360       ??_C@_01NEMOKFLO@?$DN?$AA@ 004a2360     LIBCMT:setlocal.obj
 0002:00009364       ??_C@_01GFHCPBMG@C?$AA@    004a2364     LIBCMT:setlocal.obj
 0002:00009368       ??_C@_02BALPLPBG@?$DN?$DL?$AA@ 004a2368     LIBCMT:setlocal.obj
 0002:0000936c       ??_C@_0BG@KLEAJEFJ@Illegal?5byte?5sequence?$AA@ 004a236c     LIBCMT:syserr.obj
 0002:00009384       ??_C@_0BE@ICMCHPHH@Directory?5not?5empty?$AA@ 004a2384     LIBCMT:syserr.obj
 0002:00009398       ??_C@_0BJ@IHEHINLI@Function?5not?5implemented?$AA@ 004a2398     LIBCMT:syserr.obj
 0002:000093b4       ??_C@_0BD@CLHBCGPB@No?5locks?5available?$AA@ 004a23b4     LIBCMT:syserr.obj
 0002:000093c8       ??_C@_0BC@BEDIHIDK@Filename?5too?5long?$AA@ 004a23c8     LIBCMT:syserr.obj
 0002:000093dc       ??_C@_0BK@JAEBMJJM@Resource?5deadlock?5avoided?$AA@ 004a23dc     LIBCMT:syserr.obj
 0002:000093f8       ??_C@_0BB@FCBJFCAJ@Result?5too?5large?$AA@ 004a23f8     LIBCMT:syserr.obj
 0002:0000940c       ??_C@_0N@MMJPGLJK@Domain?5error?$AA@ 004a240c     LIBCMT:syserr.obj
 0002:0000941c       ??_C@_0M@LHEPIIOM@Broken?5pipe?$AA@ 004a241c     LIBCMT:syserr.obj
 0002:00009428       ??_C@_0P@PKCJJLLM@Too?5many?5links?$AA@ 004a2428     LIBCMT:syserr.obj
 0002:00009438       ??_C@_0BG@DDBFNKBH@Read?9only?5file?5system?$AA@ 004a2438     LIBCMT:syserr.obj
 0002:00009450       ??_C@_0N@FEHLOILP@Invalid?5seek?$AA@ 004a2450     LIBCMT:syserr.obj
 0002:00009460       ??_C@_0BI@FEALHKLD@No?5space?5left?5on?5device?$AA@ 004a2460     LIBCMT:syserr.obj
 0002:00009478       ??_C@_0P@LFMMIPAE@File?5too?5large?$AA@ 004a2478     LIBCMT:syserr.obj
 0002:00009488       ??_C@_0CE@ONOKNLPF@Inappropriate?5I?1O?5control?5operat@ 004a2488     LIBCMT:syserr.obj
 0002:000094ac       ??_C@_0BE@INBJMKGG@Too?5many?5open?5files?$AA@ 004a24ac     LIBCMT:syserr.obj
 0002:000094c0       ??_C@_0BO@IIFBODJE@Too?5many?5open?5files?5in?5system?$AA@ 004a24c0     LIBCMT:syserr.obj
 0002:000094e0       ??_C@_0BB@HMGGCEBG@Invalid?5argument?$AA@ 004a24e0     LIBCMT:syserr.obj
 0002:000094f4       ??_C@_0P@NDHGCGKE@Is?5a?5directory?$AA@ 004a24f4     LIBCMT:syserr.obj
 0002:00009504       ??_C@_0BA@CJBACOOL@Not?5a?5directory?$AA@ 004a2504     LIBCMT:syserr.obj
 0002:00009514       ??_C@_0P@NLEIANHE@No?5such?5device?$AA@ 004a2514     LIBCMT:syserr.obj
 0002:00009524       ??_C@_0O@OAMDNOCP@Improper?5link?$AA@ 004a2524     LIBCMT:syserr.obj
 0002:00009534       ??_C@_0M@NAAJNNGH@File?5exists?$AA@ 004a2534     LIBCMT:syserr.obj
 0002:00009540       ??_C@_0BA@BIBLIOEK@Resource?5device?$AA@ 004a2540     LIBCMT:syserr.obj
 0002:00009550       ??_C@_0O@NIPGCINC@Unknown?5error?$AA@ 004a2550     LIBCMT:syserr.obj
 0002:00009560       ??_C@_0M@LOEHLCJD@Bad?5address?$AA@ 004a2560     LIBCMT:syserr.obj
 0002:0000956c       ??_C@_0BC@HFNFNKAI@Permission?5denied?$AA@ 004a256c     LIBCMT:syserr.obj
 0002:00009580       ??_C@_0BB@IMDKMPFB@Not?5enough?5space?$AA@ 004a2580     LIBCMT:syserr.obj
 0002:00009594       ??_C@_0CB@EPFKGNAK@Resource?5temporarily?5unavailable@ 004a2594     LIBCMT:syserr.obj
 0002:000095b8       ??_C@_0BD@LOHELEP@No?5child?5processes?$AA@ 004a25b8     LIBCMT:syserr.obj
 0002:000095cc       ??_C@_0BE@NFGDDCEF@Bad?5file?5descriptor?$AA@ 004a25cc     LIBCMT:syserr.obj
 0002:000095e0       ??_C@_0BC@HKPNECK@Exec?5format?5error?$AA@ 004a25e0     LIBCMT:syserr.obj
 0002:000095f4       ??_C@_0BC@MFFGCDFL@Arg?5list?5too?5long?$AA@ 004a25f4     LIBCMT:syserr.obj
 0002:00009608       ??_C@_0BK@DPKMCKJ@No?5such?5device?5or?5address?$AA@ 004a2608     LIBCMT:syserr.obj
 0002:00009624       ??_C@_0BD@KKNFOBBD@Input?1output?5error?$AA@ 004a2624     LIBCMT:syserr.obj
 0002:00009638       ??_C@_0BK@FJBOAFDK@Interrupted?5function?5call?$AA@ 004a2638     LIBCMT:syserr.obj
 0002:00009654       ??_C@_0BA@FKIAIBGA@No?5such?5process?$AA@ 004a2654     LIBCMT:syserr.obj
 0002:00009664       ??_C@_0BK@FMDHKPNF@No?5such?5file?5or?5directory?$AA@ 004a2664     LIBCMT:syserr.obj
 0002:00009680       ??_C@_0BI@BJFCGOHL@Operation?5not?5permitted?$AA@ 004a2680     LIBCMT:syserr.obj
 0002:00009698       ??_C@_08INEPGKHH@No?5error?$AA@ 004a2698     LIBCMT:syserr.obj
 0002:000096a4       ??_C@_04PNGHFIJN@?4com?$AA@ 004a26a4     LIBCMT:stat.obj
 0002:000096ac       ??_C@_04NEEFLLOK@?4bat?$AA@ 004a26ac     LIBCMT:stat.obj
 0002:000096b4       ??_C@_04CPCBDHLK@?4cmd?$AA@ 004a26b4     LIBCMT:stat.obj
 0002:000096bc       ??_C@_04JLMDILM@?4exe?$AA@ 004a26bc     LIBCMT:stat.obj
 0002:000096c8       __XcptActTab               004a26c8     LIBCMT:winxfltr.obj
 0002:00009758       __First_FPE_Indx           004a2758     LIBCMT:winxfltr.obj
 0002:0000975c       __Num_FPE                  004a275c     LIBCMT:winxfltr.obj
 0002:00009760       __XcptActTabSize           004a2760     LIBCMT:winxfltr.obj
 0002:00009764       __XcptActTabCount          004a2764     LIBCMT:winxfltr.obj
 0002:0000af98       __DEFAULT_CW_in_mem        004a3f98     LIBCMT:_common_.obj
 0002:0000af9a       __pi_by_2_to_61            004a3f9a     LIBCMT:_common_.obj
 0002:00010100       __infinity                 004a9100     LIBCMT:_87tran_.obj
 0002:0001010a       __minfinity                004a910a     LIBCMT:_87tran_.obj
 0002:00010114       __logemax                  004a9114     LIBCMT:_87tran_.obj
 0002:0001013a       __OP_EXPjmptab             004a913a     LIBCMT:_87tran_.obj
 0002:00010160       ___lookuptable_s           004a9160     LIBCMT:outputs.obj
 0002:000101c4       ??_C@_0BK@CFCOFLF@?5Complete?5Object?5Locator?8?$AA@ 004a91c4     LIBCMT:undname.obj
 0002:000101e0       ??_C@_0BN@MECKDCOJ@?5Class?5Hierarchy?5Descriptor?8?$AA@ 004a91e0     LIBCMT:undname.obj
 0002:00010200       ??_C@_0BD@LGICGFMM@?5Base?5Class?5Array?8?$AA@ 004a9200     LIBCMT:undname.obj
 0002:00010214       ??_C@_0BM@LDKODKLH@?5Base?5Class?5Descriptor?5at?5?$CI?$AA@ 004a9214     LIBCMT:undname.obj
 0002:00010230       ??_C@_0BC@DAFEJGAK@?5Type?5Descriptor?8?$AA@ 004a9230     LIBCMT:undname.obj
 0002:00010244       ??_C@_0BM@PMGGMLDN@?$GAlocal?5static?5thread?5guard?8?$AA@ 004a9244     LIBCMT:undname.obj
 0002:00010260       ??_C@_0CL@FGIJHLCE@?$GAmanaged?5vector?5copy?5constructor@ 004a9260     LIBCMT:undname.obj
 0002:0001028c       ??_C@_0CJ@GJELGAMM@?$GAvector?5vbase?5copy?5constructor?5i@ 004a928c     LIBCMT:undname.obj
 0002:000102b8       ??_C@_0CD@CGAJBKEJ@?$GAvector?5copy?5constructor?5iterato@ 004a92b8     LIBCMT:undname.obj
 0002:000102dc       ??_C@_0CB@PDBIFEP@?$GAdynamic?5atexit?5destructor?5for?5?8@ 004a92dc     LIBCMT:undname.obj
 0002:00010300       ??_C@_0BL@CLIPGLGB@?$GAdynamic?5initializer?5for?5?8?$AA@ 004a9300     LIBCMT:undname.obj
 0002:0001031c       ??_C@_0CM@FCBBDIGB@?$GAeh?5vector?5vbase?5copy?5constructo@ 004a931c     LIBCMT:undname.obj
 0002:00010348       ??_C@_0CG@HLDDJMAG@?$GAeh?5vector?5copy?5constructor?5iter@ 004a9348     LIBCMT:undname.obj
 0002:00010370       ??_C@_0CF@IMGKMJNO@?$GAmanaged?5vector?5destructor?5itera@ 004a9370     LIBCMT:undname.obj
 0002:00010398       ??_C@_0CG@CFDHKGGD@?$GAmanaged?5vector?5constructor?5iter@ 004a9398     LIBCMT:undname.obj
 0002:000103c0       ??_C@_0BN@CKNJLHMB@?$GAplacement?5delete?$FL?$FN?5closure?8?$AA@ 004a93c0     LIBCMT:undname.obj
 0002:000103e0       ??_C@_0BL@CNOONJFP@?$GAplacement?5delete?5closure?8?$AA@ 004a93e0     LIBCMT:undname.obj
 0002:000103fc       ??_C@_0P@HJKNJFNN@?$GAomni?5callsig?8?$AA@ 004a93fc     LIBCMT:undname.obj
 0002:0001040c       ??_C@_09LBNFPBCA@?5delete?$FL?$FN?$AA@ 004a940c     LIBCMT:undname.obj
 0002:00010418       ??_C@_06FHBGPFGH@?5new?$FL?$FN?$AA@ 004a9418     LIBCMT:undname.obj
 0002:00010420       ??_C@_0CE@IIHCMGGL@?$GAlocal?5vftable?5constructor?5closu@ 004a9420     LIBCMT:undname.obj
 0002:00010444       ??_C@_0BA@KKLDJDLB@?$GAlocal?5vftable?8?$AA@ 004a9444     LIBCMT:undname.obj
 0002:00010454       ??_C@_05KHLCHHI@?$GARTTI?$AA@ 004a9454     LIBCMT:undname.obj
 0002:0001045c       ??_C@_03KLGMFNMG@?$GAEH?$AA@ 004a945c     LIBCMT:undname.obj
 0002:00010460       ??_C@_0BA@KBCDOMBN@?$GAudt?5returning?8?$AA@ 004a9460     LIBCMT:undname.obj
 0002:00010470       ??_C@_0BL@LLKPOHJI@?$GAcopy?5constructor?5closure?8?$AA@ 004a9470     LIBCMT:undname.obj
 0002:0001048c       ??_C@_0CH@OOJPLCPH@?$GAeh?5vector?5vbase?5constructor?5ite@ 004a948c     LIBCMT:undname.obj
 0002:000104b4       ??_C@_0CA@GCEOPDGL@?$GAeh?5vector?5destructor?5iterator?8?$AA@ 004a94b4     LIBCMT:undname.obj
 0002:000104d4       ??_C@_0CB@JONCMFFK@?$GAeh?5vector?5constructor?5iterator?8@ 004a94d4     LIBCMT:undname.obj
 0002:000104f8       ??_C@_0BL@NILFHHPC@?$GAvirtual?5displacement?5map?8?$AA@ 004a94f8     LIBCMT:undname.obj
 0002:00010514       ??_C@_0CE@IKBNEHA@?$GAvector?5vbase?5constructor?5iterat@ 004a9514     LIBCMT:undname.obj
 0002:00010538       ??_C@_0BN@LFPFMEDL@?$GAvector?5destructor?5iterator?8?$AA@ 004a9538     LIBCMT:undname.obj
 0002:00010558       ??_C@_0BO@PFGOCPJJ@?$GAvector?5constructor?5iterator?8?$AA@ 004a9558     LIBCMT:undname.obj
 0002:00010578       ??_C@_0BN@IMDCHIKM@?$GAscalar?5deleting?5destructor?8?$AA@ 004a9578     LIBCMT:undname.obj
 0002:00010598       ??_C@_0BO@OBMKPJIG@?$GAdefault?5constructor?5closure?8?$AA@ 004a9598     LIBCMT:undname.obj
 0002:000105b8       ??_C@_0BN@DEGPLNFK@?$GAvector?5deleting?5destructor?8?$AA@ 004a95b8     LIBCMT:undname.obj
 0002:000105d8       ??_C@_0BD@JDLKDPAB@?$GAvbase?5destructor?8?$AA@ 004a95d8     LIBCMT:undname.obj
 0002:000105ec       ??_C@_08OBABFOLI@?$GAstring?8?$AA@ 004a95ec     LIBCMT:undname.obj
 0002:000105f8       ??_C@_0BF@KDPPACIK@?$GAlocal?5static?5guard?8?$AA@ 004a95f8     LIBCMT:undname.obj
 0002:00010610       ??_C@_08LLFFHHDJ@?$GAtypeof?8?$AA@ 004a9610     LIBCMT:undname.obj
 0002:0001061c       ??_C@_07FEEIOKP@?$GAvcall?8?$AA@ 004a961c     LIBCMT:undname.obj
 0002:00010624       ??_C@_09BLBHBJP@?$GAvbtable?8?$AA@ 004a9624     LIBCMT:undname.obj
 0002:00010630       ??_C@_09IFPLHPGF@?$GAvftable?8?$AA@ 004a9630     LIBCMT:undname.obj
 0002:0001063c       ??_C@_02MHEGNOJ@?$FO?$DN?$AA@ 004a963c     LIBCMT:undname.obj
 0002:00010640       ??_C@_02DHLNPPGH@?$HM?$DN?$AA@ 004a9640     LIBCMT:undname.obj
 0002:00010644       ??_C@_02FGJGFEAB@?$CG?$DN?$AA@ 004a9644     LIBCMT:undname.obj
 0002:00010648       ??_C@_03CDNPDDLA@?$DM?$DM?$DN?$AA@ 004a9648     LIBCMT:undname.obj
 0002:0001064c       ??_C@_03IKFCCPFF@?$DO?$DO?$DN?$AA@ 004a964c     LIBCMT:undname.obj
 0002:00010650       ??_C@_02FENAOKFI@?$CF?$DN?$AA@ 004a9650     LIBCMT:undname.obj
 0002:00010654       ??_C@_02FJEHGPIO@?1?$DN?$AA@ 004a9654     LIBCMT:undname.obj
 0002:00010658       ??_C@_02FKMDLLOA@?9?$DN?$AA@ 004a9658     LIBCMT:undname.obj
 0002:0001065c       ??_C@_02FOEOMHFC@?$CL?$DN?$AA@ 004a965c     LIBCMT:undname.obj
 0002:00010660       ??_C@_02FPIMKNGF@?$CK?$DN?$AA@ 004a9660     LIBCMT:undname.obj
 0002:00010664       ??_C@_02NONPIBCD@?$HM?$HM?$AA@ 004a9664     LIBCMT:undname.obj
 0002:00010668       ??_C@_02PPKAJPJL@?$CG?$CG?$AA@ 004a9668     LIBCMT:undname.obj
 0002:0001066c       ??_C@_01DNKMNLPK@?$HM?$AA@ 004a966c     LIBCMT:undname.obj
 0002:00010670       ??_C@_01JKBOJNNK@?$FO?$AA@ 004a9670     LIBCMT:undname.obj
 0002:00010674       ??_C@_01PJKLJHI@?$HO?$AA@  004a9674     LIBCMT:undname.obj
 0002:00010678       ??_C@_02HCKGKOFO@?$CI?$CJ?$AA@ 004a9678     LIBCMT:undname.obj
 0002:0001067c       ??_C@_01IHBHIGKO@?0?$AA@   004a967c     LIBCMT:undname.obj
 0002:00010680       ??_C@_02EEKDKGMJ@?$DO?$DN?$AA@ 004a9680     LIBCMT:undname.obj
 0002:00010684       ??_C@_01PPODPGHN@?$DO?$AA@ 004a9684     LIBCMT:undname.obj
 0002:00010688       ??_C@_02EHCHHCKH@?$DM?$DN?$AA@ 004a9688     LIBCMT:undname.obj
 0002:0001068c       ??_C@_01MNNFJEPP@?$DM?$AA@ 004a968c     LIBCMT:undname.obj
 0002:00010690       ??_C@_01FGNFDNOH@?$CF?$AA@ 004a9690     LIBCMT:undname.obj
 0002:00010694       ??_C@_01KMDKNFGN@?1?$AA@   004a9694     LIBCMT:undname.obj
 0002:00010698       ??_C@_03MNHNFDLC@?9?$DO?$CK?$AA@ 004a9698     LIBCMT:undname.obj
 0002:0001069c       ??_C@_01HNPIGOCE@?$CG?$AA@ 004a969c     LIBCMT:undname.obj
 0002:000106a0       ??_C@_01MIFGBAGJ@?$CL?$AA@ 004a96a0     LIBCMT:undname.obj
 0002:000106a4       ??_C@_02BAABKJLB@?9?9?$AA@ 004a96a4     LIBCMT:undname.obj
 0002:000106a8       ??_C@_02ECNGHCIF@?$CL?$CL?$AA@ 004a96a8     LIBCMT:undname.obj
 0002:000106ac       ??_C@_02HBOOOICD@?9?$DO?$AA@ 004a96ac     LIBCMT:undname.obj
 0002:000106b0       ??_C@_08LHJFAFGD@operator?$AA@ 004a96b0     LIBCMT:undname.obj
 0002:000106bc       ??_C@_02GPECMEKF@?$FL?$FN?$AA@ 004a96bc     LIBCMT:undname.obj
 0002:000106c0       ??_C@_02FDNJECIE@?$CB?$DN?$AA@ 004a96c0     LIBCMT:undname.obj
 0002:000106c4       ??_C@_02EGOFBIJA@?$DN?$DN?$AA@ 004a96c4     LIBCMT:undname.obj
 0002:000106c8       ??_C@_01DCLJPIOD@?$CB?$AA@ 004a96c8     LIBCMT:undname.obj
 0002:000106cc       ??_C@_02FODMEDOG@?$DM?$DM?$AA@ 004a96cc     LIBCMT:undname.obj
 0002:000106d0       ??_C@_02GPIOPFAK@?$DO?$DO?$AA@ 004a96d0     LIBCMT:undname.obj
 0002:000106d4       ??_C@_07FPCDHGMM@?5delete?$AA@ 004a96d4     LIBCMT:undname.obj
 0002:000106dc       ??_C@_04NIHEBCM@?5new?$AA@ 004a96dc     LIBCMT:undname.obj
 0002:000106e4       ??_C@_0M@GFIIJFMG@__unaligned?$AA@ 004a96e4     LIBCMT:undname.obj
 0002:000106f0       ??_C@_0L@PILCLIHE@__restrict?$AA@ 004a96f0     LIBCMT:undname.obj
 0002:000106fc       ??_C@_07JOMMBBKO@__ptr64?$AA@ 004a96fc     LIBCMT:undname.obj
 0002:00010704       ??_C@_06GHPCKEAG@__eabi?$AA@ 004a9704     LIBCMT:undname.obj
 0002:0001070c       ??_C@_09HIJEGCPM@__clrcall?$AA@ 004a970c     LIBCMT:undname.obj
 0002:00010718       ??_C@_0L@JMKHOMEK@__fastcall?$AA@ 004a9718     LIBCMT:undname.obj
 0002:00010724       ??_C@_0L@NPHFGOKO@__thiscall?$AA@ 004a9724     LIBCMT:undname.obj
 0002:00010730       ??_C@_09IFJBGAPI@__stdcall?$AA@ 004a9730     LIBCMT:undname.obj
 0002:0001073c       ??_C@_08GHMPAG@__pascal?$AA@ 004a973c     LIBCMT:undname.obj
 0002:00010748       ??_C@_07KOLFKCDI@__cdecl?$AA@ 004a9748     LIBCMT:undname.obj
 0002:00010750       ??_C@_08EHJDFFNH@__based?$CI?$AA@ 004a9750     LIBCMT:undname.obj
 0002:000108e4       ??_C@_0BI@DFKBFLJE@GetProcessWindowStation?$AA@ 004a98e4     LIBCMT:crtmboxw.obj
 0002:000108fc       ??_C@_0BK@DEKFELLI@GetUserObjectInformationW?$AA@ 004a98fc     LIBCMT:crtmboxw.obj
 0002:00010918       ??_C@_0BD@HHGDFDBJ@GetLastActivePopup?$AA@ 004a9918     LIBCMT:crtmboxw.obj
 0002:0001092c       ??_C@_0BA@HNOPNCHB@GetActiveWindow?$AA@ 004a992c     LIBCMT:crtmboxw.obj
 0002:0001093c       ??_C@_0M@DLDCCGNP@MessageBoxW?$AA@ 004a993c     LIBCMT:crtmboxw.obj
 0002:00010948       ??_C@_1BG@GOEBHBDC@?$AAU?$AAS?$AAE?$AAR?$AA3?$AA2?$AA?4?$AAD?$AAL?$AAL?$AA?$AA@ 004a9948     LIBCMT:crtmboxw.obj
 0002:00010960       ___newctype                004a9960     LIBCMT:ctype.obj
 0002:00010c60       __wctype                   004a9c60     LIBCMT:ctype.obj
 0002:00010e68       ___newclmap                004a9e68     LIBCMT:ctype.obj
 0002:00010fe8       ___newcumap                004a9fe8     LIBCMT:ctype.obj
 0002:00011168       ??_C@_0L@KDOEJCKC@_nextafter?$AA@ 004aa168     LIBCMT:_fpexcept_.obj
 0002:00011174       ??_C@_05JGDBENOH@_logb?$AA@ 004aa174     LIBCMT:_fpexcept_.obj
 0002:0001117c       ??_C@_03ONILCKOB@_yn?$AA@  004aa17c     LIBCMT:_fpexcept_.obj
 0002:00011180       ??_C@_03NAKIGLHK@_y1?$AA@  004aa180     LIBCMT:_fpexcept_.obj
 0002:00011184       ??_C@_03MJLDFKDL@_y0?$AA@  004aa184     LIBCMT:_fpexcept_.obj
 0002:00011188       ??_C@_05GKKHEGJL@frexp?$AA@ 004aa188     LIBCMT:_fpexcept_.obj
 0002:00011190       ??_C@_04KEPJIHGP@fmod?$AA@ 004aa190     LIBCMT:_fpexcept_.obj
 0002:00011198       ??_C@_06MEIMCGCF@_hypot?$AA@ 004aa198     LIBCMT:_fpexcept_.obj
 0002:000111a0       ??_C@_05KBKMEMPO@_cabs?$AA@ 004aa1a0     LIBCMT:_fpexcept_.obj
 0002:000111a8       ??_C@_05CEJMAHNP@ldexp?$AA@ 004aa1a8     LIBCMT:_fpexcept_.obj
 0002:000111b0       ??_C@_04ODHECPBC@fabs?$AA@ 004aa1b0     LIBCMT:_fpexcept_.obj
 0002:000111b8       ??_C@_04EIAKFFMI@sqrt?$AA@ 004aa1b8     LIBCMT:_fpexcept_.obj
 0002:000111c0       ??_C@_05KNGEOGJB@atan2?$AA@ 004aa1c0     LIBCMT:_fpexcept_.obj
 0002:000111c8       ??_C@_04FJHINJAO@tanh?$AA@ 004aa1c8     LIBCMT:_fpexcept_.obj
 0002:000111d0       ??_C@_04HPJJNFIM@cosh?$AA@ 004aa1d0     LIBCMT:_fpexcept_.obj
 0002:000111d8       ??_C@_04COOMCNPB@sinh?$AA@ 004aa1d8     LIBCMT:_fpexcept_.obj
 0002:000111e0       ??_C@_0O@FMJNFNKE@united?9states?$AA@ 004aa1e0     LIBCMT:getqloc.obj
 0002:000111f0       ??_C@_0P@NDHFFKCA@united?9kingdom?$AA@ 004aa1f0     LIBCMT:getqloc.obj
 0002:00011200       ??_C@_0BC@HHDADLGF@trinidad?5?$CG?5tobago?$AA@ 004aa200     LIBCMT:getqloc.obj
 0002:00011214       ??_C@_0M@IOAEBDAC@south?9korea?$AA@ 004aa214     LIBCMT:getqloc.obj
 0002:00011220       ??_C@_0N@FIELFKIJ@south?9africa?$AA@ 004aa220     LIBCMT:getqloc.obj
 0002:00011230       ??_C@_0M@OPNDHCMC@south?5korea?$AA@ 004aa230     LIBCMT:getqloc.obj
 0002:0001123c       ??_C@_0N@MDEOEPFI@south?5africa?$AA@ 004aa23c     LIBCMT:getqloc.obj
 0002:0001124c       ??_C@_06FKAPCJLB@slovak?$AA@ 004aa24c     LIBCMT:getqloc.obj
 0002:00011254       ??_C@_0M@EFJANOAL@puerto?9rico?$AA@ 004aa254     LIBCMT:getqloc.obj
 0002:00011260       ??_C@_08PGOJKDAI@pr?9china?$AA@ 004aa260     LIBCMT:getqloc.obj
 0002:0001126c       ??_C@_08JHDOMCMI@pr?5china?$AA@ 004aa26c     LIBCMT:getqloc.obj
 0002:00011278       ??_C@_02JHCHFBLL@nz?$AA@   004aa278     LIBCMT:getqloc.obj
 0002:0001127c       ??_C@_0M@LINHDHKP@new?9zealand?$AA@ 004aa27c     LIBCMT:getqloc.obj
 0002:00011288       ??_C@_09IIIPPBDB@hong?9kong?$AA@ 004aa288     LIBCMT:getqloc.obj
 0002:00011294       ??_C@_07HJLCKBG@holland?$AA@ 004aa294     LIBCMT:getqloc.obj
 0002:0001129c       ??_C@_0O@LEHGMHAG@great?5britain?$AA@ 004aa29c     LIBCMT:getqloc.obj
 0002:000112ac       ??_C@_07FACOMELA@england?$AA@ 004aa2ac     LIBCMT:getqloc.obj
 0002:000112b4       ??_C@_05JIHCEICB@czech?$AA@ 004aa2b4     LIBCMT:getqloc.obj
 0002:000112bc       ??_C@_05BBJOBLGB@china?$AA@ 004aa2bc     LIBCMT:getqloc.obj
 0002:000112c4       ??_C@_07GPKPHICP@britain?$AA@ 004aa2c4     LIBCMT:getqloc.obj
 0002:000112cc       ??_C@_07MHIPBHMG@america?$AA@ 004aa2cc     LIBCMT:getqloc.obj
 0002:000112d4       ??_C@_03KIALPMKC@usa?$AA@  004aa2d4     LIBCMT:getqloc.obj
 0002:000112d8       ??_C@_02FGJGKGGD@us?$AA@   004aa2d8     LIBCMT:getqloc.obj
 0002:000112dc       ??_C@_02NEINDODK@uk?$AA@   004aa2dc     LIBCMT:getqloc.obj
 0002:000112e0       ??_C@_05JMPCFJFJ@swiss?$AA@ 004aa2e0     LIBCMT:getqloc.obj
 0002:000112e8       ??_C@_0BA@HLOCPIOD@swedish?9finland?$AA@ 004aa2e8     LIBCMT:getqloc.obj
 0002:000112f8       ??_C@_0BC@PKCNIABK@spanish?9venezuela?$AA@ 004aa2f8     LIBCMT:getqloc.obj
 0002:0001130c       ??_C@_0BA@GBHHMIJI@spanish?9uruguay?$AA@ 004aa30c     LIBCMT:getqloc.obj
 0002:0001131c       ??_C@_0BE@BHDOHPMC@spanish?9puerto?5rico?$AA@ 004aa31c     LIBCMT:getqloc.obj
 0002:00011330       ??_C@_0N@KMOIDGGN@spanish?9peru?$AA@ 004aa330     LIBCMT:getqloc.obj
 0002:00011340       ??_C@_0BB@HMHLPGPH@spanish?9paraguay?$AA@ 004aa340     LIBCMT:getqloc.obj
 0002:00011354       ??_C@_0P@MCPKNGFD@spanish?9panama?$AA@ 004aa354     LIBCMT:getqloc.obj
 0002:00011364       ??_C@_0BC@IHOHGAIL@spanish?9nicaragua?$AA@ 004aa364     LIBCMT:getqloc.obj
 0002:00011378       ??_C@_0P@KLMJDNFJ@spanish?9modern?$AA@ 004aa378     LIBCMT:getqloc.obj
 0002:00011388       ??_C@_0BA@BPAPGBCM@spanish?9mexican?$AA@ 004aa388     LIBCMT:getqloc.obj
 0002:00011398       ??_C@_0BB@PDECHHHE@spanish?9honduras?$AA@ 004aa398     LIBCMT:getqloc.obj
 0002:000113ac       ??_C@_0BC@KLHKFGDB@spanish?9guatemala?$AA@ 004aa3ac     LIBCMT:getqloc.obj
 0002:000113c0       ??_C@_0BE@MFOOKJAI@spanish?9el?5salvador?$AA@ 004aa3c0     LIBCMT:getqloc.obj
 0002:000113d4       ??_C@_0BA@FCOKFPFC@spanish?9ecuador?$AA@ 004aa3d4     LIBCMT:getqloc.obj
 0002:000113e4       ??_C@_0BL@PLMGIMOO@spanish?9dominican?5republic?$AA@ 004aa3e4     LIBCMT:getqloc.obj
 0002:00011400       ??_C@_0BD@HLGDNMHB@spanish?9costa?5rica?$AA@ 004aa400     LIBCMT:getqloc.obj
 0002:00011414       ??_C@_0BB@PKCBKCPE@spanish?9colombia?$AA@ 004aa414     LIBCMT:getqloc.obj
 0002:00011428       ??_C@_0O@MCBIJGNE@spanish?9chile?$AA@ 004aa428     LIBCMT:getqloc.obj
 0002:00011438       ??_C@_0BA@BEFEIGJJ@spanish?9bolivia?$AA@ 004aa438     LIBCMT:getqloc.obj
 0002:00011448       ??_C@_0BC@EMECMPD@spanish?9argentina?$AA@ 004aa448     LIBCMT:getqloc.obj
 0002:0001145c       ??_C@_0BF@EALFLENP@portuguese?9brazilian?$AA@ 004aa45c     LIBCMT:getqloc.obj
 0002:00011474       ??_C@_0BC@HBLEBLNN@norwegian?9nynorsk?$AA@ 004aa474     LIBCMT:getqloc.obj
 0002:00011488       ??_C@_0BB@HMACDDCK@norwegian?9bokmal?$AA@ 004aa488     LIBCMT:getqloc.obj
 0002:0001149c       ??_C@_09BAFFPPHE@norwegian?$AA@ 004aa49c     LIBCMT:getqloc.obj
 0002:000114a8       ??_C@_0O@EAJFJDFG@italian?9swiss?$AA@ 004aa4a8     LIBCMT:getqloc.obj
 0002:000114b8       ??_C@_0O@CNOMPGD@irish?9english?$AA@ 004aa4b8     LIBCMT:getqloc.obj
 0002:000114c8       ??_C@_0N@EDHBGCKG@german?9swiss?$AA@ 004aa4c8     LIBCMT:getqloc.obj
 0002:000114d8       ??_C@_0BC@JACMHNBP@german?9luxembourg?$AA@ 004aa4d8     LIBCMT:getqloc.obj
 0002:000114ec       ??_C@_0BE@HBGMGFEG@german?9lichtenstein?$AA@ 004aa4ec     LIBCMT:getqloc.obj
 0002:00011500       ??_C@_0BA@HKKBIBKL@german?9austrian?$AA@ 004aa500     LIBCMT:getqloc.obj
 0002:00011510       ??_C@_0N@GCAEPEBK@french?9swiss?$AA@ 004aa510     LIBCMT:getqloc.obj
 0002:00011520       ??_C@_0BC@DJFJJCK@french?9luxembourg?$AA@ 004aa520     LIBCMT:getqloc.obj
 0002:00011534       ??_C@_0BA@NNCEDFIC@french?9canadian?$AA@ 004aa534     LIBCMT:getqloc.obj
 0002:00011544       ??_C@_0P@CMPOCLM@french?9belgian?$AA@ 004aa544     LIBCMT:getqloc.obj
 0002:00011554       ??_C@_0M@GHHDJOK@english?9usa?$AA@ 004aa554     LIBCMT:getqloc.obj
 0002:00011560       ??_C@_0L@PLDJKEIL@english?9us?$AA@ 004aa560     LIBCMT:getqloc.obj
 0002:0001156c       ??_C@_0L@HJCCDMNC@english?9uk?$AA@ 004aa56c     LIBCMT:getqloc.obj
 0002:00011578       ??_C@_0BK@CKLIAGJB@english?9trinidad?5y?5tobago?$AA@ 004aa578     LIBCMT:getqloc.obj
 0002:00011594       ??_C@_0BF@JMJMGNNF@english?9south?5africa?$AA@ 004aa594     LIBCMT:getqloc.obj
 0002:000115ac       ??_C@_0L@DKIIFDFD@english?9nz?$AA@ 004aa5ac     LIBCMT:getqloc.obj
 0002:000115b8       ??_C@_0BA@ONHGJCLH@english?9jamaica?$AA@ 004aa5b8     LIBCMT:getqloc.obj
 0002:000115c8       ??_C@_0M@HJBGHOPO@english?9ire?$AA@ 004aa5c8     LIBCMT:getqloc.obj
 0002:000115d4       ??_C@_0BC@LFEKMIFB@english?9caribbean?$AA@ 004aa5d4     LIBCMT:getqloc.obj
 0002:000115e8       ??_C@_0M@OLDPFKHI@english?9can?$AA@ 004aa5e8     LIBCMT:getqloc.obj
 0002:000115f4       ??_C@_0P@OMDEHBMP@english?9belize?$AA@ 004aa5f4     LIBCMT:getqloc.obj
 0002:00011604       ??_C@_0M@KFHFPFED@english?9aus?$AA@ 004aa604     LIBCMT:getqloc.obj
 0002:00011610       ??_C@_0BB@MNMBKDFE@english?9american?$AA@ 004aa610     LIBCMT:getqloc.obj
 0002:00011624       ??_C@_0O@KIDLNNBA@dutch?9belgian?$AA@ 004aa624     LIBCMT:getqloc.obj
 0002:00011634       ??_C@_0BE@JBKABBMH@chinese?9traditional?$AA@ 004aa634     LIBCMT:getqloc.obj
 0002:00011648       ??_C@_0BC@MJJMPKCG@chinese?9singapore?$AA@ 004aa648     LIBCMT:getqloc.obj
 0002:0001165c       ??_C@_0BD@FDKADDCP@chinese?9simplified?$AA@ 004aa65c     LIBCMT:getqloc.obj
 0002:00011670       ??_C@_0BB@DBEFDDME@chinese?9hongkong?$AA@ 004aa670     LIBCMT:getqloc.obj
 0002:00011684       ??_C@_07DHNMFMCI@chinese?$AA@ 004aa684     LIBCMT:getqloc.obj
 0002:0001168c       ??_C@_03FNDDCHI@chi?$AA@   004aa68c     LIBCMT:getqloc.obj
 0002:00011690       ??_C@_03BMMIADDJ@chh?$AA@  004aa690     LIBCMT:getqloc.obj
 0002:00011694       ??_C@_08OAIPJDGI@canadian?$AA@ 004aa694     LIBCMT:getqloc.obj
 0002:000116a0       ??_C@_07HBPMNPNJ@belgian?$AA@ 004aa6a0     LIBCMT:getqloc.obj
 0002:000116a8       ??_C@_0L@OEKOPBEL@australian?$AA@ 004aa6a8     LIBCMT:getqloc.obj
 0002:000116b4       ??_C@_0BB@MEIMBEDG@american?9english?$AA@ 004aa6b4     LIBCMT:getqloc.obj
 0002:000116c8       ??_C@_0BB@DFMDPDGB@american?5english?$AA@ 004aa6c8     LIBCMT:getqloc.obj
 0002:000116dc       ??_C@_08IJLOKOLL@american?$AA@ 004aa6dc     LIBCMT:getqloc.obj
 0002:000116e8       ___rg_language             004aa6e8     LIBCMT:getqloc.obj
 0002:000118f0       ___rg_country              004aa8f0     LIBCMT:getqloc.obj
 0002:000119a8       ___rglangidNotDefault      004aa9a8     LIBCMT:getqloc.obj
 0002:000119bc       ??_C@_03NFKLAGEF@OCP?$AA@  004aa9bc     LIBCMT:getqloc.obj
 0002:000119c0       ??_C@_03DFHEHBHG@ACP?$AA@  004aa9c0     LIBCMT:getqloc.obj
 0002:000119c4       ??_C@_0BC@NFIEMBLL@Norwegian?9Nynorsk?$AA@ 004aa9c4     LIBCMT:getqloc.obj
 0002:000119d8       ??_C@_02CLFPBFFP@TZ?$AA@   004aa9d8     LIBCMT:tzset.obj
 0002:000119dc       ___dnames                  004aa9dc     LIBCMT:timeset.obj
 0002:000119f4       ___mnames                  004aa9f4     LIBCMT:timeset.obj
 0002:00011a1c       ??_C@_0L@NKOGAPMJ@SystemRoot?$AA@ 004aaa1c     LIBCMT:cenvarg.obj
 0002:00011a28       ??_C@_06IMKFLFPG@1?$CDQNAN?$AA@ 004aaa28     LIBCMT:_x10fout_.obj
 0002:00011a30       ??_C@_05DNEBIAHO@1?$CDINF?$AA@ 004aaa30     LIBCMT:_x10fout_.obj
 0002:00011a38       ??_C@_05PHHOCPM@1?$CDIND?$AA@ 004aaa38     LIBCMT:_x10fout_.obj
 0002:00011a40       ??_C@_06PGGFOGJG@1?$CDSNAN?$AA@ 004aaa40     LIBCMT:_x10fout_.obj
 0002:00011a48       ??_C@_1BA@BALFACEM@?$AAC?$AAO?$AAN?$AAO?$AAU?$AAT?$AA$?$AA?$AA@ 004aaa48     LIBCMT:initcon.obj
 0002:00011a5c       ??_7logic_error@std@@6B@   004aaa5c     libcpmt:xthrow.obj
 0002:00011a68       ??_7length_error@std@@6B@  004aaa68     libcpmt:xthrow.obj
 0002:00011a74       ??_7out_of_range@std@@6B@  004aaa74     libcpmt:xthrow.obj
 0002:00011a80       ?_BADOFF@std@@3_JB         004aaa80     libcpmt:ios.obj
 0002:00011a8c       ??_7_Locimp@locale@std@@6B@ 004aaa8c     libcpmt:locale0.obj
 0002:00011a94       ??_7error_category@std@@6B@ 004aaa94     libcpmt:syserror.obj
 0002:00011aac       ??_C@_07DCLBNMLN@generic?$AA@ 004aaaac     libcpmt:syserror.obj
 0002:00011ab8       ??_7_Generic_error_category@std@@6B@ 004aaab8     libcpmt:syserror.obj
 0002:00011ad0       ??_C@_08LLGCOLLL@iostream?$AA@ 004aaad0     libcpmt:syserror.obj
 0002:00011ae0       ??_7_Iostream_error_category@std@@6B@ 004aaae0     libcpmt:syserror.obj
 0002:00011af8       ??_C@_06FHFOAHML@system?$AA@ 004aaaf8     libcpmt:syserror.obj
 0002:00011b04       ??_7_System_error_category@std@@6B@ 004aab04     libcpmt:syserror.obj
 0002:00011b1c       ??_C@_0BG@PADBLCHM@iostream?5stream?5error?$AA@ 004aab1c     libcpmt:syserror.obj
 0002:00011b70       ??_C@_02BOGAIONP@ab?$AA@   004aab70     libcpmt:fiopen.obj
 0002:00011b74       ??_C@_02CBLLGHLK@r?$CL?$AA@ 004aab74     libcpmt:fiopen.obj
 0002:00011b78       ??_C@_02CHHAKFFB@w?$CL?$AA@ 004aab78     libcpmt:fiopen.obj
 0002:00011b7c       ??_C@_02DPNLHKJD@a?$CL?$AA@ 004aab7c     libcpmt:fiopen.obj
 0002:00011b80       ??_C@_03HMFOOINA@r?$CLb?$AA@ 004aab80     libcpmt:fiopen.obj
 0002:00011b84       ??_C@_03ELIABIOC@w?$CLb?$AA@ 004aab84     libcpmt:fiopen.obj
 0002:00011b88       ??_C@_03DOPCBAKB@a?$CLb?$AA@ 004aab88     libcpmt:fiopen.obj
 0002:00011b8c       ?valid@?1???$_Xfiopen@D@std@@YAPAU_iobuf@@PBDHH@Z@4QBHB 004aab8c     libcpmt:fiopen.obj
 0002:00011bc8       ??_C@_05OIKDKKFM@ATI2N?$AA@ 004aabc8     bitmap:imageformat.obj
 0002:00011bd0       ??_C@_05OKOFBEAF@ATI1N?$AA@ 004aabd0     bitmap:imageformat.obj
 0002:00011bd8       ??_C@_07CFELPLPD@NV_NULL?$AA@ 004aabd8     bitmap:imageformat.obj
 0002:00011be0       ??_C@_09JCCMAMGI@ATI_DST24?$AA@ 004aabe0     bitmap:imageformat.obj
 0002:00011bec       ??_C@_09KCFMNALD@ATI_DST16?$AA@ 004aabec     bitmap:imageformat.obj
 0002:00011bf8       ??_C@_07FDMLLIPO@NV_RAWZ?$AA@ 004aabf8     bitmap:imageformat.obj
 0002:00011c00       ??_C@_07BONOLAGC@NV_INTZ?$AA@ 004aac00     bitmap:imageformat.obj
 0002:00011c08       ??_C@_08HKKCPHEG@NV_DST24?$AA@ 004aac08     bitmap:imageformat.obj
 0002:00011c14       ??_C@_08EKNCCLJN@NV_DST16?$AA@ 004aac14     bitmap:imageformat.obj
 0002:00011c20       ??_C@_0BL@OLOJPJLN@IMAGE_FORMAT_RGBA32323232F?$AA@ 004aac20     bitmap:imageformat.obj
 0002:00011c3c       ??_C@_0BI@FLDBGJMJ@IMAGE_FORMAT_RGB323232F?$AA@ 004aac3c     bitmap:imageformat.obj
 0002:00011c54       ??_C@_0BC@EJLIBMHN@IMAGE_FORMAT_R32F?$AA@ 004aac54     bitmap:imageformat.obj
 0002:00011c68       ??_C@_0BG@EPLNNPIA@IMAGE_FORMAT_UVLX8888?$AA@ 004aac68     bitmap:imageformat.obj
 0002:00011c80       ??_C@_0N@GBJBEFCM@RGBA16161616?$AA@ 004aac80     bitmap:imageformat.obj
 0002:00011c90       ??_C@_0O@JEJKBFCF@RGBA16161616F?$AA@ 004aac90     bitmap:imageformat.obj
 0002:00011ca0       ??_C@_08KPDDCJI@UVWQ8888?$AA@ 004aaca0     bitmap:imageformat.obj
 0002:00011cac       ??_C@_04BKKPBAPE@UV88?$AA@ 004aacac     bitmap:imageformat.obj
 0002:00011cb4       ??_C@_08PAENDFNP@BGRA5551?$AA@ 004aacb4     bitmap:imageformat.obj
 0002:00011cc0       ??_C@_0BB@BFEFPFPF@DXT1_ONEBITALPHA?$AA@ 004aacc0     bitmap:imageformat.obj
 0002:00011cd4       ??_C@_08JCEOFHI@BGRA4444?$AA@ 004aacd4     bitmap:imageformat.obj
 0002:00011ce0       ??_C@_08NEJEGGIM@BGRX5551?$AA@ 004aace0     bitmap:imageformat.obj
 0002:00011cec       ??_C@_06KEKLLBKJ@BGR565?$AA@ 004aacec     bitmap:imageformat.obj
 0002:00011cf4       ??_C@_08HHEFCPK@BGRX8888?$AA@ 004aacf4     bitmap:imageformat.obj
 0002:00011d00       ??_C@_04FDJDJFPM@DXT5?$AA@ 004aad00     bitmap:imageformat.obj
 0002:00011d08       ??_C@_04FMJDCHK@DXT3?$AA@  004aad08     bitmap:imageformat.obj
 0002:00011d10       ??_C@_04DHPPFAPI@DXT1?$AA@ 004aad10     bitmap:imageformat.obj
 0002:00011d18       ??_C@_08CDKNABKJ@BGRA8888?$AA@ 004aad18     bitmap:imageformat.obj
 0002:00011d24       ??_C@_08JNAJMDOE@ARGB8888?$AA@ 004aad24     bitmap:imageformat.obj
 0002:00011d30       ??_C@_0BC@KDPNAOFO@BGR888_BLUESCREEN?$AA@ 004aad30     bitmap:imageformat.obj
 0002:00011d44       ??_C@_0BC@GLHJGMNI@RGB888_BLUESCREEN?$AA@ 004aad44     bitmap:imageformat.obj
 0002:00011d58       ??_C@_02GGHJHNOB@A8?$AA@   004aad58     bitmap:imageformat.obj
 0002:00011d5c       ??_C@_02HLJNLEKG@P8?$AA@   004aad5c     bitmap:imageformat.obj
 0002:00011d60       ??_C@_04HCHBAFFB@IA88?$AA@ 004aad60     bitmap:imageformat.obj
 0002:00011d68       ??_C@_02GIGKCMFJ@I8?$AA@   004aad68     bitmap:imageformat.obj
 0002:00011d6c       ??_C@_06KDJFLKOF@RGB565?$AA@ 004aad6c     bitmap:imageformat.obj
 0002:00011d74       ??_C@_06OJPBDKDD@BGR888?$AA@ 004aad74     bitmap:imageformat.obj
 0002:00011d7c       ??_C@_06OOMPDBHP@RGB888?$AA@ 004aad7c     bitmap:imageformat.obj
 0002:00011d84       ??_C@_08OCGEPAFE@ABGR8888?$AA@ 004aad84     bitmap:imageformat.obj
 0002:00011d90       ??_C@_08OILDNPBG@RGBA8888?$AA@ 004aad90     bitmap:imageformat.obj
 0002:00011da4       __real@c77fe000            004aada4     bitmap:colorconversion.obj
 0002:00011da8       __real@38800000            004aada8     bitmap:colorconversion.obj
 0002:00011dac       __real@3da7ef9e            004aadac     bitmap:colorconversion.obj
 0002:00011db0       __real@3f1c01a3            004aadb0     bitmap:colorconversion.obj
 0002:00011db4       __real@3e9e00d2            004aadb4     bitmap:colorconversion.obj
 0002:00011db8       __real@477fff00            004aadb8     bitmap:colorconversion.obj
 0002:00011dbc       __real@45800000            004aadbc     bitmap:colorconversion.obj
 0002:00011dc0       __real@43000000            004aadc0     bitmap:colorconversion.obj
 0002:00011dc4       __real@42fe0000            004aadc4     bitmap:colorconversion.obj
 0002:00011dc8       __real@3c010204            004aadc8     bitmap:colorconversion.obj
 0002:00011dcc       __real@3e991687            004aadcc     bitmap:colorconversion.obj
 0002:00011dd0       __real@3f1645a2            004aadd0     bitmap:colorconversion.obj
 0002:00011dd4       __real@3de978d5            004aadd4     bitmap:colorconversion.obj
 0002:00011dd8       __real@37800000            004aadd8     bitmap:colorconversion.obj
 0002:00011de0       __real@42cc0000            004aade0     bitmap:resample.obj
 0002:00011de4       ??_C@_0P@JPKGKFHD@AlphaThreshold?$AA@ 004aade4     bitmap:ATI_Compress.obj
 0002:00011df4       ??_C@_0N@PCNBPLHN@DXT1UseAlpha?$AA@ 004aadf4     bitmap:ATI_Compress.obj
 0002:00011e04       ??_C@_0BF@OHABJJJO@UseAdaptiveWeighting?$AA@ 004aae04     bitmap:ATI_Compress.obj
 0002:00011e1c       ??_C@_07HHHMHOCD@WeightB?$AA@ 004aae1c     bitmap:ATI_Compress.obj
 0002:00011e24       ??_C@_07KALIKGG@WeightG?$AA@ 004aae24     bitmap:ATI_Compress.obj
 0002:00011e2c       ??_C@_07DNLOGMHC@WeightR?$AA@ 004aae2c     bitmap:ATI_Compress.obj
 0002:00011e38       __real@3f847ae140000000    004aae38     bitmap:ATI_Compress.obj
 0002:00011e40       ??_C@_0BE@DKLHGILP@UseChannelWeighting?$AA@ 004aae40     bitmap:ATI_Compress.obj
 0002:00011e54       __real@41700000            004aae54     bitmap:S3_intrf.obj
 0002:00011e58       ??_7CCodec@ATI_Compress@@6B@ 004aae58     bitmap:Codec.obj
 0002:00011e80       __real@4060000000000000    004aae80     bitmap:Codec.obj
 0002:00011e88       __real@405fc00000000000    004aae88     bitmap:Codec.obj
 0002:00011e90       ??_7CCodecBuffer@@6B@      004aae90     bitmap:CodecBuffer.obj
 0002:00011f70       __real@40efffe000000000    004aaf70     bitmap:CodecBuffer.obj
 0002:00011f88       __real@3f40000000000000    004aaf88     bitmap:S3_quant.obj
 0002:00011f90       __real@400c000000000000    004aaf90     bitmap:S3_quant.obj
 0002:00011f98       __real@4008000000000000    004aaf98     bitmap:S3_quant.obj
 0002:00011fa0       __real@4014000000000000    004aafa0     bitmap:S3_quant.obj
 0002:00011fa8       __real@4058000000000000    004aafa8     bitmap:S3_quant.obj
 0002:00011fb0       ??_7CCodec_ATI2N_DXT5@@6B@ 004aafb0     bitmap:Codec_ATI2N_DXT5.obj
 0002:00012030       __real@4f800000            004ab030     bitmap:Codec_ATI2N_DXT5.obj
 0002:00012038       ??_7CCodec_ATI2N@@6B@      004ab038     bitmap:Codec_ATI2N.obj
 0002:000120b8       ??_7CCodec_ATI1N@@6B@      004ab0b8     bitmap:Codec_ATI1N.obj
 0002:00012130       ??_7CCodec_DXT5_xGxR@@6B@  004ab130     bitmap:Codec_DXT5_xGxR.obj
 0002:000121b8       ??_7CCodec_DXT5_RGxB@@6B@  004ab1b8     bitmap:Codec_DXT5_RGxB.obj
 0002:00012240       ??_7CCodec_DXT5_xRBG@@6B@  004ab240     bitmap:Codec_DXT5_xRBG.obj
 0002:000122c8       ??_7CCodec_DXT5_RBxG@@6B@  004ab2c8     bitmap:Codec_DXT5_RBxG.obj
 0002:00012350       ??_7CCodec_DXT5_RxBG@@6B@  004ab350     bitmap:Codec_DXT5_RxBG.obj
 0002:000123d8       ??_7CCodec_DXT5_xGBR@@6B@  004ab3d8     bitmap:Codec_DXT5_xGBR.obj
 0002:00012460       ??_7CCodec_DXT5@@6B@       004ab460     bitmap:Codec_DXT5.obj
 0002:000124d8       ??_7CCodec_DXT3@@6B@       004ab4d8     bitmap:Codec_DXT3.obj
 0002:00012550       ??_7CCodec_DXT1@@6B@       004ab550     bitmap:Codec_DXT1.obj
 0002:000125c8       ?_toFloat@half@@0QBTuif@1@B 004ab5c8     bitmap:half.obj
 0002:000525c8       ?_eLut@half@@0QBGB         004eb5c8     bitmap:half.obj
 0002:000529c8       __real@501502f9            004eb9c8     bitmap:half.obj
 0002:000529d0       ??_7CCodecBuffer_Block@@6B@ 004eb9d0     bitmap:CodecBuffer_Block.obj
 0002:00052ab0       ??_7CCodecBuffer_RGBA32F@@6B@ 004ebab0     bitmap:CodecBuffer_RGBA32F.obj
 0002:00052b98       ??_7CCodecBuffer_RGBA16F@@6B@ 004ebb98     bitmap:CodecBuffer_RGBA16F.obj
 0002:00052c80       ??_7CCodecBuffer_RGBA16@@6B@ 004ebc80     bitmap:CodecBuffer_RGBA16.obj
 0002:00052d68       ??_7CCodecBuffer_RGBA2101010@@6B@ 004ebd68     bitmap:CodecBuffer_RGBA2101010.obj
 0002:00052e50       ??_7CCodecBuffer_RGBA8888@@6B@ 004ebe50     bitmap:CodecBuffer_RGBA8888.obj
 0002:00052f38       ??_7CCodec_DXTC@@6B@       004ebf38     bitmap:Codec_DXTC.obj
 0002:00052fb0       ??_C@_0P@GGJMOEEN@ForceFloatPath?$AA@ 004ebfb0     bitmap:Codec_DXTC.obj
 0002:00052fc0       ??_C@_0BA@FGFEHBI@RefinementSteps?$AA@ 004ebfc0     bitmap:Codec_DXTC.obj
 0002:00052fd0       ??_C@_0N@GJGMBLDI@3DRefinement?$AA@ 004ebfd0     bitmap:Codec_DXTC.obj
 0002:00052fe0       ??_C@_07DPIIIHGG@UseSSE2?$AA@ 004ebfe0     bitmap:Codec_DXTC.obj
 0002:00052fe8       ??_7CCodec_Block_4x4@@6B@  004ebfe8     bitmap:Codec_Block_4x4.obj
 0002:00053010       __real@401c000000000000    004ec010     bitmap:Codec_DXTC_Alpha.obj
 0002:00053018       __real@4018000000000000    004ec018     bitmap:Codec_DXTC_Alpha.obj
 0002:00053020       __real@3fd0000000000000    004ec020     bitmap:Codec_DXTC_RGBA.obj
 0002:00053028       __real@3fb0000000000000    004ec028     bitmap:Codec_DXTC_RGBA.obj
 0002:00053030       ??_7CCodec_DXT5_Swizzled@@6B@ 004ec030     bitmap:Codec_DXT5_Swizzled.obj
 0002:000530b8       ??_7CCodec_Block@@6B@      004ec0b8     bitmap:Codec_Block.obj
 0002:00053124       __real@51ba43b7            004ec124     bitmap:ATiXCodec.obj
 0002:00053128       __real@4b189680            004ec128     bitmap:ATiXCodec.obj
 0002:00053130       __real@3fe3333340000000    004ec130     bitmap:ATiXCodec.obj
 0002:00053138       __real@3f926e9780000000    004ec138     bitmap:ATiXCodec.obj
 0002:00053140       __real@3fb99999a0000000    004ec140     bitmap:ATiXCodec.obj
 0002:00053148       __real@47fa0000            004ec148     bitmap:ATiXCodec.obj
 0002:0005314c       __real@43010000            004ec14c     bitmap:ATiXCodec.obj
 0002:00053150       __real@c000000000000000    004ec150     bitmap:ATiXCodec.obj
 0002:00053158       __real@3fefcfcfcfcfcfd0    004ec158     bitmap:ATiXCodec.obj
 0002:00053160       __real@3f78181818181818    004ec160     bitmap:ATiXCodec.obj
 0002:00053168       __real@47c35000            004ec168     bitmap:ATiXCodec.obj
 0002:00053170       __real@3f80101020000000    004ec170     bitmap:ATiXCodec.obj
 0002:00053178       __real@3f999999a0000000    004ec178     bitmap:ATiXCodec.obj
 0002:00053180       __real@3fa99999a0000000    004ec180     bitmap:ATiXCodec.obj
 0002:00053188       __real@c47a0000            004ec188     bitmap:ATiXCodec.obj
 0002:000534d0       ??_C@_1O@PNMIMBDD@?$AAC?$AAO?$AAN?$AAI?$AAN?$AA$?$AA?$AA@ 004ec4d0     LIBCMT:initconin.obj
 0002:000535a4       ??_R3IVirtualMeshEvent@@8  004ec5a4     disp_ivp.obj
 0002:000535b4       ??_R2IVirtualMeshEvent@@8  004ec5b4     disp_ivp.obj
 0002:000535bc       ??_R1A@?0A@EA@IVirtualMeshEvent@@8 004ec5bc     disp_ivp.obj
 0002:000535d8       ??_R4CDispMeshEvent@@6B@   004ec5d8     disp_ivp.obj
 0002:000535ec       ??_R3CDispMeshEvent@@8     004ec5ec     disp_ivp.obj
 0002:000535fc       ??_R2CDispMeshEvent@@8     004ec5fc     disp_ivp.obj
 0002:00053608       ??_R1A@?0A@EA@CDispMeshEvent@@8 004ec608     disp_ivp.obj
 0002:00053624       ??_R3CPhysCollisionEntry@@8 004ec624     ivp.obj
 0002:00053634       ??_R2CPhysCollisionEntry@@8 004ec634     ivp.obj
 0002:0005363c       ??_R1A@?0A@EA@CPhysCollisionEntry@@8 004ec63c     ivp.obj
 0002:00053658       ??_R4CPhysCollisionEntrySolid@@6B@ 004ec658     ivp.obj
 0002:0005366c       ??_R3CPhysCollisionEntrySolid@@8 004ec66c     ivp.obj
 0002:0005367c       ??_R2CPhysCollisionEntrySolid@@8 004ec67c     ivp.obj
 0002:00053688       ??_R1A@?0A@EA@CPhysCollisionEntrySolid@@8 004ec688     ivp.obj
 0002:000536a4       ??_R4CPhysCollisionEntryStaticSolid@@6B@ 004ec6a4     ivp.obj
 0002:000536b8       ??_R3CPhysCollisionEntryStaticSolid@@8 004ec6b8     ivp.obj
 0002:000536c8       ??_R2CPhysCollisionEntryStaticSolid@@8 004ec6c8     ivp.obj
 0002:000536d4       ??_R1A@?0A@EA@CPhysCollisionEntryStaticSolid@@8 004ec6d4     ivp.obj
 0002:000536f0       ??_R4CPhysCollisionEntryStaticMesh@@6B@ 004ec6f0     ivp.obj
 0002:00053704       ??_R3CPhysCollisionEntryStaticMesh@@8 004ec704     ivp.obj
 0002:00053714       ??_R2CPhysCollisionEntryStaticMesh@@8 004ec714     ivp.obj
 0002:00053720       ??_R1A@?0A@EA@CPhysCollisionEntryStaticMesh@@8 004ec720     ivp.obj
 0002:0005373c       ??_R4CPhysCollisionEntryFluid@@6B@ 004ec73c     ivp.obj
 0002:00053750       ??_R3CPhysCollisionEntryFluid@@8 004ec750     ivp.obj
 0002:00053760       ??_R2CPhysCollisionEntryFluid@@8 004ec760     ivp.obj
 0002:0005376c       ??_R1A@?0A@EA@CPhysCollisionEntryFluid@@8 004ec76c     ivp.obj
 0002:00053788       ??_R4bad_alloc@std@@6B@    004ec788     mstristrip.obj
 0002:0005379c       ??_R3bad_alloc@std@@8      004ec79c     mstristrip.obj
 0002:000537ac       ??_R2bad_alloc@std@@8      004ec7ac     mstristrip.obj
 0002:000537b8       ??_R1A@?0A@EA@bad_alloc@std@@8 004ec7b8     mstristrip.obj
 0002:000537d4       ??_R1A@?0A@EA@exception@std@@8 004ec7d4     mstristrip.obj
 0002:000537f0       ??_R3exception@std@@8      004ec7f0     mstristrip.obj
 0002:00053800       ??_R2exception@std@@8      004ec800     mstristrip.obj
 0002:00053808       ??_R3IWriteStream@@8       004ec808     zip_utils.obj
 0002:00053818       ??_R2IWriteStream@@8       004ec818     zip_utils.obj
 0002:00053820       ??_R1A@?0A@EA@IWriteStream@@8 004ec820     zip_utils.obj
 0002:0005383c       ??_R4CFileStream@@6B@      004ec83c     zip_utils.obj
 0002:00053850       ??_R3CFileStream@@8        004ec850     zip_utils.obj
 0002:00053860       ??_R2CFileStream@@8        004ec860     zip_utils.obj
 0002:0005386c       ??_R1A@?0A@EA@CFileStream@@8 004ec86c     zip_utils.obj
 0002:00053888       ??_R3IZip@@8               004ec888     zip_utils.obj
 0002:00053898       ??_R2IZip@@8               004ec898     zip_utils.obj
 0002:000538a0       ??_R1A@?0A@EA@IZip@@8      004ec8a0     zip_utils.obj
 0002:000538bc       ??_R4CBufferStream@@6B@    004ec8bc     zip_utils.obj
 0002:000538d0       ??_R3CBufferStream@@8      004ec8d0     zip_utils.obj
 0002:000538e0       ??_R2CBufferStream@@8      004ec8e0     zip_utils.obj
 0002:000538ec       ??_R1A@?0A@EA@CBufferStream@@8 004ec8ec     zip_utils.obj
 0002:00053908       ??_R4CZip@@6B@             004ec908     zip_utils.obj
 0002:0005391c       ??_R3CZip@@8               004ec91c     zip_utils.obj
 0002:0005392c       ??_R2CZip@@8               004ec92c     zip_utils.obj
 0002:00053938       ??_R1A@?0A@EA@CZip@@8      004ec938     zip_utils.obj
 0002:00053954       ??_R4CDispUtilsHelper@@6B@ 004ec954     builddisp.obj
 0002:00053968       ??_R3CDispUtilsHelper@@8   004ec968     builddisp.obj
 0002:00053978       ??_R2CDispUtilsHelper@@8   004ec978     builddisp.obj
 0002:00053980       ??_R1A@?0A@EA@CDispUtilsHelper@@8 004ec980     builddisp.obj
 0002:0005399c       ??_R4CCoreDispInfo@@6B@    004ec99c     builddisp.obj
 0002:000539b0       ??_R3CCoreDispInfo@@8      004ec9b0     builddisp.obj
 0002:000539c0       ??_R2CCoreDispInfo@@8      004ec9c0     builddisp.obj
 0002:000539cc       ??_R1A@?0A@EA@CCoreDispInfo@@8 004ec9cc     builddisp.obj
 0002:000539e8       ??_R4ios_base@std@@6B@     004ec9e8     chunkfile.obj
 0002:000539fc       ??_R3ios_base@std@@8       004ec9fc     chunkfile.obj
 0002:00053a0c       ??_R2ios_base@std@@8       004eca0c     chunkfile.obj
 0002:00053a18       ??_R1A@?0A@EA@ios_base@std@@8 004eca18     chunkfile.obj
 0002:00053a34       ??_R17?0A@EA@?$_Iosb@H@std@@8 004eca34     chunkfile.obj
 0002:00053a50       ??_R3?$_Iosb@H@std@@8      004eca50     chunkfile.obj
 0002:00053a60       ??_R2?$_Iosb@H@std@@8      004eca60     chunkfile.obj
 0002:00053a68       ??_R1A@?0A@EA@?$_Iosb@H@std@@8 004eca68     chunkfile.obj
 0002:00053a84       ??_R4?$basic_istream@DU?$char_traits@D@std@@@std@@6B@ 004eca84     chunkfile.obj
 0002:00053a98       ??_R3?$basic_istream@DU?$char_traits@D@std@@@std@@8 004eca98     chunkfile.obj
 0002:00053aa8       ??_R2?$basic_istream@DU?$char_traits@D@std@@@std@@8 004ecaa8     chunkfile.obj
 0002:00053abc       ??_R1A@?0A@EA@?$basic_istream@DU?$char_traits@D@std@@@std@@8 004ecabc     chunkfile.obj
 0002:00053ad8       ??_R1A@A@3FA@?$basic_ios@DU?$char_traits@D@std@@@std@@8 004ecad8     chunkfile.obj
 0002:00053af4       ??_R3?$basic_ios@DU?$char_traits@D@std@@@std@@8 004ecaf4     chunkfile.obj
 0002:00053b04       ??_R2?$basic_ios@DU?$char_traits@D@std@@@std@@8 004ecb04     chunkfile.obj
 0002:00053b14       ??_R1A@?0A@EA@?$basic_ios@DU?$char_traits@D@std@@@std@@8 004ecb14     chunkfile.obj
 0002:00053b30       ??_R1A@A@3EA@ios_base@std@@8 004ecb30     chunkfile.obj
 0002:00053b4c       ??_R17A@3EA@?$_Iosb@H@std@@8 004ecb4c     chunkfile.obj
 0002:00053b68       ??_R4?$basic_streambuf@DU?$char_traits@D@std@@@std@@6B@ 004ecb68     chunkfile.obj
 0002:00053b7c       ??_R3?$basic_streambuf@DU?$char_traits@D@std@@@std@@8 004ecb7c     chunkfile.obj
 0002:00053b8c       ??_R2?$basic_streambuf@DU?$char_traits@D@std@@@std@@8 004ecb8c     chunkfile.obj
 0002:00053b94       ??_R1A@?0A@EA@?$basic_streambuf@DU?$char_traits@D@std@@@std@@8 004ecb94     chunkfile.obj
 0002:00053bb0       ??_R4?$basic_filebuf@DU?$char_traits@D@std@@@std@@6B@ 004ecbb0     chunkfile.obj
 0002:00053bc4       ??_R3?$basic_filebuf@DU?$char_traits@D@std@@@std@@8 004ecbc4     chunkfile.obj
 0002:00053bd4       ??_R2?$basic_filebuf@DU?$char_traits@D@std@@@std@@8 004ecbd4     chunkfile.obj
 0002:00053be0       ??_R1A@?0A@EA@?$basic_filebuf@DU?$char_traits@D@std@@@std@@8 004ecbe0     chunkfile.obj
 0002:00053bfc       ??_R4runtime_error@std@@6B@ 004ecbfc     chunkfile.obj
 0002:00053c10       ??_R3runtime_error@std@@8  004ecc10     chunkfile.obj
 0002:00053c20       ??_R2runtime_error@std@@8  004ecc20     chunkfile.obj
 0002:00053c2c       ??_R1A@?0A@EA@runtime_error@std@@8 004ecc2c     chunkfile.obj
 0002:00053c48       ??_R4facet@locale@std@@6B@ 004ecc48     chunkfile.obj
 0002:00053c5c       ??_R3facet@locale@std@@8   004ecc5c     chunkfile.obj
 0002:00053c6c       ??_R2facet@locale@std@@8   004ecc6c     chunkfile.obj
 0002:00053c74       ??_R1A@?0A@EA@facet@locale@std@@8 004ecc74     chunkfile.obj
 0002:00053c90       ??_R3codecvt_base@std@@8   004ecc90     chunkfile.obj
 0002:00053ca0       ??_R2codecvt_base@std@@8   004ecca0     chunkfile.obj
 0002:00053cac       ??_R1A@?0A@EA@codecvt_base@std@@8 004eccac     chunkfile.obj
 0002:00053cc8       ??_R4?$codecvt@DDH@std@@6B@ 004eccc8     chunkfile.obj
 0002:00053cdc       ??_R3?$codecvt@DDH@std@@8  004eccdc     chunkfile.obj
 0002:00053cec       ??_R2?$codecvt@DDH@std@@8  004eccec     chunkfile.obj
 0002:00053cfc       ??_R1A@?0A@EA@?$codecvt@DDH@std@@8 004eccfc     chunkfile.obj
 0002:00053d18       ??_R4?$basic_ifstream@DU?$char_traits@D@std@@@std@@6B@ 004ecd18     chunkfile.obj
 0002:00053d2c       ??_R3?$basic_ifstream@DU?$char_traits@D@std@@@std@@8 004ecd2c     chunkfile.obj
 0002:00053d3c       ??_R2?$basic_ifstream@DU?$char_traits@D@std@@@std@@8 004ecd3c     chunkfile.obj
 0002:00053d54       ??_R1A@?0A@EA@?$basic_ifstream@DU?$char_traits@D@std@@@std@@8 004ecd54     chunkfile.obj
 0002:00053d70       ??_R3IScriptLib@@8         004ecd70     scriplib.obj
 0002:00053d80       ??_R2IScriptLib@@8         004ecd80     scriplib.obj
 0002:00053d88       ??_R1A@?0A@EA@IScriptLib@@8 004ecd88     scriplib.obj
 0002:00053da4       ??_R4CScriptLib@@6B@       004ecda4     scriplib.obj
 0002:00053db8       ??_R3CScriptLib@@8         004ecdb8     scriplib.obj
 0002:00053dc8       ??_R2CScriptLib@@8         004ecdc8     scriplib.obj
 0002:00053dd4       ??_R1A@?0A@EA@CScriptLib@@8 004ecdd4     scriplib.obj
 0002:00053df0       ??_R4CUtlCharConversion@@6B@ 004ecdf0     tier1:utlbuffer.obj
 0002:00053e04       ??_R3CUtlCharConversion@@8 004ece04     tier1:utlbuffer.obj
 0002:00053e14       ??_R2CUtlCharConversion@@8 004ece14     tier1:utlbuffer.obj
 0002:00053e1c       ??_R1A@?0A@EA@CUtlCharConversion@@8 004ece1c     tier1:utlbuffer.obj
 0002:00053e38       ??_R4CUtlNoEscConversion@@6B@ 004ece38     tier1:utlbuffer.obj
 0002:00053e4c       ??_R3CUtlNoEscConversion@@8 004ece4c     tier1:utlbuffer.obj
 0002:00053e5c       ??_R2CUtlNoEscConversion@@8 004ece5c     tier1:utlbuffer.obj
 0002:00053e68       ??_R1A@?0A@EA@CUtlNoEscConversion@@8 004ece68     tier1:utlbuffer.obj
 0002:00053e84       ??_R4CUtlCStringConversion@@6B@ 004ece84     tier1:utlbuffer.obj
 0002:00053e98       ??_R3CUtlCStringConversion@@8 004ece98     tier1:utlbuffer.obj
 0002:00053ea8       ??_R2CUtlCStringConversion@@8 004ecea8     tier1:utlbuffer.obj
 0002:00053eb4       ??_R1A@?0A@EA@CUtlCStringConversion@@8 004eceb4     tier1:utlbuffer.obj
 0002:00053ed0       ??_R3ctype_base@std@@8     004eced0     tier1:tokenreader.obj
 0002:00053ee0       ??_R2ctype_base@std@@8     004ecee0     tier1:tokenreader.obj
 0002:00053eec       ??_R1A@?0A@EA@ctype_base@std@@8 004eceec     tier1:tokenreader.obj
 0002:00053f08       ??_R4?$basic_ios@DU?$char_traits@D@std@@@std@@6B@ 004ecf08     tier1:tokenreader.obj
 0002:00053f1c       ??_R4?$ctype@D@std@@6B@    004ecf1c     tier1:tokenreader.obj
 0002:00053f30       ??_R3?$ctype@D@std@@8      004ecf30     tier1:tokenreader.obj
 0002:00053f40       ??_R2?$ctype@D@std@@8      004ecf40     tier1:tokenreader.obj
 0002:00053f50       ??_R1A@?0A@EA@?$ctype@D@std@@8 004ecf50     tier1:tokenreader.obj
 0002:00053f6c       ??_R4system_error@std@@6B@ 004ecf6c     tier1:tokenreader.obj
 0002:00053f80       ??_R3system_error@std@@8   004ecf80     tier1:tokenreader.obj
 0002:00053f90       ??_R2system_error@std@@8   004ecf90     tier1:tokenreader.obj
 0002:00053fa0       ??_R1A@?0A@EA@system_error@std@@8 004ecfa0     tier1:tokenreader.obj
 0002:00053fbc       ??_R4failure@ios_base@std@@6B@ 004ecfbc     tier1:tokenreader.obj
 0002:00053fd0       ??_R3failure@ios_base@std@@8 004ecfd0     tier1:tokenreader.obj
 0002:00053fe0       ??_R2failure@ios_base@std@@8 004ecfe0     tier1:tokenreader.obj
 0002:00053ff4       ??_R1A@?0A@EA@failure@ios_base@std@@8 004ecff4     tier1:tokenreader.obj
 0002:00054010       ??_R4TokenReader@@6B@      004ed010     tier1:tokenreader.obj
 0002:00054024       ??_R3TokenReader@@8        004ed024     tier1:tokenreader.obj
 0002:00054034       ??_R2TokenReader@@8        004ed034     tier1:tokenreader.obj
 0002:00054050       ??_R1A@?0A@EA@TokenReader@@8 004ed050     tier1:tokenreader.obj
 0002:0005406c       ??_R1A@?0A@EN@?$basic_ifstream@DU?$char_traits@D@std@@@std@@8 004ed06c     tier1:tokenreader.obj
 0002:00054088       ??_R1A@?0A@EJ@?$basic_istream@DU?$char_traits@D@std@@@std@@8 004ed088     tier1:tokenreader.obj
 0002:000540a4       ??_R1A@A@3FJ@?$basic_ios@DU?$char_traits@D@std@@@std@@8 004ed0a4     tier1:tokenreader.obj
 0002:000540c0       ??_R1A@A@3EJ@ios_base@std@@8 004ed0c0     tier1:tokenreader.obj
 0002:000540dc       ??_R17A@3EJ@?$_Iosb@H@std@@8 004ed0dc     tier1:tokenreader.obj
 0002:000540f8       ??_R3IVTFTexture@@8        004ed0f8     vtf:vtf.obj
 0002:00054108       ??_R2IVTFTexture@@8        004ed108     vtf:vtf.obj
 0002:00054110       ??_R1A@?0A@EA@IVTFTexture@@8 004ed110     vtf:vtf.obj
 0002:0005412c       ??_R4CVTFTexture@@6B@      004ed12c     vtf:vtf.obj
 0002:00054140       ??_R3CVTFTexture@@8        004ed140     vtf:vtf.obj
 0002:00054150       ??_R2CVTFTexture@@8        004ed150     vtf:vtf.obj
 0002:0005415c       ??_R1A@?0A@EA@CVTFTexture@@8 004ed15c     vtf:vtf.obj
 0002:00054178       ??_R4type_info@@6B@        004ed178     LIBCMT:typinfo.obj
 0002:0005418c       ??_R3type_info@@8          004ed18c     LIBCMT:typinfo.obj
 0002:0005419c       ??_R2type_info@@8          004ed19c     LIBCMT:typinfo.obj
 0002:000541a4       ??_R1A@?0A@EA@type_info@@8 004ed1a4     LIBCMT:typinfo.obj
 0002:000541c0       ??_R4exception@std@@6B@    004ed1c0     LIBCMT:stdexcpt.obj
 0002:000541d4       ??_R4bad_cast@std@@6B@     004ed1d4     LIBCMT:stdexcpt.obj
 0002:000541e8       ??_R3bad_cast@std@@8       004ed1e8     LIBCMT:stdexcpt.obj
 0002:000541f8       ??_R2bad_cast@std@@8       004ed1f8     LIBCMT:stdexcpt.obj
 0002:00054204       ??_R1A@?0A@EA@bad_cast@std@@8 004ed204     LIBCMT:stdexcpt.obj
 0002:00054220       ??_R4bad_exception@std@@6B@ 004ed220     LIBCMT:frame.obj
 0002:00054234       ??_R3bad_exception@std@@8  004ed234     LIBCMT:frame.obj
 0002:00054244       ??_R2bad_exception@std@@8  004ed244     LIBCMT:frame.obj
 0002:00054250       ??_R1A@?0A@EA@bad_exception@std@@8 004ed250     LIBCMT:frame.obj
 0002:0005426c       ??_R4logic_error@std@@6B@  004ed26c     libcpmt:xthrow.obj
 0002:00054280       ??_R3logic_error@std@@8    004ed280     libcpmt:xthrow.obj
 0002:00054290       ??_R2logic_error@std@@8    004ed290     libcpmt:xthrow.obj
 0002:0005429c       ??_R1A@?0A@EA@logic_error@std@@8 004ed29c     libcpmt:xthrow.obj
 0002:000542b8       ??_R4length_error@std@@6B@ 004ed2b8     libcpmt:xthrow.obj
 0002:000542cc       ??_R3length_error@std@@8   004ed2cc     libcpmt:xthrow.obj
 0002:000542dc       ??_R2length_error@std@@8   004ed2dc     libcpmt:xthrow.obj
 0002:000542ec       ??_R1A@?0A@EA@length_error@std@@8 004ed2ec     libcpmt:xthrow.obj
 0002:00054308       ??_R4out_of_range@std@@6B@ 004ed308     libcpmt:xthrow.obj
 0002:0005431c       ??_R3out_of_range@std@@8   004ed31c     libcpmt:xthrow.obj
 0002:0005432c       ??_R2out_of_range@std@@8   004ed32c     libcpmt:xthrow.obj
 0002:0005433c       ??_R1A@?0A@EA@out_of_range@std@@8 004ed33c     libcpmt:xthrow.obj
 0002:00054358       ??_R4_Locimp@locale@std@@6B@ 004ed358     libcpmt:locale0.obj
 0002:0005436c       ??_R3_Locimp@locale@std@@8 004ed36c     libcpmt:locale0.obj
 0002:0005437c       ??_R2_Locimp@locale@std@@8 004ed37c     libcpmt:locale0.obj
 0002:00054388       ??_R1A@?0A@EA@_Locimp@locale@std@@8 004ed388     libcpmt:locale0.obj
 0002:000543a4       ??_R4error_category@std@@6B@ 004ed3a4     libcpmt:syserror.obj
 0002:000543b8       ??_R3error_category@std@@8 004ed3b8     libcpmt:syserror.obj
 0002:000543c8       ??_R2error_category@std@@8 004ed3c8     libcpmt:syserror.obj
 0002:000543d0       ??_R1A@?0A@EA@error_category@std@@8 004ed3d0     libcpmt:syserror.obj
 0002:000543ec       ??_R4_Generic_error_category@std@@6B@ 004ed3ec     libcpmt:syserror.obj
 0002:00054400       ??_R3_Generic_error_category@std@@8 004ed400     libcpmt:syserror.obj
 0002:00054410       ??_R2_Generic_error_category@std@@8 004ed410     libcpmt:syserror.obj
 0002:0005441c       ??_R1A@?0A@EA@_Generic_error_category@std@@8 004ed41c     libcpmt:syserror.obj
 0002:00054438       ??_R4_Iostream_error_category@std@@6B@ 004ed438     libcpmt:syserror.obj
 0002:0005444c       ??_R3_Iostream_error_category@std@@8 004ed44c     libcpmt:syserror.obj
 0002:0005445c       ??_R2_Iostream_error_category@std@@8 004ed45c     libcpmt:syserror.obj
 0002:00054468       ??_R1A@?0A@EA@_Iostream_error_category@std@@8 004ed468     libcpmt:syserror.obj
 0002:00054484       ??_R4_System_error_category@std@@6B@ 004ed484     libcpmt:syserror.obj
 0002:00054498       ??_R3_System_error_category@std@@8 004ed498     libcpmt:syserror.obj
 0002:000544a8       ??_R2_System_error_category@std@@8 004ed4a8     libcpmt:syserror.obj
 0002:000544b8       ??_R1A@?0A@EA@_System_error_category@std@@8 004ed4b8     libcpmt:syserror.obj
 0002:000544d4       ___rtc_iaa                 004ed4d4     LIBCMT:_initsect_.obj
 0002:000544d8       ___rtc_izz                 004ed4d8     LIBCMT:_initsect_.obj
 0002:000544dc       ___rtc_taa                 004ed4dc     LIBCMT:_initsect_.obj
 0002:000544e0       ___rtc_tzz                 004ed4e0     LIBCMT:_initsect_.obj
 0002:000544e8       __TI2?AVbad_alloc@std@@    004ed4e8     mstristrip.obj
 0002:000544f8       __CTA2?AVbad_alloc@std@@   004ed4f8     mstristrip.obj
 0002:00054504       __CT??_R0?AVbad_alloc@std@@@8??0bad_alloc@std@@QAE@ABV01@@Z12 004ed504     mstristrip.obj
 0002:00054520       __CT??_R0?AVexception@std@@@8??0exception@std@@QAE@ABV01@@Z12 004ed520     mstristrip.obj
 0002:000545c8       __TI2?AVruntime_error@std@@ 004ed5c8     chunkfile.obj
 0002:000545d8       __CTA2?AVruntime_error@std@@ 004ed5d8     chunkfile.obj
 0002:000545e4       __CT??_R0?AVruntime_error@std@@@8??0runtime_error@std@@QAE@ABV01@@Z12 004ed5e4     chunkfile.obj
 0002:00054600       __TI2?AVbad_cast@std@@     004ed600     chunkfile.obj
 0002:00054610       __CTA2?AVbad_cast@std@@    004ed610     chunkfile.obj
 0002:0005461c       __CT??_R0?AVbad_cast@std@@@8??0bad_cast@std@@QAE@ABV01@@Z12 004ed61c     chunkfile.obj
 0002:00054638       __TI4?AVfailure@ios_base@std@@ 004ed638     tier1:tokenreader.obj
 0002:00054648       __CTA4?AVfailure@ios_base@std@@ 004ed648     tier1:tokenreader.obj
 0002:0005465c       __CT??_R0?AVfailure@ios_base@std@@@8??0failure@ios_base@std@@QAE@ABV012@@Z20 004ed65c     tier1:tokenreader.obj
 0002:00054678       __CT??_R0?AVsystem_error@std@@@8??0system_error@std@@QAE@ABV01@@Z20 004ed678     tier1:tokenreader.obj
 0002:00054de4       __TI2?AVbad_exception@std@@ 004edde4     LIBCMT:frame.obj
 0002:00054df4       __CTA2?AVbad_exception@std@@ 004eddf4     LIBCMT:frame.obj
 0002:00054e00       __CT??_R0?AVbad_exception@std@@@8??0bad_exception@std@@QAE@ABV01@@Z12 004ede00     LIBCMT:frame.obj
 0002:000550c4       __CT??_R0?AVlogic_error@std@@@8??0logic_error@std@@QAE@ABV01@@Z12 004ee0c4     libcpmt:xthrow.obj
 0002:000550e0       __TI3?AVlength_error@std@@ 004ee0e0     libcpmt:xthrow.obj
 0002:000550f0       __CTA3?AVlength_error@std@@ 004ee0f0     libcpmt:xthrow.obj
 0002:00055100       __CT??_R0?AVlength_error@std@@@8??0length_error@std@@QAE@ABV01@@Z12 004ee100     libcpmt:xthrow.obj
 0002:0005511c       __TI3?AVout_of_range@std@@ 004ee11c     libcpmt:xthrow.obj
 0002:0005512c       __CTA3?AVout_of_range@std@@ 004ee12c     libcpmt:xthrow.obj
 0002:0005513c       __CT??_R0?AVout_of_range@std@@@8??0out_of_range@std@@QAE@ABV01@@Z12 004ee13c     libcpmt:xthrow.obj
 0002:0005536c       __IMPORT_DESCRIPTOR_KERNEL32 004ee36c     kernel32:KERNEL32.dll
 0002:00055380       __IMPORT_DESCRIPTOR_ADVAPI32 004ee380     advapi32:ADVAPI32.dll
 0002:00055394       __IMPORT_DESCRIPTOR_tier0  004ee394     tier0:tier0.dll
 0002:000553a8       __IMPORT_DESCRIPTOR_vstdlib 004ee3a8     vstdlib:vstdlib.dll
 0002:000553bc       __NULL_IMPORT_DESCRIPTOR   004ee3bc     kernel32:KERNEL32.dll
 0003:000000e0       ?g_EdgeDims@@3PAHA         004f00e0     disp_common.obj
 0003:000000f0       ?g_ShiftInfos@@3PAY02VCShiftInfo@@A 004f00f0     disp_common.obj
 0003:0000015c       ?g_EdgeSideLenMul@@3PAHA   004f015c     disp_common.obj
 0003:00000254       ??_R0?AVIVirtualMeshEvent@@@8 004f0254     disp_ivp.obj
 0003:00000274       ??_R0?AVCDispMeshEvent@@@8 004f0274     disp_ivp.obj
 0003:00000320       ?g_TWinding@@3VCTesselateWinding@@A 004f0320     disp_powerinfo.obj
 0003:00000328       ?g_PowerInfos@@3PAPAVCPowerInfo@@A 004f0328     disp_powerinfo.obj
 0003:00000374       ?g_TesselateVerts@@3PAVCTesselateVert@@A 004f0374     disp_powerinfo.obj
 0003:000006a0       ?firstmodeledge@@3HA       004f06a0     faces.obj
 0003:000006a4       ?g_maxLightmapDimension@@3MA 004f06a4     faces.obj
 0003:000006bc       ??_R0?AVCPhysCollisionEntry@@@8 004f06bc     ivp.obj
 0003:000006e0       ??_R0?AVCPhysCollisionEntrySolid@@@8 004f06e0     ivp.obj
 0003:00000708       ??_R0?AVCPhysCollisionEntryStaticSolid@@@8 004f0708     ivp.obj
 0003:00000738       ??_R0?AVCPhysCollisionEntryStaticMesh@@@8 004f0738     ivp.obj
 0003:00000764       ??_R0?AVCPhysCollisionEntryFluid@@@8 004f0764     ivp.obj
 0003:000007e0       ?g_ClipTexinfo@@3HA        004f07e0     map.obj
 0003:000007f4       ?s_MapPatchedMatToOriginalMat@@3V?$CUtlRBTree@UNameTranslationLookup_t@@HP6A_NABU1@0@ZV?$CUtlMemory@U?$UtlRBTreeNode_t@UNameTranslationLookup_t@@H@@H@@@@A 004f07f4     materialpatch.obj
 0003:00000820       __amblksiz                 004f0820     memoverride.obj
 0003:00000824       __crtheap                  004f0824     memoverride.obj
 0003:00000828       ___active_heap             004f0828     memoverride.obj
 0003:0000082c       __crtDbgFlag               004f082c     memoverride.obj
 0003:00000830       __crtAssertBusy            004f0830     memoverride.obj
 0003:00000834       ??_R0?AVbad_alloc@std@@@8  004f0834     mstristrip.obj
 0003:00000850       ??_R0?AVexception@std@@@8  004f0850     mstristrip.obj
 0003:000008b4       ?g_SkyCluster@@3HA         004f08b4     prtfile.obj
 0003:00000930       ?baseaxis@@3PAVVector@@A   004f0930     textures.obj
 0003:00000a28       ?microvolume@@3MA          004f0a28     vbsp.obj
 0003:00000a2c       ?g_defaultLuxelSize@@3MA   004f0a2c     vbsp.obj
 0003:00000a30       ?g_luxelScale@@3MA         004f0a30     vbsp.obj
 0003:00000a34       ?g_minLuxelScale@@3MA      004f0a34     vbsp.obj
 0003:00000a38       ?block_xl@@3HA             004f0a38     vbsp.obj
 0003:00000a3c       ?block_xh@@3HA             004f0a3c     vbsp.obj
 0003:00000a40       ?block_yl@@3HA             004f0a40     vbsp.obj
 0003:00000a44       ?block_yh@@3HA             004f0a44     vbsp.obj
 0003:00000a70       ?m_DataMap@ZIP_EndOfCentralDirRecord@@2Udatamap_t@@A 004f0a70     zip_utils.obj
 0003:00000a88       ?m_DataMap@ZIP_FileHeader@@2Udatamap_t@@A 004f0a88     zip_utils.obj
 0003:00000aa0       ?m_DataMap@ZIP_LocalFileHeader@@2Udatamap_t@@A 004f0aa0     zip_utils.obj
 0003:00000ab8       ?m_DataMap@ZIP_PreloadHeader@@2Udatamap_t@@A 004f0ab8     zip_utils.obj
 0003:00000ad0       ?m_DataMap@ZIP_PreloadDirectoryEntry@@2Udatamap_t@@A 004f0ad0     zip_utils.obj
 0003:00000b0c       ??_R0?AVIWriteStream@@@8   004f0b0c     zip_utils.obj
 0003:00000b28       ??_R0?AVCFileStream@@@8    004f0b28     zip_utils.obj
 0003:00000b44       ??_R0?AVIZip@@@8           004f0b44     zip_utils.obj
 0003:00000b58       ??_R0?AVCBufferStream@@@8  004f0b58     zip_utils.obj
 0003:0000150c       ??_R0?AVCZip@@@8           004f150c     zip_utils.obj
 0003:00001520       ?m_DataMap@dheader_t@@2Udatamap_t@@A 004f1520     bsplib.obj
 0003:00001538       ?m_DataMap@lump_t@@2Udatamap_t@@A 004f1538     bsplib.obj
 0003:00001550       ?m_DataMap@dflagslump_t@@2Udatamap_t@@A 004f1550     bsplib.obj
 0003:00001568       ?m_DataMap@dplane_t@@2Udatamap_t@@A 004f1568     bsplib.obj
 0003:00001580       ?m_DataMap@dleaf_version_0_t@@2Udatamap_t@@A 004f1580     bsplib.obj
 0003:00001598       ?m_DataMap@dleaf_t@@2Udatamap_t@@A 004f1598     bsplib.obj
 0003:000015b0       ?m_DataMap@CompressedLightCube@@2Udatamap_t@@A 004f15b0     bsplib.obj
 0003:000015c8       ?m_DataMap@dleafambientindex_t@@2Udatamap_t@@A 004f15c8     bsplib.obj
 0003:000015e0       ?m_DataMap@dleafambientlighting_t@@2Udatamap_t@@A 004f15e0     bsplib.obj
 0003:000015f8       ?m_DataMap@dvertex_t@@2Udatamap_t@@A 004f15f8     bsplib.obj
 0003:00001610       ?m_DataMap@dnode_t@@2Udatamap_t@@A 004f1610     bsplib.obj
 0003:00001628       ?m_DataMap@texinfo_s@@2Udatamap_t@@A 004f1628     bsplib.obj
 0003:00001640       ?m_DataMap@dtexdata_t@@2Udatamap_t@@A 004f1640     bsplib.obj
 0003:00001658       ?m_DataMap@ddispinfo_t@@2Udatamap_t@@A 004f1658     bsplib.obj
 0003:00001670       ?m_DataMap@CDispNeighbor@@2Udatamap_t@@A 004f1670     bsplib.obj
 0003:00001688       ?m_DataMap@CDispCornerNeighbors@@2Udatamap_t@@A 004f1688     bsplib.obj
 0003:000016a0       ?m_DataMap@CDispSubNeighbor@@2Udatamap_t@@A 004f16a0     bsplib.obj
 0003:000016b8       ?m_DataMap@CDispVert@@2Udatamap_t@@A 004f16b8     bsplib.obj
 0003:000016d0       ?m_DataMap@CDispTri@@2Udatamap_t@@A 004f16d0     bsplib.obj
 0003:000016e8       ?m_DataMap@CFaceMacroTextureInfo@@2Udatamap_t@@A 004f16e8     bsplib.obj
 0003:00001700       ?m_DataMap@dprimitive_t@@2Udatamap_t@@A 004f1700     bsplib.obj
 0003:00001718       ?m_DataMap@dprimvert_t@@2Udatamap_t@@A 004f1718     bsplib.obj
 0003:00001730       ?m_DataMap@dface_t@@2Udatamap_t@@A 004f1730     bsplib.obj
 0003:00001748       ?m_DataMap@dfaceid_t@@2Udatamap_t@@A 004f1748     bsplib.obj
 0003:00001760       ?m_DataMap@dbrush_t@@2Udatamap_t@@A 004f1760     bsplib.obj
 0003:00001778       ?m_DataMap@dbrushside_t@@2Udatamap_t@@A 004f1778     bsplib.obj
 0003:00001790       ?m_DataMap@dedge_t@@2Udatamap_t@@A 004f1790     bsplib.obj
 0003:000017a8       ?m_DataMap@dmodel_t@@2Udatamap_t@@A 004f17a8     bsplib.obj
 0003:000017c0       ?m_DataMap@dphysmodel_t@@2Udatamap_t@@A 004f17c0     bsplib.obj
 0003:000017d8       ?m_DataMap@dphysdisp_t@@2Udatamap_t@@A 004f17d8     bsplib.obj
 0003:000017f0       ?m_DataMap@darea_t@@2Udatamap_t@@A 004f17f0     bsplib.obj
 0003:00001808       ?m_DataMap@dareaportal_t@@2Udatamap_t@@A 004f1808     bsplib.obj
 0003:00001820       ?m_DataMap@dworldlight_t@@2Udatamap_t@@A 004f1820     bsplib.obj
 0003:00001838       ?m_DataMap@dleafwaterdata_t@@2Udatamap_t@@A 004f1838     bsplib.obj
 0003:00001850       ?m_DataMap@doccluderdata_t@@2Udatamap_t@@A 004f1850     bsplib.obj
 0003:00001868       ?m_DataMap@doccluderpolydata_t@@2Udatamap_t@@A 004f1868     bsplib.obj
 0003:00001880       ?m_DataMap@dcubemapsample_t@@2Udatamap_t@@A 004f1880     bsplib.obj
 0003:00001898       ?m_DataMap@doverlay_t@@2Udatamap_t@@A 004f1898     bsplib.obj
 0003:000018b0       ?m_DataMap@dwateroverlay_t@@2Udatamap_t@@A 004f18b0     bsplib.obj
 0003:000018c8       ?m_DataMap@doverlayfade_t@@2Udatamap_t@@A 004f18c8     bsplib.obj
 0003:000018e0       ?m_DataMap@dgamelumpheader_t@@2Udatamap_t@@A 004f18e0     bsplib.obj
 0003:000018f8       ?m_DataMap@dgamelump_t@@2Udatamap_t@@A 004f18f8     bsplib.obj
 0003:00001910       ?m_DataMap@StaticPropDictLump_t@@2Udatamap_t@@A 004f1910     bsplib.obj
 0003:00001928       ?m_DataMap@StaticPropLump_t@@2Udatamap_t@@A 004f1928     bsplib.obj
 0003:00001940       ?m_DataMap@StaticPropLumpV4_t@@2Udatamap_t@@A 004f1940     bsplib.obj
 0003:00001958       ?m_DataMap@StaticPropLumpV5_t@@2Udatamap_t@@A 004f1958     bsplib.obj
 0003:00001970       ?m_DataMap@StaticPropLeafLump_t@@2Udatamap_t@@A 004f1970     bsplib.obj
 0003:00001988       ?m_DataMap@DetailObjectDictLump_t@@2Udatamap_t@@A 004f1988     bsplib.obj
 0003:000019a0       ?m_DataMap@DetailObjectLump_t@@2Udatamap_t@@A 004f19a0     bsplib.obj
 0003:000019b8       ?m_DataMap@DetailSpriteDictLump_t@@2Udatamap_t@@A 004f19b8     bsplib.obj
 0003:000019d0       ?m_DataMap@DetailPropLightstylesLump_t@@2Udatamap_t@@A 004f19d0     bsplib.obj
 0003:000019e8       ?m_DataMap@MeshHeader_t@HardwareVerts@@2Udatamap_t@@A 004f19e8     bsplib.obj
 0003:00001a00       ?m_DataMap@FileHeader_t@HardwareVerts@@2Udatamap_t@@A 004f1a00     bsplib.obj
 0003:00001b0c       ?dvis@@3PAUdvis_t@@A       004f1b0c     bsplib.obj
 0003:00001b10       ?pdlightdata@@3PAV?$CUtlVector@EV?$CUtlMemory@EH@@@@A 004f1b10     bsplib.obj
 0003:00001b14       ?pNumworldlights@@3PAHA    004f1b14     bsplib.obj
 0003:00001b18       ?dworldlights@@3PAUdworldlight_t@@A 004f1b18     bsplib.obj
 0003:00001b1c       ?m_DataMap@swapcollideheader_t@@2Udatamap_t@@A 004f1b1c     bsplib.obj
 0003:00001b34       ?m_DataMap@swapcompactsurfaceheader_t@@2Udatamap_t@@A 004f1b34     bsplib.obj
 0003:00001b4c       ?m_DataMap@swapmoppsurfaceheader_t@@2Udatamap_t@@A 004f1b4c     bsplib.obj
 0003:00001b7c       ?texinfo@@3V?$CUtlVector@Utexinfo_s@@V?$CUtlMemory@Utexinfo_s@@H@@@@A 004f1b7c     bsplib.obj
 0003:00001b90       ?g_OccluderData@@3V?$CUtlVector@Udoccluderdata_t@@V?$CUtlMemory@Udoccluderdata_t@@H@@@@A 004f1b90     bsplib.obj
 0003:00001ba4       ?g_OccluderPolyData@@3V?$CUtlVector@Udoccluderpolydata_t@@V?$CUtlMemory@Udoccluderpolydata_t@@H@@@@A 004f1ba4     bsplib.obj
 0003:00001bb8       ?g_OccluderVertexIndices@@3V?$CUtlVector@HV?$CUtlMemory@HH@@@@A 004f1bb8     bsplib.obj
 0003:00001bcc       ?g_GameLumps@@3VCGameLump@@A 004f1bcc     bsplib.obj
 0003:00005e78       ??_R0?AVCDispUtilsHelper@@@8 004f5e78     builddisp.obj
 0003:00005e98       ??_R0?AVCCoreDispInfo@@@8  004f5e98     builddisp.obj
 0003:00005ebc       ??_R0?AVios_base@std@@@8   004f5ebc     chunkfile.obj
 0003:00005ed8       ??_R0?AV?$_Iosb@H@std@@@8  004f5ed8     chunkfile.obj
 0003:00005ef4       ??_R0?AV?$basic_istream@DU?$char_traits@D@std@@@std@@@8 004f5ef4     chunkfile.obj
 0003:00005f30       ??_R0?AV?$basic_ios@DU?$char_traits@D@std@@@std@@@8 004f5f30     chunkfile.obj
 0003:00005f68       ??_R0?AV?$basic_streambuf@DU?$char_traits@D@std@@@std@@@8 004f5f68     chunkfile.obj
 0003:00005fa4       ??_R0?AV?$basic_filebuf@DU?$char_traits@D@std@@@std@@@8 004f5fa4     chunkfile.obj
 0003:00005fe0       ??_R0?AVruntime_error@std@@@8 004f5fe0     chunkfile.obj
 0003:00006000       ??_R0?AVfacet@locale@std@@@8 004f6000     chunkfile.obj
 0003:00006020       ??_R0?AVcodecvt_base@std@@@8 004f6020     chunkfile.obj
 0003:00006040       ??_R0?AV?$codecvt@DDH@std@@@8 004f6040     chunkfile.obj
 0003:00006060       ??_R0?AVbad_cast@std@@@8   004f6060     chunkfile.obj
 0003:0000607c       ??_R0?AV?$basic_ifstream@DU?$char_traits@D@std@@@std@@@8 004f607c     chunkfile.obj
 0003:000060e8       ?g_CleanupFunctions@@3V?$CUtlLinkedList@P6AXXZG$0A@GV?$CUtlMemory@U?$UtlLinkedListElem_t@P6AXXZG@@G@@@@A 004f60e8     cmdlib.obj
 0003:00006104       ?g_ExtraSpewHooks@@3V?$CUtlLinkedList@P6AXPBD@ZG$0A@GV?$CUtlMemory@U?$UtlLinkedListElem_t@P6AXPBD@ZG@@G@@@@A 004f6104     cmdlib.obj
 0003:00006150       ?g_pfnCallback@@3P6AXPBD0H@ZA 004f6150     scriplib.obj
 0003:00006154       ?scriptlib@@3PAVIScriptLib@@A 004f6154     scriplib.obj
 0003:00006164       ??_R0?AVIScriptLib@@@8     004f6164     scriplib.obj
 0003:00006180       ??_R0?AVCScriptLib@@@8     004f6180     scriplib.obj
 0003:0000619c       ?numthreads@@3HA           004f619c     threads.obj
 0003:000061a8       ?pfSqrt@@3P6AMM@ZA         004f61a8     mathlib:mathlib_base.obj
 0003:000061ac       ?pfRSqrt@@3P6AMM@ZA        004f61ac     mathlib:mathlib_base.obj
 0003:000061b0       ?pfRSqrtFast@@3P6AMM@ZA    004f61b0     mathlib:mathlib_base.obj
 0003:000061b4       ?pfVectorNormalize@@3P6IMAAVVector@@@ZA 004f61b4     mathlib:mathlib_base.obj
 0003:000061b8       ?pfVectorNormalizeFast@@3P6IXAAVVector@@@ZA 004f61b8     mathlib:mathlib_base.obj
 0003:000061bc       ?pfInvRSquared@@3P6AMPBM@ZA 004f61bc     mathlib:mathlib_base.obj
 0003:000061c0       ?pfFastSinCos@@3P6AXMPAM0@ZA 004f61c0     mathlib:mathlib_base.obj
 0003:000061c4       ?pfFastCos@@3P6AMM@ZA      004f61c4     mathlib:mathlib_base.obj
 0003:000061d0       ?vec3_invalid@@3VVector@@B 004f61d0     mathlib:mathlib_base.obj
 0003:00006200       ?power2_n@@3PAMA           004f6200     mathlib:color_conversion.obj
 0003:00006698       ??_R0?AVCUtlCharConversion@@@8 004f6698     tier1:utlbuffer.obj
 0003:000066bc       ??_R0?AVCUtlNoEscConversion@@@8 004f66bc     tier1:utlbuffer.obj
 0003:000066e0       ??_R0?AVCUtlCStringConversion@@@8 004f66e0     tier1:utlbuffer.obj
 0003:00006704       ?s_bAllowStaticSymbolTable@CUtlSymbol@@1_NA 004f6704     tier1:utlsymbol.obj
 0003:00006720       ?g_KeyValuesErrorStack@@3VCKeyValuesErrorStack@@A 004f6720     tier1:KeyValues.obj
 0003:00006834       ??_R0?AUctype_base@std@@@8 004f6834     tier1:tokenreader.obj
 0003:00006854       ??_R0?AV?$ctype@D@std@@@8  004f6854     tier1:tokenreader.obj
 0003:00006870       ??_R0?AVsystem_error@std@@@8 004f6870     tier1:tokenreader.obj
 0003:00006890       ??_R0?AVfailure@ios_base@std@@@8 004f6890     tier1:tokenreader.obj
 0003:000068b4       ??_R0?AVTokenReader@@@8    004f68b4     tier1:tokenreader.obj
 0003:00006cf0       ?m_DataMap@VTFFileBaseHeader_t@@2Udatamap_t@@A 004f6cf0     vtf:vtf.obj
 0003:00006d08       ?m_DataMap@VTFFileHeaderV7_1_t@@2Udatamap_t@@A 004f6d08     vtf:vtf.obj
 0003:00006d20       ?m_DataMap@VTFFileHeaderV7_2_t@@2Udatamap_t@@A 004f6d20     vtf:vtf.obj
 0003:00006d38       ?m_DataMap@VTFFileHeaderV7_3_t@@2Udatamap_t@@A 004f6d38     vtf:vtf.obj
 0003:00006d50       ?m_DataMap@VTFFileHeader_t@@2Udatamap_t@@A 004f6d50     vtf:vtf.obj
 0003:00006d68       ?m_DataMap@VTFFileHeaderX360_t@@2Udatamap_t@@A 004f6d68     vtf:vtf.obj
 0003:00006d80       ?g_leftFaceVerts@@3PAHA    004f6d80     vtf:vtf.obj
 0003:00006d90       ?g_frontFaceVerts@@3PAHA   004f6d90     vtf:vtf.obj
 0003:00006da0       ?g_downFaceVerts@@3PAHA    004f6da0     vtf:vtf.obj
 0003:00006db0       ?g_rightFaceVerts@@3PAHA   004f6db0     vtf:vtf.obj
 0003:00006dc0       ?g_backFaceVerts@@3PAHA    004f6dc0     vtf:vtf.obj
 0003:00006dd0       ?g_upFaceVerts@@3PAHA      004f6dd0     vtf:vtf.obj
 0003:00006de0       ?g_FaceVerts@@3PAPAHA      004f6de0     vtf:vtf.obj
 0003:00006df8       ?g_skybox_rightFaceVerts@@3PAHA 004f6df8     vtf:vtf.obj
 0003:00006e08       ?g_skybox_leftFaceVerts@@3PAHA 004f6e08     vtf:vtf.obj
 0003:00006e18       ?g_skybox_backFaceVerts@@3PAHA 004f6e18     vtf:vtf.obj
 0003:00006e28       ?g_skybox_frontFaceVerts@@3PAHA 004f6e28     vtf:vtf.obj
 0003:00006e38       ?g_skybox_upFaceVerts@@3PAHA 004f6e38     vtf:vtf.obj
 0003:00006e48       ?g_skybox_downFaceVerts@@3PAHA 004f6e48     vtf:vtf.obj
 0003:00006e58       ?g_skybox_FaceVerts@@3PAPAHA 004f6e58     vtf:vtf.obj
 0003:00006e78       ??_R0?AVIVTFTexture@@@8    004f6e78     vtf:vtf.obj
 0003:00006e94       ??_R0?AVCVTFTexture@@@8    004f6e94     vtf:vtf.obj
 0003:000075d8       __fltused                  004f75d8     LIBCMT:_fpinit_.obj
 0003:000075dc       __ldused                   004f75dc     LIBCMT:_fpinit_.obj
 0003:000075e0       ??_R0?AVtype_info@@@8      004f75e0     LIBCMT:typinfo.obj
 0003:00007600       __iob                      004f7600     LIBCMT:_file.obj
 0003:000079f0       ___app_type                004f79f0     LIBCMT:crt0.obj
 0003:00007a20       __half                     004f7a20     LIBCMT:_pow_.obj
 0003:00007a30       __cfltcvt_tab              004f7a30     LIBCMT:cmiscdat.obj
 0003:00007a60       ___nullstring              004f7a60     LIBCMT:output.obj
 0003:00007a64       ___wnullstring             004f7a64     LIBCMT:output.obj
 0003:00007a68       ___badioinfo               004f7a68     LIBCMT:ioinit.obj
 0003:00007aa8       ___security_cookie         004f7aa8     LIBCMT:gs_cookie.obj
 0003:00007aac       ___security_cookie_complement 004f7aac     LIBCMT:gs_cookie.obj
 0003:00007ab0       ___flsindex                004f7ab0     LIBCMT:tidtable.obj
 0003:00007ab4       ___getvalueindex           004f7ab4     LIBCMT:tidtable.obj
 0003:00007ac0       ___abort_behavior          004f7ac0     LIBCMT:abort.obj
 0003:00007ac8       ___initialmbcinfo          004f7ac8     LIBCMT:mbctype.obj
 0003:00007ce8       __mbctype                  004f7ce8     LIBCMT:mbctype.obj
 0003:00007df0       __mbcasemap                004f7df0     LIBCMT:mbctype.obj
 0003:00007ef0       ___ptmbcinfo               004f7ef0     LIBCMT:mbctype.obj
 0003:00007fe8       ___globallocalestatus      004f7fe8     LIBCMT:glstatus.obj
 0003:00007fec       ___clocalestr              004f7fec     LIBCMT:nlsdata2.obj
 0003:00007ff0       ___lc_time_c               004f7ff0     LIBCMT:nlsdata2.obj
 0003:00008158       ___initiallocinfo          004f8158     LIBCMT:nlsdata2.obj
 0003:00008230       ___ptlocinfo               004f8230     LIBCMT:nlsdata2.obj
 0003:00008234       ___initiallocalestructinfo 004f8234     LIBCMT:nlsdata2.obj
 0003:00008240       ??_R0?AVbad_exception@std@@@8 004f8240     LIBCMT:frame.obj
 0003:00008388       __tmpoff                   004f8388     LIBCMT:rmtmp.obj
 0003:0000838c       __tempoff                  004f838c     LIBCMT:rmtmp.obj
 0003:00008390       __lookuptrailbytes         004f8390     LIBCMT:read.obj
 0003:00008498       __sys_errlist              004f8498     LIBCMT:syserr.obj
 0003:00008548       __sys_nerr                 004f8548     LIBCMT:syserr.obj
 0003:00008560       __HUGE                     004f8560     LIBCMT:_huge_.obj
 0003:00008570       __NLG_Destination          004f8570     LIBCMT:exsup.obj
 0003:00008580       ___lconv_static_decimal    004f8580     LIBCMT:lconv.obj
 0003:00008584       ___lconv_static_W_decimal  004f8584     LIBCMT:lconv.obj
 0003:00008588       ___lconv_c                 004f8588     LIBCMT:lconv.obj
 0003:000085d8       ___lconv                   004f85d8     LIBCMT:lconv.obj
 0003:000085dc       __pctype                   004f85dc     LIBCMT:ctype.obj
 0003:000085e0       __pwctype                  004f85e0     LIBCMT:ctype.obj
 0003:00008618       __pow10pos                 004f8618     LIBCMT:_constpow_.obj
 0003:00008778       __pow10neg                 004f8778     LIBCMT:_constpow_.obj
 0003:000088d4       __matherr_flag             004f88d4     LIBCMT:_matherr_.obj
 0003:000089c0       __d_inf                    004f89c0     LIBCMT:_util_.obj
 0003:000089c8       __d_ind                    004f89c8     LIBCMT:_util_.obj
 0003:000089d0       __d_max                    004f89d0     LIBCMT:_util_.obj
 0003:000089d8       __d_min                    004f89d8     LIBCMT:_util_.obj
 0003:000089e0       __d_mzero                  004f89e0     LIBCMT:_util_.obj
 0003:00008a04       ___mb_cur_max              004f8a04     LIBCMT:nlsdata1.obj
 0003:00008a08       ___decimal_point           004f8a08     LIBCMT:nlsdata1.obj
 0003:00008a0c       ___decimal_point_length    004f8a0c     LIBCMT:nlsdata1.obj
 0003:00008a28       __timezone                 004f8a28     LIBCMT:timeset.obj
 0003:00008a2c       __daylight                 004f8a2c     LIBCMT:timeset.obj
 0003:00008a30       __dstbias                  004f8a30     LIBCMT:timeset.obj
 0003:00008ab8       __tzname                   004f8ab8     LIBCMT:timeset.obj
 0003:00008ac0       __lpdays                   004f8ac0     LIBCMT:days.obj
 0003:00008af4       __days                     004f8af4     LIBCMT:days.obj
 0003:00008b28       __p_overlay                004f8b28     LIBCMT:dospawn.obj
 0003:00008b2c       __confh                    004f8b2c     LIBCMT:initcon.obj
 0003:00008b30       ??_R0?AVlogic_error@std@@@8 004f8b30     libcpmt:xthrow.obj
 0003:00008b50       ??_R0?AVlength_error@std@@@8 004f8b50     libcpmt:xthrow.obj
 0003:00008b70       ??_R0?AVout_of_range@std@@@8 004f8b70     libcpmt:xthrow.obj
 0003:00008b94       ?_Sync@ios_base@std@@0_NA  004f8b94     libcpmt:ios.obj
 0003:00008b98       ??_R0?AV_Locimp@locale@std@@@8 004f8b98     libcpmt:locale0.obj
 0003:00008bbc       ??_R0?AVerror_category@std@@@8 004f8bbc     libcpmt:syserror.obj
 0003:00008be0       ??_R0?AV_Generic_error_category@std@@@8 004f8be0     libcpmt:syserror.obj
 0003:00008c0c       ??_R0?AV_Iostream_error_category@std@@@8 004f8c0c     libcpmt:syserror.obj
 0003:00008c38       ??_R0?AV_System_error_category@std@@@8 004f8c38     libcpmt:syserror.obj
 0003:00008c88       ?_PJP_CPP_Copyright@@3PADA 004f8c88     libcpmt:iosptrs.obj
 0003:00009184       ?S3TC_BLOCK_WIDTH@@3HA     004f9184     bitmap:S3_intrf.obj
 0003:00009528       ?nByteBitsMask@@3PAEA      004f9528     bitmap:ATiXCodec.obj
 0003:00009534       ?dwRndAmount@@3PAKA        004f9534     bitmap:ATiXCodec.obj
 0003:00009568       __coninpfh                 004f9568     LIBCMT:initconin.obj
 0003:00009580       ?c_nonvis@@3HA             004f9580     brushbsp.obj
 0003:00009584       ?c_nodes@@3HA              004f9584     brushbsp.obj
 0003:00009588       ?c_active_brushes@@3HA     004f9588     brushbsp.obj
 0003:000095b4       ?minplanenums@@3PAHA       004f95b4     csg.obj
 0003:000095c0       ?maxplanenums@@3PAHA       004f95c0     csg.obj
 0003:0002a018       ?s_Sentinel@?1??Links@?$CUtlRBTree@UCubemapInfo_t@@GP6A_NABU1@0@ZV?$CUtlMemory@U?$UtlRBTreeNode_t@UCubemapInfo_t@@G@@G@@@@IBEABU?$UtlRBTreeLinks_t@G@@G@Z@4U3@A 0051a018     cubemap.obj
 0003:0002a020       ??_B?1??Links@?$CUtlRBTree@UCubemapInfo_t@@GP6A_NABU1@0@ZV?$CUtlMemory@U?$UtlRBTreeNode_t@UCubemapInfo_t@@G@@G@@@@IBEABU?$UtlRBTreeLinks_t@G@@G@Z@51 0051a020     cubemap.obj
 0003:0002a098       ?s_Sentinel@?1??Links@?$CUtlRBTree@UStaticPropLookup_t@@GP6A_NABU1@0@ZV?$CUtlMemory@U?$UtlRBTreeNode_t@UStaticPropLookup_t@@G@@G@@@@IBEABU?$UtlRBTreeLinks_t@G@@G@Z@4U3@A 0051a098     detailobjects.obj
 0003:0002a0a0       ??_B?1??Links@?$CUtlRBTree@UStaticPropLookup_t@@GP6A_NABU1@0@ZV?$CUtlMemory@U?$UtlRBTreeNode_t@UStaticPropLookup_t@@G@@G@@@@IBEABU?$UtlRBTreeLinks_t@G@@G@Z@51 0051a0a0     detailobjects.obj
 0003:0002a0b0       ?dummy@?1??GetNodeInfo@CVBSPTesselateHelper@@QAEAAUDispNodeInfo_t@@H@Z@4U3@A 0051a0b0     disp_ivp.obj
 0003:000341d0       ?nummapdispinfo@@3HA       005241d0     disp_vbsp.obj
 0003:000341dc       ?g_CoreDispInfos@@3V?$CUtlVector@PAVCCoreDispInfo@@V?$CUtlMemory@PAVCCoreDispInfo@@H@@@@A 005241dc     disp_vbsp.obj
 0003:000341f0       ?mapdispinfo@@3PAUmapdispinfo_t@@A 005241f0     disp_vbsp.obj
 0003:014cc1f0       ?hashverts@@3PAHA          019bc1f0     faces.obj
 0003:0150c1f0       ?c_tryedges@@3HA           019fc1f0     faces.obj
 0003:0150c1f4       ?num_edge_verts@@3HA       019fc1f4     faces.obj
 0003:0150c1f8       ?c_uniqueverts@@3HA        019fc1f8     faces.obj
 0003:0150c1fc       ?c_faces@@3HA              019fc1fc     faces.obj
 0003:0150c200       ?c_facecollapse@@3HA       019fc200     faces.obj
 0003:0150c204       ?c_tjunctions@@3HA         019fc204     faces.obj
 0003:0150c208       ?edgefaces@@3PAY01PAUface_t@@A 019fc208     faces.obj
 0003:01700208       ?edge_verts@@3PAHA         01bf0208     faces.obj
 0003:01740208       ?c_nodefaces@@3HA          01c30208     faces.obj
 0003:0174020c       ?c_faceoverflows@@3HA      01c3020c     faces.obj
 0003:01740210       ?numsuperverts@@3HA        01c30210     faces.obj
 0003:01740214       ?edge_len@@3MA             01c30214     faces.obj
 0003:01740218       ?firstmodelface@@3HA       01c30218     faces.obj
 0003:0174021c       ?c_subdivide@@3HA          01c3021c     faces.obj
 0003:01740220       ?superverts@@3PAHA         01c30220     faces.obj
 0003:01740a20       ?vertexchain@@3PAHA        01c30a20     faces.obj
 0003:01780a20       ?c_badstartverts@@3HA      01c70a20     faces.obj
 0003:01780a24       ?c_degenerate@@3HA         01c70a24     faces.obj
 0003:01780a28       ?c_merge@@3HA              01c70a28     faces.obj
 0003:01780a2c       ?c_totalverts@@3HA         01c70a2c     faces.obj
 0003:01780a38       ?edge_dir@@3VVector@@A     01c70a38     faces.obj
 0003:01780a44       ?edge_start@@3VVector@@A   01c70a44     faces.obj
 0003:01780a50       ?g_VertEdgeList@@3PAV?$CUtlVector@HV?$CUtlMemory@HH@@@@A 01c70a50     faces.obj
 0003:018c0a54       ?c_glfaces@@3HA            01db0a54     glfile.obj
 0003:018c0a60       ?physcollision@@3PAVIPhysicsCollision@@A 01db0a60     ivp.obj
 0003:018c0ab8       ?s_Sentinel@?1??Links@?$CUtlRBTree@UWaterTexInfo@@HP6A_NABU1@0@ZV?$CUtlMemory@U?$UtlRBTreeNode_t@UWaterTexInfo@@H@@H@@@@IBEABU?$UtlRBTreeLinks_t@H@@H@Z@4U3@A 01db0ab8     ivp.obj
 0003:018c0ac8       ??_B?1??Links@?$CUtlRBTree@UWaterTexInfo@@HP6A_NABU1@0@ZV?$CUtlMemory@U?$UtlRBTreeNode_t@UWaterTexInfo@@H@@H@@@@IBEABU?$UtlRBTreeLinks_t@H@@H@Z@51 01db0ac8     ivp.obj
 0003:018c0ae8       ?nummapbrushsides@@3HA     01db0ae8     map.obj
 0003:018c0aec       ?nummapbrushes@@3HA        01db0aec     map.obj
 0003:018c0af0       ?planehash@@3PAPAUplane_t@@A 01db0af0     map.obj
 0003:018c1af0       ?c_edgebevels@@3HA         01db1af0     map.obj
 0003:018c1af4       ?c_areaportals@@3HA        01db1af4     map.obj
 0003:018c1af8       ?nummapplanes@@3HA         01db1af8     map.obj
 0003:018c1afc       ?c_boxbevels@@3HA          01db1afc     map.obj
 0003:018c1b00       ?c_clipbrushes@@3HA        01db1b00     map.obj
 0003:018c1b0c       ?map_mins@@3VVector@@A     01db1b0c     map.obj
 0003:018c1b18       ?map_maxs@@3VVector@@A     01db1b18     map.obj
 0003:018c1b24       ?g_NoDynamicShadowSides@@3V?$CUtlVector@HV?$CUtlMemory@HH@@@@A 01db1b24     map.obj
 0003:018c1b38       ?brushsides@@3PAUside_t@@A 01db1b38     map.obj
 0003:01f01b38       ?side_brushtextures@@3PAUbrush_texture_t@@A 023f1b38     map.obj
 0003:02a41b38       ?mapbrushes@@3PAUmapbrush_t@@A 02f31b38     map.obj
 0003:02aa1b38       ?mapplanes@@3PAUplane_t@@A 02f91b38     map.obj
 0003:02c21b38       ?id@?$codecvt@DDH@std@@2V0locale@2@A 03111b38     map.obj
 0003:02c21b3c       ?s_Sentinel@?1??Links@?$CUtlRBTree@UNameTranslationLookup_t@@HP6A_NABU1@0@ZV?$CUtlMemory@U?$UtlRBTreeNode_t@UNameTranslationLookup_t@@H@@H@@@@IBEABU?$UtlRBTreeLinks_t@H@@H@Z@4U3@A 03111b3c     materialpatch.obj
 0003:02c21b4c       ??_B?1??Links@?$CUtlRBTree@UNameTranslationLookup_t@@HP6A_NABU1@0@ZV?$CUtlMemory@U?$UtlRBTreeNode_t@UNameTranslationLookup_t@@H@@H@@@@IBEABU?$UtlRBTreeLinks_t@H@@H@Z@51 03111b4c     materialpatch.obj
 0003:02c21b90       ?g_ReplaceMaterials@@3_NA  03111b90     materialsub.obj
 0003:02c21ba8       __crtBreakAlloc            03111ba8     memoverride.obj
 0003:02c21bac       ___crtDebugCheckCount      03111bac     memoverride.obj
 0003:02c21bb0       ___crtDebugFillThreshold   03111bb0     memoverride.obj
 0003:02c21bd0       ?draw_maxs@@3VVector@@A    03111bd0     nodraw.obj
 0003:02c21bdc       ?draw_mins@@3VVector@@A    03111bdc     nodraw.obj
 0003:02c21bf8       ?g_aMapOverlays@@3V?$CUtlVector@Umapoverlay_t@@V?$CUtlMemory@Umapoverlay_t@@H@@@@A 03111bf8     overlay.obj
 0003:02c21c0c       ?g_aMapWaterOverlays@@3V?$CUtlVector@Umapoverlay_t@@V?$CUtlMemory@Umapoverlay_t@@H@@@@A 03111c0c     overlay.obj
 0003:02c21c3c       ?c_outside@@3HA            03111c3c     portals.obj
 0003:02c21c40       ?c_boundary@@3HA           03111c40     portals.obj
 0003:02c21c44       ?c_peak_portals@@3HA       03111c44     portals.obj
 0003:02c21c48       ?c_solid@@3HA              03111c48     portals.obj
 0003:02c21c4c       ?c_boundary_sides@@3HA     03111c4c     portals.obj
 0003:02c21c50       ?c_tinyportals@@3HA        03111c50     portals.obj
 0003:02c21c54       ?c_inside@@3HA             03111c54     portals.obj
 0003:02c21c58       ?c_areas@@3HA              03111c58     portals.obj
 0003:02c21c5c       ?c_active_portals@@3HA     03111c5c     portals.obj
 0003:02c21c80       ?num_visclusters@@3HA      03111c80     prtfile.obj
 0003:02c21c84       ?num_visportals@@3HA       03111c84     prtfile.obj
 0003:02c21c88       ?clusterleaf@@3HA          03111c88     prtfile.obj
 0003:02c21ccc       ?s_pPhysCollision@@3PAVIPhysicsCollision@@A 03111ccc     staticprop.obj
 0003:02c21d38       ?s_Sentinel@?1??Links@?$CUtlRBTree@UModelCollisionLookup_t@@GP6A_NABU1@0@ZV?$CUtlMemory@U?$UtlRBTreeNode_t@UModelCollisionLookup_t@@G@@G@@@@IBEABU?$UtlRBTreeLinks_t@G@@G@Z@4U3@A 03111d38     staticprop.obj
 0003:02c21d40       ??_B?1??Links@?$CUtlRBTree@UModelCollisionLookup_t@@GP6A_NABU1@0@ZV?$CUtlMemory@U?$UtlRBTreeNode_t@UModelCollisionLookup_t@@G@@G@@@@IBEABU?$UtlRBTreeLinks_t@G@@G@Z@51 03111d40     staticprop.obj
 0003:02c21d48       ?nummiptex@@3HA            03111d48     textures.obj
 0003:02c21d50       ?g_SurfaceProperties@@3PAHA 03111d50     textures.obj
 0003:02c23d50       ?textureref@@3PAUtextureref_t@@A 03113d50     textures.obj
 0003:02c46d50       ?physprops@@3PAVIPhysicsSurfaceProps@@A 03136d50     textures.obj
 0003:02c46d54       ?g_bHasWater@@3_NA         03136d54     textures.obj
 0003:02c46d70       ?c_pruned@@3HA             03136d70     tree.obj
 0003:02c46d98       ?nocsg@@3HA                03136d98     vbsp.obj
 0003:02c46d9c       ?nosubdiv@@3HA             03136d9c     vbsp.obj
 0003:02c46da0       ?outbase@@3PADA            03136da0     vbsp.obj
 0003:02c46dc0       ?mapbase@@3PADA            03136dc0     vbsp.obj
 0003:02c46e00       ?fulldetail@@3HA           03136e00     vbsp.obj
 0003:02c46e04       ?onlyprops@@3_NA           03136e04     vbsp.obj
 0003:02c46e08       ?nowater@@3HA              03136e08     vbsp.obj
 0003:02c46e0c       ?brush_end@@3HA            03136e0c     vbsp.obj
 0003:02c46e10       ?block_nodes@@3PAY0CC@PAUnode_t@@A 03136e10     vbsp.obj
 0003:02c48020       ?verboseentities@@3HA      03138020     vbsp.obj
 0003:02c48024       ?onlyents@@3HA             03138024     vbsp.obj
 0003:02c48028       ?noshare@@3HA              03138028     vbsp.obj
 0003:02c4802c       ?nodetail@@3HA             0313802c     vbsp.obj
 0003:02c48030       ?notjunc@@3HA              03138030     vbsp.obj
 0003:02c48034       ?noprune@@3HA              03138034     vbsp.obj
 0003:02c48038       ?noweld@@3HA               03138038     vbsp.obj
 0003:02c4803c       ?nomerge@@3HA              0313803c     vbsp.obj
